
build/telosb/main.exe:     file format elf32-msp430


Disassembly of section .text:

00004000 <__watchdog_support>:
    4000:	55 42 20 01 	mov.b	&0x0120,r5	
    4004:	35 d0 08 5a 	bis	#23048,	r5	;#0x5a08
    4008:	82 45 40 18 	mov	r5,	&0x1840	

0000400c <__init_stack>:
    400c:	31 40 00 39 	mov	#14592,	r1	;#0x3900

00004010 <__do_copy_data>:
    4010:	3f 40 0e 00 	mov	#14,	r15	;#0x000e
    4014:	0f 93       	tst	r15		
    4016:	08 24       	jz	$+18     	;abs 0x4028
    4018:	92 42 40 18 20 01 	mov	&0x1840,&0x0120	
    401e:	2f 83       	decd	r15		
    4020:	9f 4f 3c c0 00 11 	mov	-16324(r15),4352(r15);0xc03c(r15), 0x1100(r15)
    4026:	f8 23       	jnz	$-14     	;abs 0x4018

00004028 <__do_clear_bss>:
    4028:	3f 40 32 07 	mov	#1842,	r15	;#0x0732
    402c:	0f 93       	tst	r15		
    402e:	07 24       	jz	$+16     	;abs 0x403e
    4030:	92 42 40 18 20 01 	mov	&0x1840,&0x0120	
    4036:	1f 83       	dec	r15		
    4038:	cf 43 0e 11 	mov.b	#0,	4366(r15);r3 As==00, 0x110e(r15)
    403c:	f9 23       	jnz	$-12     	;abs 0x4030

0000403e <main>:
    403e:	21 82       	sub	#4,	r1	;r2 As==10
    4040:	81 42 02 00 	mov	r2,	2(r1)	;0x0002(r1)
    4044:	b1 f2 02 00 	and	#8,	2(r1)	;r2 As==11, 0x0002(r1)
    4048:	32 c2       	dint			
    404a:	03 43       	nop			
    404c:	3d 40 28 00 	mov	#40,	r13	;#0x0028
    4050:	3e 40 ff 00 	mov	#255,	r14	;#0x00ff
    4054:	3f 40 ce 11 	mov	#4558,	r15	;#0x11ce
    4058:	b0 12 6e bd 	call	#0xbd6e	
    405c:	f2 43 fd 17 	mov.b	#-1,	&0x17fd	;r3 As==11
    4060:	f2 43 30 18 	mov.b	#-1,	&0x1830	;r3 As==11
    4064:	b2 40 80 5a 20 01 	mov	#23168,	&0x0120	;#0x5a80
    406a:	a2 42 60 01 	mov	#4,	&0x0160	;r2 As==10
    406e:	a2 42 80 01 	mov	#4,	&0x0180	;r2 As==10
    4072:	b2 40 20 02 60 01 	mov	#544,	&0x0160	;#0x0220
    4078:	b2 40 20 01 80 01 	mov	#288,	&0x0180	;#0x0120
    407e:	f2 40 84 ff 57 00 	mov.b	#-124,	&0x0057	;#0xff84
    4084:	c2 43 58 00 	mov.b	#0,	&0x0058	;r3 As==00
    4088:	b2 40 00 40 82 01 	mov	#16384,	&0x0182	;#0x4000
    408e:	3c 40 0b 00 	mov	#11,	r12	;#0x000b
    4092:	3f 40 00 04 	mov	#1024,	r15	;#0x0400
    4096:	0e 43       	clr	r14		
    4098:	0d 4f       	mov	r15,	r13	
    409a:	0d de       	bis	r14,	r13	
    409c:	54 42 57 00 	mov.b	&0x0057,r4	
    40a0:	08 4d       	mov	r13,	r8	
    40a2:	88 10       	swpb	r8		
    40a4:	78 f0 07 00 	and.b	#7,	r8	;#0x0007
    40a8:	74 f0 f8 ff 	and.b	#-8,	r4	;#0xfff8
    40ac:	48 d4       	bis.b	r4,	r8	
    40ae:	c2 48 57 00 	mov.b	r8,	&0x0057	
    40b2:	c2 4d 56 00 	mov.b	r13,	&0x0056	
    40b6:	34 40 03 00 	mov	#3,	r4	;#0x0003
    40ba:	08 43       	clr	r8		
    40bc:	0b 43       	clr	r11		
    40be:	0f 3c       	jmp	$+32     	;abs 0x40de
    40c0:	1b 42 90 01 	mov	&0x0190,r11	
    40c4:	3b 52       	add	#8,	r11	;r2 As==11
    40c6:	82 4b 92 01 	mov	r11,	&0x0192	
    40ca:	b2 f0 fe ff 82 01 	and	#-2,	&0x0182	;#0xfffe
    40d0:	92 b3 82 01 	bit	#1,	&0x0182	;r3 As==01
    40d4:	fd 27       	jz	$-4      	;abs 0x40d0
    40d6:	1a 42 70 01 	mov	&0x0170,r10	
    40da:	0b 48       	mov	r8,	r11	
    40dc:	08 4a       	mov	r10,	r8	
    40de:	34 53       	add	#-1,	r4	;r3 As==11
    40e0:	ef 23       	jnz	$-32     	;abs 0x40c0
    40e2:	08 8b       	sub	r11,	r8	
    40e4:	38 90 01 04 	cmp	#1025,	r8	;#0x0401
    40e8:	01 2c       	jc	$+4      	;abs 0x40ec
    40ea:	0e 4d       	mov	r13,	r14	
    40ec:	0d 4e       	mov	r14,	r13	
    40ee:	3d f0 e0 00 	and	#224,	r13	;#0x00e0
    40f2:	3d 90 e0 00 	cmp	#224,	r13	;#0x00e0
    40f6:	04 24       	jz	$+10     	;abs 0x4100
    40f8:	12 c3       	clrc			
    40fa:	0f 10       	rrc	r15		
    40fc:	3c 53       	add	#-1,	r12	;r3 As==11
    40fe:	cc 23       	jnz	$-102    	;abs 0x4098
    4100:	5d 42 57 00 	mov.b	&0x0057,r13	
    4104:	0f 4e       	mov	r14,	r15	
    4106:	8f 10       	swpb	r15		
    4108:	7f f0 07 00 	and.b	#7,	r15	;#0x0007
    410c:	7d f0 f8 ff 	and.b	#-8,	r13	;#0xfff8
    4110:	4f dd       	bis.b	r13,	r15	
    4112:	c2 4f 57 00 	mov.b	r15,	&0x0057	
    4116:	c2 4e 56 00 	mov.b	r14,	&0x0056	
    411a:	5f 42 57 00 	mov.b	&0x0057,r15	
    411e:	7f f0 07 00 	and.b	#7,	r15	;#0x0007
    4122:	7f d0 80 ff 	bis.b	#-128,	r15	;#0xff80
    4126:	c2 4f 57 00 	mov.b	r15,	&0x0057	
    412a:	e2 42 58 00 	mov.b	#4,	&0x0058	;r2 As==10
    412e:	f2 f0 fd ff 00 00 	and.b	#-3,	&0x0000	;#0xfffd
    4134:	82 43 70 01 	mov	#0,	&0x0170	;r3 As==00
    4138:	b2 40 02 02 60 01 	mov	#514,	&0x0160	;#0x0202
    413e:	82 43 90 01 	mov	#0,	&0x0190	;r3 As==00
    4142:	b2 40 02 01 80 01 	mov	#258,	&0x0180	;#0x0102
    4148:	1f 42 60 01 	mov	&0x0160,r15	
    414c:	3f f0 cf ff 	and	#-49,	r15	;#0xffcf
    4150:	3f d0 20 00 	bis	#32,	r15	;#0x0020
    4154:	82 4f 60 01 	mov	r15,	&0x0160	
    4158:	1f 42 80 01 	mov	&0x0180,r15	
    415c:	3f f0 cf ff 	and	#-49,	r15	;#0xffcf
    4160:	3f d0 20 00 	bis	#32,	r15	;#0x0020
    4164:	82 4f 80 01 	mov	r15,	&0x0180	
    4168:	c2 43 26 00 	mov.b	#0,	&0x0026	;r3 As==00
    416c:	c2 43 2e 00 	mov.b	#0,	&0x002e	;r3 As==00
    4170:	c2 43 1b 00 	mov.b	#0,	&0x001b	;r3 As==00
    4174:	c2 43 1f 00 	mov.b	#0,	&0x001f	;r3 As==00
    4178:	c2 43 33 00 	mov.b	#0,	&0x0033	;r3 As==00
    417c:	c2 43 37 00 	mov.b	#0,	&0x0037	;r3 As==00
    4180:	c2 43 21 00 	mov.b	#0,	&0x0021	;r3 As==00
    4184:	f2 40 e0 ff 22 00 	mov.b	#-32,	&0x0022	;#0xffe0
    418a:	f2 40 30 00 29 00 	mov.b	#48,	&0x0029	;#0x0030
    4190:	f2 40 7b 00 2a 00 	mov.b	#123,	&0x002a	;#0x007b
    4196:	c2 43 19 00 	mov.b	#0,	&0x0019	;r3 As==00
    419a:	f2 40 f1 ff 1a 00 	mov.b	#-15,	&0x001a	;#0xfff1
    41a0:	f2 40 dd ff 1d 00 	mov.b	#-35,	&0x001d	;#0xffdd
    41a6:	f2 40 fd ff 1e 00 	mov.b	#-3,	&0x001e	;#0xfffd
    41ac:	f2 43 31 00 	mov.b	#-1,	&0x0031	;r3 As==11
    41b0:	f2 43 32 00 	mov.b	#-1,	&0x0032	;r3 As==11
    41b4:	c2 43 35 00 	mov.b	#0,	&0x0035	;r3 As==00
    41b8:	f2 43 36 00 	mov.b	#-1,	&0x0036	;r3 As==11
    41bc:	c2 43 25 00 	mov.b	#0,	&0x0025	;r3 As==00
    41c0:	c2 43 2d 00 	mov.b	#0,	&0x002d	;r3 As==00
    41c4:	1e 42 70 01 	mov	&0x0170,r14	
    41c8:	1f 42 70 01 	mov	&0x0170,r15	
    41cc:	0f 8e       	sub	r14,	r15	
    41ce:	3f 90 01 28 	cmp	#10241,	r15	;#0x2801
    41d2:	fa 2b       	jnc	$-10     	;abs 0x41c8
    41d4:	e2 d3 1a 00 	bis.b	#2,	&0x001a	;r3 As==10
    41d8:	f2 d2 1a 00 	bis.b	#8,	&0x001a	;r2 As==11
    41dc:	f2 d0 80 ff 1e 00 	bis.b	#-128,	&0x001e	;#0xff80
    41e2:	f2 d0 10 00 1e 00 	bis.b	#16,	&0x001e	;#0x0010
    41e8:	f2 d0 80 ff 1d 00 	bis.b	#-128,	&0x001d	;#0xff80
    41ee:	f2 d0 10 00 1d 00 	bis.b	#16,	&0x001d	;#0x0010
    41f4:	03 43       	nop			
    41f6:	03 43       	nop			
    41f8:	f2 f0 ef ff 1d 00 	and.b	#-17,	&0x001d	;#0xffef
    41fe:	f2 f0 f7 ff 19 00 	and.b	#-9,	&0x0019	;#0xfff7
    4204:	5f 43       	mov.b	#1,	r15	;r3 As==01
    4206:	b0 12 86 47 	call	#0x4786	
    420a:	4f 43       	clr.b	r15		
    420c:	b0 12 86 47 	call	#0x4786	
    4210:	5f 43       	mov.b	#1,	r15	;r3 As==01
    4212:	b0 12 86 47 	call	#0x4786	
    4216:	5f 43       	mov.b	#1,	r15	;r3 As==01
    4218:	b0 12 86 47 	call	#0x4786	
    421c:	5f 43       	mov.b	#1,	r15	;r3 As==01
    421e:	b0 12 86 47 	call	#0x4786	
    4222:	4f 43       	clr.b	r15		
    4224:	b0 12 86 47 	call	#0x4786	
    4228:	4f 43       	clr.b	r15		
    422a:	b0 12 86 47 	call	#0x4786	
    422e:	5f 43       	mov.b	#1,	r15	;r3 As==01
    4230:	b0 12 86 47 	call	#0x4786	
    4234:	f2 d0 10 00 1d 00 	bis.b	#16,	&0x001d	;#0x0010
    423a:	f2 d2 19 00 	bis.b	#8,	&0x0019	;r2 As==11
    423e:	e2 d3 19 00 	bis.b	#2,	&0x0019	;r3 As==10
    4242:	f2 d0 10 00 32 00 	bis.b	#16,	&0x0032	;#0x0010
    4248:	f2 d0 20 00 32 00 	bis.b	#32,	&0x0032	;#0x0020
    424e:	f2 d0 40 00 32 00 	bis.b	#64,	&0x0032	;#0x0040
    4254:	b0 12 ee 54 	call	#0x54ee	
    4258:	f2 d0 20 00 31 00 	bis.b	#32,	&0x0031	;#0x0020
    425e:	f2 d0 40 00 31 00 	bis.b	#64,	&0x0031	;#0x0040
    4264:	b0 12 98 b7 	call	#0xb798	
    4268:	4f 93       	tst.b	r15		
    426a:	fc 23       	jnz	$-6      	;abs 0x4264
    426c:	1c 42 0c 11 	mov	&0x110c,r12	
    4270:	1c 53       	inc	r12		
    4272:	82 4c 14 14 	mov	r12,	&0x1414	
    4276:	82 43 16 14 	mov	#0,	&0x1416	;r3 As==00
    427a:	b2 f0 ef ff 8a 01 	and	#-17,	&0x018a	;#0xffef
    4280:	b2 40 00 40 8a 01 	mov	#16384,	&0x018a	;#0x4000
    4286:	b2 f0 ef ff 88 01 	and	#-17,	&0x0188	;#0xffef
    428c:	b2 40 00 40 88 01 	mov	#16384,	&0x0188	;#0x4000
    4292:	3d 40 92 00 	mov	#146,	r13	;#0x0092
    4296:	0e 43       	clr	r14		
    4298:	3f 40 c0 16 	mov	#5824,	r15	;#0x16c0
    429c:	b0 12 6e bd 	call	#0xbd6e	
    42a0:	b2 f0 ef ff 86 01 	and	#-17,	&0x0186	;#0xffef
    42a6:	b2 40 00 40 86 01 	mov	#16384,	&0x0186	;#0x4000
    42ac:	b2 40 4a 14 8a 15 	mov	#5194,	&0x158a	;#0x144a
    42b2:	82 43 f6 11 	mov	#0,	&0x11f6	;r3 As==00
    42b6:	f2 43 16 12 	mov.b	#-1,	&0x1216	;r3 As==11
    42ba:	c2 43 b7 16 	mov.b	#0,	&0x16b7	;r3 As==00
    42be:	e2 d2 1e 00 	bis.b	#4,	&0x001e	;r2 As==10
    42c2:	f2 d0 40 00 1e 00 	bis.b	#64,	&0x001e	;#0x0040
    42c8:	f2 d0 20 00 1e 00 	bis.b	#32,	&0x001e	;#0x0020
    42ce:	d2 43 0c 12 	mov.b	#1,	&0x120c	;r3 As==01
    42d2:	d2 43 0f 14 	mov.b	#1,	&0x140f	;r3 As==01
    42d6:	d2 43 59 17 	mov.b	#1,	&0x1759	;r3 As==01
    42da:	c2 43 0e 15 	mov.b	#0,	&0x150e	;r3 As==00
    42de:	c2 43 58 17 	mov.b	#0,	&0x1758	;r3 As==00
    42e2:	f2 f0 ef ff 22 00 	and.b	#-17,	&0x0022	;#0xffef
    42e8:	e2 d2 1e 00 	bis.b	#4,	&0x001e	;r2 As==10
    42ec:	f2 f0 fd ff 1e 00 	and.b	#-3,	&0x001e	;#0xfffd
    42f2:	b2 40 8c 15 32 18 	mov	#5516,	&0x1832	;#0x158c
    42f8:	b2 40 aa 15 34 18 	mov	#5546,	&0x1834	;#0x15aa
    42fe:	b2 40 c8 15 36 18 	mov	#5576,	&0x1836	;#0x15c8
    4304:	f2 40 03 00 ec 14 	mov.b	#3,	&0x14ec	;#0x0003
    430a:	c2 43 0c 18 	mov.b	#0,	&0x180c	;r3 As==00
    430e:	b2 40 6c 17 a8 16 	mov	#5996,	&0x16a8	;#0x176c
    4314:	b2 40 76 17 aa 16 	mov	#6006,	&0x16aa	;#0x1776
    431a:	b2 40 80 17 ac 16 	mov	#6016,	&0x16ac	;#0x1780
    4320:	b2 40 8a 17 ae 16 	mov	#6026,	&0x16ae	;#0x178a
    4326:	e2 42 ed 14 	mov.b	#4,	&0x14ed	;r2 As==10
    432a:	c2 43 1b 14 	mov.b	#0,	&0x141b	;r3 As==00
    432e:	c2 43 2c 15 	mov.b	#0,	&0x152c	;r3 As==00
    4332:	c2 43 2d 15 	mov.b	#0,	&0x152d	;r3 As==00
    4336:	b0 12 d8 53 	call	#0x53d8	
    433a:	0b 4e       	mov	r14,	r11	
    433c:	08 4f       	mov	r15,	r8	
    433e:	b0 12 d8 53 	call	#0x53d8	
    4342:	04 43       	clr	r4		
    4344:	05 43       	clr	r5		
    4346:	06 43       	clr	r6		
    4348:	07 43       	clr	r7		
    434a:	05 43       	clr	r5		
    434c:	06 4b       	mov	r11,	r6	
    434e:	07 48       	mov	r8,	r7	
    4350:	08 4e       	mov	r14,	r8	
    4352:	09 4f       	mov	r15,	r9	
    4354:	0a 43       	clr	r10		
    4356:	0b 43       	clr	r11		
    4358:	0c 44       	mov	r4,	r12	
    435a:	0d 45       	mov	r5,	r13	
    435c:	0e 46       	mov	r6,	r14	
    435e:	0f 47       	mov	r7,	r15	
    4360:	0c d8       	bis	r8,	r12	
    4362:	0d d9       	bis	r9,	r13	
    4364:	0e da       	bis	r10,	r14	
    4366:	0f db       	bis	r11,	r15	
    4368:	82 4c 24 15 	mov	r12,	&0x1524	
    436c:	82 4d 26 15 	mov	r13,	&0x1526	
    4370:	82 4e 28 15 	mov	r14,	&0x1528	
    4374:	82 4f 2a 15 	mov	r15,	&0x152a	
    4378:	b0 12 40 54 	call	#0x5440	
    437c:	f2 40 03 00 a5 11 	mov.b	#3,	&0x11a5	;#0x0003
    4382:	f2 40 03 00 a6 11 	mov.b	#3,	&0x11a6	;#0x0003
    4388:	f2 40 06 00 a7 11 	mov.b	#6,	&0x11a7	;#0x0006
    438e:	f2 40 03 00 a8 11 	mov.b	#3,	&0x11a8	;#0x0003
    4394:	e2 42 a9 11 	mov.b	#4,	&0x11a9	;r2 As==10
    4398:	f2 40 09 00 aa 11 	mov.b	#9,	&0x11aa	;#0x0009
    439e:	c2 43 ab 11 	mov.b	#0,	&0x11ab	;r3 As==00
    43a2:	f2 40 03 00 ac 11 	mov.b	#3,	&0x11ac	;#0x0003
    43a8:	c2 43 ad 11 	mov.b	#0,	&0x11ad	;r3 As==00
    43ac:	c2 43 ae 11 	mov.b	#0,	&0x11ae	;r3 As==00
    43b0:	d2 43 af 11 	mov.b	#1,	&0x11af	;r3 As==01
    43b4:	d2 43 b0 11 	mov.b	#1,	&0x11b0	;r3 As==01
    43b8:	82 43 b2 11 	mov	#0,	&0x11b2	;r3 As==00
    43bc:	82 43 b4 11 	mov	#0,	&0x11b4	;r3 As==00
    43c0:	92 43 b6 11 	mov	#1,	&0x11b6	;r3 As==01
    43c4:	b2 40 f4 01 b8 11 	mov	#500,	&0x11b8	;#0x01f4
    43ca:	1f 42 0c 11 	mov	&0x110c,r15	
    43ce:	1f 53       	inc	r15		
    43d0:	02 12       	push	r2		
    43d2:	32 c2       	dint			
    43d4:	03 43       	nop			
    43d6:	82 4f 32 01 	mov	r15,	&0x0132	
    43da:	b2 40 51 37 38 01 	mov	#14161,	&0x0138	;#0x3751
    43e0:	1e 42 3a 01 	mov	&0x013a,r14	
    43e4:	32 41       	pop	r2		
    43e6:	82 4e 42 14 	mov	r14,	&0x1442	
    43ea:	82 4e 2e 18 	mov	r14,	&0x182e	
    43ee:	02 12       	push	r2		
    43f0:	32 c2       	dint			
    43f2:	03 43       	nop			
    43f4:	82 4f 32 01 	mov	r15,	&0x0132	
    43f8:	b2 40 85 0f 38 01 	mov	#3973,	&0x0138	;#0x0f85
    43fe:	92 42 3a 01 92 11 	mov	&0x013a,&0x1192	
    4404:	32 41       	pop	r2		
    4406:	82 43 08 18 	mov	#0,	&0x1808	;r3 As==00
    440a:	b2 40 ff 00 ba 16 	mov	#255,	&0x16ba	;#0x00ff
    4410:	c2 43 52 11 	mov.b	#0,	&0x1152	;r3 As==00
    4414:	7f 40 27 00 	mov.b	#39,	r15	;#0x0027
    4418:	b0 12 fa 4a 	call	#0x4afa	
    441c:	b2 f0 ef ff 82 01 	and	#-17,	&0x0182	;#0xffef
    4422:	b2 40 00 40 82 01 	mov	#16384,	&0x0182	;#0x4000
    4428:	b0 12 98 b7 	call	#0xb798	
    442c:	4f 93       	tst.b	r15		
    442e:	fc 23       	jnz	$-6      	;abs 0x4428
    4430:	81 93 02 00 	tst	2(r1)		;0x0002(r1)
    4434:	01 24       	jz	$+4      	;abs 0x4438
    4436:	32 d2       	eint			
    4438:	32 d2       	eint			
    443a:	0f 42       	mov	r2,	r15	
    443c:	32 c2       	dint			
    443e:	03 43       	nop			
    4440:	c2 43 d8 17 	mov.b	#0,	&0x17d8	;r3 As==00
    4444:	3f f2       	and	#8,	r15	;r2 As==11
    4446:	01 24       	jz	$+4      	;abs 0x444a
    4448:	32 d2       	eint			
    444a:	0f 42       	mov	r2,	r15	
    444c:	32 c2       	dint			
    444e:	03 43       	nop			
    4450:	f2 f0 7f 00 2a 00 	and.b	#127,	&0x002a	;#0x007f
    4456:	3f f2       	and	#8,	r15	;r2 As==11
    4458:	01 24       	jz	$+4      	;abs 0x445c
    445a:	32 d2       	eint			
    445c:	5f 42 28 00 	mov.b	&0x0028,r15	
    4460:	4f 93       	tst.b	r15		
    4462:	06 34       	jge	$+14     	;abs 0x4470
    4464:	d2 43 b0 16 	mov.b	#1,	&0x16b0	;r3 As==01
    4468:	4f 43       	clr.b	r15		
    446a:	b0 12 2a 58 	call	#0x582a	
    446e:	05 3c       	jmp	$+12     	;abs 0x447a
    4470:	c2 43 b0 16 	mov.b	#0,	&0x16b0	;r3 As==00
    4474:	5f 43       	mov.b	#1,	r15	;r3 As==01
    4476:	b0 12 2a 58 	call	#0x582a	
    447a:	08 42       	mov	r2,	r8	
    447c:	38 f2       	and	#8,	r8	;r2 As==11
    447e:	32 c2       	dint			
    4480:	03 43       	nop			
    4482:	86 3c       	jmp	$+270    	;abs 0x4590
    4484:	c2 93 0a 11 	tst.b	&0x110a	
    4488:	77 24       	jz	$+240    	;abs 0x4578
    448a:	b2 b0 10 00 62 01 	bit	#16,	&0x0162	;#0x0010
    4490:	08 20       	jnz	$+18     	;abs 0x44a2
    4492:	b2 b0 10 00 64 01 	bit	#16,	&0x0164	;#0x0010
    4498:	04 20       	jnz	$+10     	;abs 0x44a2
    449a:	b2 b0 10 00 66 01 	bit	#16,	&0x0166	;#0x0010
    44a0:	07 24       	jz	$+16     	;abs 0x44b0
    44a2:	1f 42 60 01 	mov	&0x0160,r15	
    44a6:	3f f0 00 03 	and	#768,	r15	;#0x0300
    44aa:	3f 90 00 02 	cmp	#512,	r15	;#0x0200
    44ae:	2e 24       	jz	$+94     	;abs 0x450c
    44b0:	5f 42 04 00 	mov.b	&0x0004,r15	
    44b4:	3f b0 c0 00 	bit	#192,	r15	;#0x00c0
    44b8:	05 24       	jz	$+12     	;abs 0x44c4
    44ba:	5f 42 71 00 	mov.b	&0x0071,r15	
    44be:	3f f0 20 00 	and	#32,	r15	;#0x0020
    44c2:	26 20       	jnz	$+78     	;abs 0x4510
    44c4:	5f 42 05 00 	mov.b	&0x0005,r15	
    44c8:	3f b0 30 00 	bit	#48,	r15	;#0x0030
    44cc:	05 24       	jz	$+12     	;abs 0x44d8
    44ce:	5f 42 79 00 	mov.b	&0x0079,r15	
    44d2:	3f f0 20 00 	and	#32,	r15	;#0x0020
    44d6:	1e 20       	jnz	$+62     	;abs 0x4514
    44d8:	5f 42 70 00 	mov.b	&0x0070,r15	
    44dc:	1f f3       	and	#1,	r15	;r3 As==01
    44de:	1c 24       	jz	$+58     	;abs 0x4518
    44e0:	5f 42 71 00 	mov.b	&0x0071,r15	
    44e4:	3f f0 20 00 	and	#32,	r15	;#0x0020
    44e8:	1a 24       	jz	$+54     	;abs 0x451e
    44ea:	5f 42 72 00 	mov.b	&0x0072,r15	
    44ee:	3f f0 20 00 	and	#32,	r15	;#0x0020
    44f2:	18 24       	jz	$+50     	;abs 0x4524
    44f4:	5f 42 70 00 	mov.b	&0x0070,r15	
    44f8:	2f f2       	and	#4,	r15	;r2 As==10
    44fa:	17 24       	jz	$+48     	;abs 0x452a
    44fc:	5f 42 70 00 	mov.b	&0x0070,r15	
    4500:	3f f0 20 00 	and	#32,	r15	;#0x0020
    4504:	15 20       	jnz	$+44     	;abs 0x4530
    4506:	7f 40 05 00 	mov.b	#5,	r15	;#0x0005
    450a:	13 3c       	jmp	$+40     	;abs 0x4532
    450c:	6f 43       	mov.b	#2,	r15	;r3 As==10
    450e:	11 3c       	jmp	$+36     	;abs 0x4532
    4510:	6f 43       	mov.b	#2,	r15	;r3 As==10
    4512:	0f 3c       	jmp	$+32     	;abs 0x4532
    4514:	6f 43       	mov.b	#2,	r15	;r3 As==10
    4516:	0d 3c       	jmp	$+28     	;abs 0x4532
    4518:	7f 40 05 00 	mov.b	#5,	r15	;#0x0005
    451c:	0a 3c       	jmp	$+22     	;abs 0x4532
    451e:	7f 40 05 00 	mov.b	#5,	r15	;#0x0005
    4522:	07 3c       	jmp	$+16     	;abs 0x4532
    4524:	7f 40 05 00 	mov.b	#5,	r15	;#0x0005
    4528:	04 3c       	jmp	$+10     	;abs 0x4532
    452a:	7f 40 05 00 	mov.b	#5,	r15	;#0x0005
    452e:	01 3c       	jmp	$+4      	;abs 0x4532
    4530:	6f 43       	mov.b	#2,	r15	;r3 As==10
    4532:	b2 b0 10 00 a0 01 	bit	#16,	&0x01a0	;#0x0010
    4538:	19 24       	jz	$+52     	;abs 0x456c
    453a:	b2 b0 10 00 a2 01 	bit	#16,	&0x01a2	;#0x0010
    4540:	05 24       	jz	$+12     	;abs 0x454c
    4542:	b2 b2 a2 01 	bit	#8,	&0x01a2	;r2 As==11
    4546:	0f 24       	jz	$+32     	;abs 0x4566
    4548:	6f 43       	mov.b	#2,	r15	;r3 As==10
    454a:	10 3c       	jmp	$+34     	;abs 0x456c
    454c:	1e 42 a2 01 	mov	&0x01a2,r14	
    4550:	3e b0 00 04 	bit	#1024,	r14	;#0x0400
    4554:	0b 24       	jz	$+24     	;abs 0x456c
    4556:	1e 42 60 01 	mov	&0x0160,r14	
    455a:	3e f0 00 03 	and	#768,	r14	;#0x0300
    455e:	3e 90 00 02 	cmp	#512,	r14	;#0x0200
    4562:	04 20       	jnz	$+10     	;abs 0x456c
    4564:	02 3c       	jmp	$+6      	;abs 0x456a
    4566:	4f 43       	clr.b	r15		
    4568:	01 3c       	jmp	$+4      	;abs 0x456c
    456a:	6f 43       	mov.b	#2,	r15	;r3 As==10
    456c:	7f 90 05 00 	cmp.b	#5,	r15	;#0x0005
    4570:	01 28       	jnc	$+4      	;abs 0x4574
    4572:	6f 42       	mov.b	#4,	r15	;r2 As==10
    4574:	c2 4f 3a 11 	mov.b	r15,	&0x113a	
    4578:	5f 42 3a 11 	mov.b	&0x113a,r15	
    457c:	0f 5f       	rla	r15		
    457e:	1f 4f ae bf 	mov	-16466(r15),r15	;0xbfae(r15)
    4582:	3f d2       	bis	#8,	r15	;r2 As==11
    4584:	81 4f 00 00 	mov	r15,	0(r1)	;0x0000(r1)
    4588:	22 d1       	bis	@r1,	r2	
    458a:	32 c2       	dint			
    458c:	03 43       	nop			
    458e:	03 43       	nop			
    4590:	f2 93 fd 17 	cmp.b	#-1,	&0x17fd	;r3 As==11
    4594:	77 27       	jz	$-272    	;abs 0x4484
    4596:	b0 12 a0 5c 	call	#0x5ca0	
    459a:	7f 93       	cmp.b	#-1,	r15	;r3 As==11
    459c:	73 27       	jz	$-280    	;abs 0x4484
    459e:	08 93       	tst	r8		
    45a0:	01 24       	jz	$+4      	;abs 0x45a4
    45a2:	32 d2       	eint			
    45a4:	b0 12 4e a0 	call	#0xa04e	
    45a8:	68 3f       	jmp	$-302    	;abs 0x447a

000045aa <__stop_progExec__>:
    45aa:	32 d0 f0 00 	bis	#240,	r2	;#0x00f0
    45ae:	fd 3f       	jmp	$-4      	;abs 0x45aa

000045b0 <__ctors_end>:
    45b0:	30 40 d8 bd 	br	#0xbdd8	

000045b4 <__nesc_ntoh_uint32>:
    45b4:	0b 12       	push	r11		
    45b6:	0b 4f       	mov	r15,	r11	
    45b8:	6d 4f       	mov.b	@r15,	r13	
    45ba:	0e 43       	clr	r14		
    45bc:	0f 43       	clr	r15		
    45be:	0f 4d       	mov	r13,	r15	
    45c0:	8f 10       	swpb	r15		
    45c2:	0c 43       	clr	r12		
    45c4:	0d 43       	clr	r13		
    45c6:	5d 4b 01 00 	mov.b	1(r11),	r13	;0x0001(r11)
    45ca:	0e dc       	bis	r12,	r14	
    45cc:	0f dd       	bis	r13,	r15	
    45ce:	5c 4b 03 00 	mov.b	3(r11),	r12	;0x0003(r11)
    45d2:	0d 43       	clr	r13		
    45d4:	0e dc       	bis	r12,	r14	
    45d6:	0f dd       	bis	r13,	r15	
    45d8:	5c 4b 02 00 	mov.b	2(r11),	r12	;0x0002(r11)
    45dc:	4d ec       	xor.b	r12,	r13	
    45de:	0d ec       	xor	r12,	r13	
    45e0:	8d 10       	swpb	r13		
    45e2:	4c 4c       	mov.b	r12,	r12	
    45e4:	8c 10       	swpb	r12		
    45e6:	0e dc       	bis	r12,	r14	
    45e8:	0f dd       	bis	r13,	r15	
    45ea:	3b 41       	pop	r11		
    45ec:	30 41       	ret			

000045ee <PibP__FrameUtility__copyLocalExtendedAddressLE>:
    45ee:	0b 12       	push	r11		
    45f0:	0a 12       	push	r10		
    45f2:	09 12       	push	r9		
    45f4:	08 12       	push	r8		
    45f6:	1c 42 24 15 	mov	&0x1524,r12	
    45fa:	1d 42 26 15 	mov	&0x1526,r13	
    45fe:	1e 42 28 15 	mov	&0x1528,r14	
    4602:	1b 42 2a 15 	mov	&0x152a,r11	
    4606:	0a 43       	clr	r10		
    4608:	49 4b       	mov.b	r11,	r9	
    460a:	08 4f       	mov	r15,	r8	
    460c:	08 5a       	add	r10,	r8	
    460e:	c8 4c 00 00 	mov.b	r12,	0(r8)	;0x0000(r8)
    4612:	8c 10       	swpb	r12		
    4614:	8d 10       	swpb	r13		
    4616:	4c ed       	xor.b	r13,	r12	
    4618:	0c ed       	xor	r13,	r12	
    461a:	8e 10       	swpb	r14		
    461c:	4d ee       	xor.b	r14,	r13	
    461e:	0d ee       	xor	r14,	r13	
    4620:	8b 10       	swpb	r11		
    4622:	4e eb       	xor.b	r11,	r14	
    4624:	0e eb       	xor	r11,	r14	
    4626:	0b 49       	mov	r9,	r11	
    4628:	1a 53       	inc	r10		
    462a:	3a 92       	cmp	#8,	r10	;r2 As==11
    462c:	ee 23       	jnz	$-34     	;abs 0x460a
    462e:	38 41       	pop	r8		
    4630:	39 41       	pop	r9		
    4632:	3a 41       	pop	r10		
    4634:	3b 41       	pop	r11		
    4636:	30 41       	ret			

00004638 <CC2420SpiP__SpiByte__write>:
    4638:	c2 4f 77 00 	mov.b	r15,	&0x0077	
    463c:	5f 42 02 00 	mov.b	&0x0002,r15	
    4640:	3f f0 40 00 	and	#64,	r15	;#0x0040
    4644:	fb 27       	jz	$-8      	;abs 0x463c
    4646:	f2 f0 bf ff 02 00 	and.b	#-65,	&0x0002	;#0xffbf
    464c:	5f 42 76 00 	mov.b	&0x0076,r15	
    4650:	30 41       	ret			

00004652 <BeaconSynchronizeP__setRxState>:
    4652:	7f f0 03 00 	and.b	#3,	r15	;#0x0003
    4656:	5e 42 50 11 	mov.b	&0x1150,r14	
    465a:	7e f0 fc ff 	and.b	#-4,	r14	;#0xfffc
    465e:	4f de       	bis.b	r14,	r15	
    4660:	c2 4f 50 11 	mov.b	r15,	&0x1150	
    4664:	30 41       	ret			

00004666 <CC2420TransmitP__CSN__clr>:
    4666:	f2 f0 fb ff 1d 00 	and.b	#-5,	&0x001d	;#0xfffb
    466c:	30 41       	ret			

0000466e <CC2420TransmitP__CSN__set>:
    466e:	e2 d2 1d 00 	bis.b	#4,	&0x001d	;r2 As==10
    4672:	30 41       	ret			

00004674 <CC2420ControlP__CSN__set>:
    4674:	e2 d2 1d 00 	bis.b	#4,	&0x001d	;r2 As==10
    4678:	30 41       	ret			

0000467a <CC2420ControlP__CSN__clr>:
    467a:	f2 f0 fb ff 1d 00 	and.b	#-5,	&0x001d	;#0xfffb
    4680:	30 41       	ret			

00004682 <CC2420ReceiveP__CSN__set>:
    4682:	e2 d2 1d 00 	bis.b	#4,	&0x001d	;r2 As==10
    4686:	30 41       	ret			

00004688 <BeaconSynchronizeP__setMode>:
    4688:	7f f0 0c 00 	and.b	#12,	r15	;#0x000c
    468c:	5e 42 50 11 	mov.b	&0x1150,r14	
    4690:	7e f0 f3 ff 	and.b	#-13,	r14	;#0xfff3
    4694:	4f de       	bis.b	r14,	r15	
    4696:	c2 4f 50 11 	mov.b	r15,	&0x1150	
    469a:	30 41       	ret			

0000469c <Msp430TimerP__1__Timer__get>:
    469c:	1f 42 90 01 	mov	&0x0190,r15	
    46a0:	01 3c       	jmp	$+4      	;abs 0x46a4
    46a2:	0f 4e       	mov	r14,	r15	
    46a4:	1e 42 90 01 	mov	&0x0190,r14	
    46a8:	0f 9e       	cmp	r14,	r15	
    46aa:	fb 23       	jnz	$-8      	;abs 0x46a2
    46ac:	30 41       	ret			

000046ae <GpioCaptureC__0__enableCapture>:
    46ae:	b2 f0 ef ff 84 01 	and	#-17,	&0x0184	;#0xffef
    46b4:	e2 d3 1f 00 	bis.b	#2,	&0x001f	;r3 As==10
    46b8:	b2 f0 fe ff 84 01 	and	#-2,	&0x0184	;#0xfffe
    46be:	b2 f0 fd ff 84 01 	and	#-3,	&0x0184	;#0xfffd
    46c4:	4f 4f       	mov.b	r15,	r15	
    46c6:	8f 10       	swpb	r15		
    46c8:	7e 40 06 00 	mov.b	#6,	r14	;#0x0006
    46cc:	0f 5f       	rla	r15		
    46ce:	7e 53       	add.b	#-1,	r14	;r3 As==11
    46d0:	fd 23       	jnz	$-4      	;abs 0x46cc
    46d2:	3f d0 00 01 	bis	#256,	r15	;#0x0100
    46d6:	82 4f 84 01 	mov	r15,	&0x0184	
    46da:	b2 d0 10 00 84 01 	bis	#16,	&0x0184	;#0x0010
    46e0:	0f 43       	clr	r15		
    46e2:	30 41       	ret			

000046e4 <CC2420SpiP__Strobe__strobe>:
    46e4:	c2 93 b7 16 	tst.b	&0x16b7	
    46e8:	03 24       	jz	$+8      	;abs 0x46f0
    46ea:	b0 12 38 46 	call	#0x4638	
    46ee:	30 41       	ret			
    46f0:	4f 43       	clr.b	r15		
    46f2:	30 41       	ret			

000046f4 <DispatchSlottedCsmaP__1__restoreFrameFromBackup>:
    46f4:	92 42 3a 14 1a 18 	mov	&0x143a,&0x181a	
    46fa:	3f 40 36 14 	mov	#5174,	r15	;#0x1436
    46fe:	92 4f 06 00 04 12 	mov	6(r15),	&0x1204	;0x0006(r15)
    4704:	92 4f 08 00 06 12 	mov	8(r15),	&0x1206	;0x0008(r15)
    470a:	a2 4f 3a 18 	mov	@r15,	&0x183a	
    470e:	92 4f 02 00 3c 18 	mov	2(r15),	&0x183c	;0x0002(r15)
    4714:	30 41       	ret			

00004716 <Msp430SpiNoDmaP__0__continueOp>:
    4716:	1e 42 1e 14 	mov	&0x141e,r14	
    471a:	1f 42 00 18 	mov	&0x1800,r15	
    471e:	0e 93       	tst	r14		
    4720:	03 24       	jz	$+8      	;abs 0x4728
    4722:	0e 5f       	add	r15,	r14	
    4724:	6e 4e       	mov.b	@r14,	r14	
    4726:	01 3c       	jmp	$+4      	;abs 0x472a
    4728:	4e 43       	clr.b	r14		
    472a:	c2 4e 77 00 	mov.b	r14,	&0x0077	
    472e:	6f 53       	incd.b	r15		
    4730:	1e 42 06 18 	mov	&0x1806,r14	
    4734:	4d 4f       	mov.b	r15,	r13	
    4736:	0e 9d       	cmp	r13,	r14	
    4738:	1c 2c       	jc	$+58     	;abs 0x4772
    473a:	4f 4e       	mov.b	r14,	r15	
    473c:	1a 3c       	jmp	$+54     	;abs 0x4772
    473e:	5e 42 02 00 	mov.b	&0x0002,r14	
    4742:	3e f0 40 00 	and	#64,	r14	;#0x0040
    4746:	fb 27       	jz	$-8      	;abs 0x473e
    4748:	5c 42 76 00 	mov.b	&0x0076,r12	
    474c:	1e 42 88 15 	mov	&0x1588,r14	
    4750:	0e 93       	tst	r14		
    4752:	03 24       	jz	$+8      	;abs 0x475a
    4754:	0d 5e       	add	r14,	r13	
    4756:	cd 4c 00 00 	mov.b	r12,	0(r13)	;0x0000(r13)
    475a:	1e 42 1e 14 	mov	&0x141e,r14	
    475e:	0e 93       	tst	r14		
    4760:	04 24       	jz	$+10     	;abs 0x476a
    4762:	1e 52 00 18 	add	&0x1800,r14	
    4766:	6e 4e       	mov.b	@r14,	r14	
    4768:	01 3c       	jmp	$+4      	;abs 0x476c
    476a:	4e 43       	clr.b	r14		
    476c:	c2 4e 77 00 	mov.b	r14,	&0x0077	
    4770:	01 3c       	jmp	$+4      	;abs 0x4774
    4772:	4f 4f       	mov.b	r15,	r15	
    4774:	1d 42 00 18 	mov	&0x1800,r13	
    4778:	0e 4d       	mov	r13,	r14	
    477a:	1e 53       	inc	r14		
    477c:	82 4e 00 18 	mov	r14,	&0x1800	
    4780:	0e 9f       	cmp	r15,	r14	
    4782:	dd 2b       	jnc	$-68     	;abs 0x473e
    4784:	30 41       	ret			

00004786 <MotePlatformC__TOSH_FLASH_M25P_DP_bit>:
    4786:	4f 93       	tst.b	r15		
    4788:	04 24       	jz	$+10     	;abs 0x4792
    478a:	5f 42 19 00 	mov.b	&0x0019,r15	
    478e:	6f d3       	bis.b	#2,	r15	;r3 As==10
    4790:	04 3c       	jmp	$+10     	;abs 0x479a
    4792:	5f 42 19 00 	mov.b	&0x0019,r15	
    4796:	7f f0 fd ff 	and.b	#-3,	r15	;#0xfffd
    479a:	c2 4f 19 00 	mov.b	r15,	&0x0019	
    479e:	f2 d2 19 00 	bis.b	#8,	&0x0019	;r2 As==11
    47a2:	f2 f0 f7 ff 19 00 	and.b	#-9,	&0x0019	;#0xfff7
    47a8:	30 41       	ret			

000047aa <PibP__FrameUtility__convertToNative>:
    47aa:	0b 12       	push	r11		
    47ac:	0a 12       	push	r10		
    47ae:	09 12       	push	r9		
    47b0:	08 12       	push	r8		
    47b2:	07 12       	push	r7		
    47b4:	06 12       	push	r6		
    47b6:	05 12       	push	r5		
    47b8:	04 12       	push	r4		
    47ba:	31 50 f2 ff 	add	#-14,	r1	;#0xfff2
    47be:	06 4f       	mov	r15,	r6	
    47c0:	5d 4e 07 00 	mov.b	7(r14),	r13	;0x0007(r14)
    47c4:	0a 43       	clr	r10		
    47c6:	0b 43       	clr	r11		
    47c8:	0b 4d       	mov	r13,	r11	
    47ca:	8b 10       	swpb	r11		
    47cc:	0c 43       	clr	r12		
    47ce:	0d 43       	clr	r13		
    47d0:	5d 4e 06 00 	mov.b	6(r14),	r13	;0x0006(r14)
    47d4:	0a dc       	bis	r12,	r10	
    47d6:	0b dd       	bis	r13,	r11	
    47d8:	5c 4e 04 00 	mov.b	4(r14),	r12	;0x0004(r14)
    47dc:	0d 43       	clr	r13		
    47de:	0a dc       	bis	r12,	r10	
    47e0:	0b dd       	bis	r13,	r11	
    47e2:	5c 4e 05 00 	mov.b	5(r14),	r12	;0x0005(r14)
    47e6:	4d ec       	xor.b	r12,	r13	
    47e8:	0d ec       	xor	r12,	r13	
    47ea:	8d 10       	swpb	r13		
    47ec:	4c 4c       	mov.b	r12,	r12	
    47ee:	8c 10       	swpb	r12		
    47f0:	0a dc       	bis	r12,	r10	
    47f2:	0b dd       	bis	r13,	r11	
    47f4:	81 43 06 00 	mov	#0,	6(r1)	;r3 As==00, 0x0006(r1)
    47f8:	81 43 08 00 	mov	#0,	8(r1)	;r3 As==00, 0x0008(r1)
    47fc:	81 43 0a 00 	mov	#0,	10(r1)	;r3 As==00, 0x000a(r1)
    4800:	81 43 0c 00 	mov	#0,	12(r1)	;r3 As==00, 0x000c(r1)
    4804:	81 43 08 00 	mov	#0,	8(r1)	;r3 As==00, 0x0008(r1)
    4808:	81 4a 0a 00 	mov	r10,	10(r1)	;0x000a(r1)
    480c:	81 4b 0c 00 	mov	r11,	12(r1)	;0x000c(r1)
    4810:	5d 4e 03 00 	mov.b	3(r14),	r13	;0x0003(r14)
    4814:	0a 43       	clr	r10		
    4816:	0b 43       	clr	r11		
    4818:	0b 4d       	mov	r13,	r11	
    481a:	8b 10       	swpb	r11		
    481c:	0c 43       	clr	r12		
    481e:	0d 43       	clr	r13		
    4820:	5d 4e 02 00 	mov.b	2(r14),	r13	;0x0002(r14)
    4824:	04 4a       	mov	r10,	r4	
    4826:	05 4b       	mov	r11,	r5	
    4828:	04 dc       	bis	r12,	r4	
    482a:	05 dd       	bis	r13,	r5	
    482c:	6c 4e       	mov.b	@r14,	r12	
    482e:	0d 43       	clr	r13		
    4830:	04 dc       	bis	r12,	r4	
    4832:	05 dd       	bis	r13,	r5	
    4834:	5c 4e 01 00 	mov.b	1(r14),	r12	;0x0001(r14)
    4838:	4d ec       	xor.b	r12,	r13	
    483a:	0d ec       	xor	r12,	r13	
    483c:	8d 10       	swpb	r13		
    483e:	4c 4c       	mov.b	r12,	r12	
    4840:	8c 10       	swpb	r12		
    4842:	08 44       	mov	r4,	r8	
    4844:	09 45       	mov	r5,	r9	
    4846:	08 dc       	bis	r12,	r8	
    4848:	09 dd       	bis	r13,	r9	
    484a:	0a 43       	clr	r10		
    484c:	0b 43       	clr	r11		
    484e:	1c 41 06 00 	mov	6(r1),	r12	;0x0006(r1)
    4852:	1d 41 08 00 	mov	8(r1),	r13	;0x0008(r1)
    4856:	1e 41 0a 00 	mov	10(r1),	r14	;0x000a(r1)
    485a:	1f 41 0c 00 	mov	12(r1),	r15	;0x000c(r1)
    485e:	0c 58       	add	r8,	r12	
    4860:	0d 69       	addc	r9,	r13	
    4862:	0e 6a       	addc	r10,	r14	
    4864:	0f 6b       	addc	r11,	r15	
    4866:	86 4c 00 00 	mov	r12,	0(r6)	;0x0000(r6)
    486a:	86 4d 02 00 	mov	r13,	2(r6)	;0x0002(r6)
    486e:	86 4e 04 00 	mov	r14,	4(r6)	;0x0004(r6)
    4872:	86 4f 06 00 	mov	r15,	6(r6)	;0x0006(r6)
    4876:	31 50 0e 00 	add	#14,	r1	;#0x000e
    487a:	34 41       	pop	r4		
    487c:	35 41       	pop	r5		
    487e:	36 41       	pop	r6		
    4880:	37 41       	pop	r7		
    4882:	38 41       	pop	r8		
    4884:	39 41       	pop	r9		
    4886:	3a 41       	pop	r10		
    4888:	3b 41       	pop	r11		
    488a:	30 41       	ret			

0000488c <PoolP__0__Pool__get>:
    488c:	5d 42 ed 14 	mov.b	&0x14ed,r13	
    4890:	4d 93       	tst.b	r13		
    4892:	16 24       	jz	$+46     	;abs 0x48c0
    4894:	5c 42 1b 14 	mov.b	&0x141b,r12	
    4898:	4f 4c       	mov.b	r12,	r15	
    489a:	0f 5f       	rla	r15		
    489c:	0e 4f       	mov	r15,	r14	
    489e:	3e 50 a8 16 	add	#5800,	r14	;#0x16a8
    48a2:	2f 4e       	mov	@r14,	r15	
    48a4:	8e 43 00 00 	mov	#0,	0(r14)	;r3 As==00, 0x0000(r14)
    48a8:	7d 53       	add.b	#-1,	r13	;r3 As==11
    48aa:	c2 4d ed 14 	mov.b	r13,	&0x14ed	
    48ae:	4e 4c       	mov.b	r12,	r14	
    48b0:	5e 53       	inc.b	r14		
    48b2:	c2 4e 1b 14 	mov.b	r14,	&0x141b	
    48b6:	6e 92       	cmp.b	#4,	r14	;r2 As==10
    48b8:	04 20       	jnz	$+10     	;abs 0x48c2
    48ba:	c2 43 1b 14 	mov.b	#0,	&0x141b	;r3 As==00
    48be:	30 41       	ret			
    48c0:	0f 43       	clr	r15		
    48c2:	30 41       	ret			

000048c4 <PoolP__1__Pool__get>:
    48c4:	5d 42 ec 14 	mov.b	&0x14ec,r13	
    48c8:	4d 93       	tst.b	r13		
    48ca:	17 24       	jz	$+48     	;abs 0x48fa
    48cc:	5c 42 0c 18 	mov.b	&0x180c,r12	
    48d0:	4f 4c       	mov.b	r12,	r15	
    48d2:	0f 5f       	rla	r15		
    48d4:	0e 4f       	mov	r15,	r14	
    48d6:	3e 50 32 18 	add	#6194,	r14	;#0x1832
    48da:	2f 4e       	mov	@r14,	r15	
    48dc:	8e 43 00 00 	mov	#0,	0(r14)	;r3 As==00, 0x0000(r14)
    48e0:	7d 53       	add.b	#-1,	r13	;r3 As==11
    48e2:	c2 4d ec 14 	mov.b	r13,	&0x14ec	
    48e6:	4e 4c       	mov.b	r12,	r14	
    48e8:	5e 53       	inc.b	r14		
    48ea:	c2 4e 0c 18 	mov.b	r14,	&0x180c	
    48ee:	7e 90 03 00 	cmp.b	#3,	r14	;#0x0003
    48f2:	04 20       	jnz	$+10     	;abs 0x48fc
    48f4:	c2 43 0c 18 	mov.b	#0,	&0x180c	;r3 As==00
    48f8:	30 41       	ret			
    48fa:	0f 43       	clr	r15		
    48fc:	30 41       	ret			

000048fe <PibP__FrameUtility__writeHeader>:
    48fe:	0b 12       	push	r11		
    4900:	0a 12       	push	r10		
    4902:	09 12       	push	r9		
    4904:	08 12       	push	r8		
    4906:	07 12       	push	r7		
    4908:	06 12       	push	r6		
    490a:	05 12       	push	r5		
    490c:	04 12       	push	r4		
    490e:	54 41 12 00 	mov.b	18(r1),	r4	;0x0012(r1)
    4912:	17 41 14 00 	mov	20(r1),	r7	;0x0014(r1)
    4916:	19 41 16 00 	mov	22(r1),	r9	;0x0016(r1)
    491a:	4b 4e       	mov.b	r14,	r11	
    491c:	6b 83       	decd.b	r11		
    491e:	6b 93       	cmp.b	#2,	r11	;r3 As==10
    4920:	2f 2c       	jc	$+96     	;abs 0x4980
    4922:	cf 4d 03 00 	mov.b	r13,	3(r15)	;0x0003(r15)
    4926:	0b 4d       	mov	r13,	r11	
    4928:	8b 10       	swpb	r11		
    492a:	cf 4b 04 00 	mov.b	r11,	4(r15)	;0x0004(r15)
    492e:	6e 93       	cmp.b	#2,	r14	;r3 As==10
    4930:	09 20       	jnz	$+20     	;abs 0x4944
    4932:	2e 4c       	mov	@r12,	r14	
    4934:	cf 4e 05 00 	mov.b	r14,	5(r15)	;0x0005(r15)
    4938:	8e 10       	swpb	r14		
    493a:	cf 4e 06 00 	mov.b	r14,	6(r15)	;0x0006(r15)
    493e:	7e 40 07 00 	mov.b	#7,	r14	;#0x0007
    4942:	20 3c       	jmp	$+66     	;abs 0x4984
    4944:	2a 4c       	mov	@r12,	r10	
    4946:	1b 4c 02 00 	mov	2(r12),	r11	;0x0002(r12)
    494a:	1e 4c 04 00 	mov	4(r12),	r14	;0x0004(r12)
    494e:	1c 4c 06 00 	mov	6(r12),	r12	;0x0006(r12)
    4952:	08 4f       	mov	r15,	r8	
    4954:	05 4f       	mov	r15,	r5	
    4956:	35 52       	add	#8,	r5	;r2 As==11
    4958:	46 4c       	mov.b	r12,	r6	
    495a:	c8 4a 05 00 	mov.b	r10,	5(r8)	;0x0005(r8)
    495e:	8a 10       	swpb	r10		
    4960:	8b 10       	swpb	r11		
    4962:	4a eb       	xor.b	r11,	r10	
    4964:	0a eb       	xor	r11,	r10	
    4966:	8e 10       	swpb	r14		
    4968:	4b ee       	xor.b	r14,	r11	
    496a:	0b ee       	xor	r14,	r11	
    496c:	8c 10       	swpb	r12		
    496e:	4e ec       	xor.b	r12,	r14	
    4970:	0e ec       	xor	r12,	r14	
    4972:	0c 46       	mov	r6,	r12	
    4974:	18 53       	inc	r8		
    4976:	08 95       	cmp	r5,	r8	
    4978:	f0 23       	jnz	$-30     	;abs 0x495a
    497a:	7e 40 0d 00 	mov.b	#13,	r14	;#0x000d
    497e:	02 3c       	jmp	$+6      	;abs 0x4984
    4980:	7e 40 03 00 	mov.b	#3,	r14	;#0x0003
    4984:	4c 44       	mov.b	r4,	r12	
    4986:	6c 83       	decd.b	r12		
    4988:	6c 93       	cmp.b	#2,	r12	;r3 As==10
    498a:	36 2c       	jc	$+110    	;abs 0x49f8
    498c:	0d 97       	cmp	r7,	r13	
    498e:	03 20       	jnz	$+8      	;abs 0x4996
    4990:	c1 93 18 00 	tst.b	24(r1)		;0x0018(r1)
    4994:	08 20       	jnz	$+18     	;abs 0x49a6
    4996:	4d 4e       	mov.b	r14,	r13	
    4998:	0d 5f       	add	r15,	r13	
    499a:	cd 47 00 00 	mov.b	r7,	0(r13)	;0x0000(r13)
    499e:	87 10       	swpb	r7		
    49a0:	cd 47 01 00 	mov.b	r7,	1(r13)	;0x0001(r13)
    49a4:	6e 53       	incd.b	r14		
    49a6:	4d 4e       	mov.b	r14,	r13	
    49a8:	64 93       	cmp.b	#2,	r4	;r3 As==10
    49aa:	09 20       	jnz	$+20     	;abs 0x49be
    49ac:	2c 49       	mov	@r9,	r12	
    49ae:	0f 5d       	add	r13,	r15	
    49b0:	cf 4c 00 00 	mov.b	r12,	0(r15)	;0x0000(r15)
    49b4:	8c 10       	swpb	r12		
    49b6:	cf 4c 01 00 	mov.b	r12,	1(r15)	;0x0001(r15)
    49ba:	6e 53       	incd.b	r14		
    49bc:	1d 3c       	jmp	$+60     	;abs 0x49f8
    49be:	0f 5d       	add	r13,	r15	
    49c0:	2b 49       	mov	@r9,	r11	
    49c2:	1c 49 02 00 	mov	2(r9),	r12	;0x0002(r9)
    49c6:	1d 49 04 00 	mov	4(r9),	r13	;0x0004(r9)
    49ca:	1a 49 06 00 	mov	6(r9),	r10	;0x0006(r9)
    49ce:	09 43       	clr	r9		
    49d0:	48 4a       	mov.b	r10,	r8	
    49d2:	07 4f       	mov	r15,	r7	
    49d4:	07 59       	add	r9,	r7	
    49d6:	c7 4b 00 00 	mov.b	r11,	0(r7)	;0x0000(r7)
    49da:	8b 10       	swpb	r11		
    49dc:	8c 10       	swpb	r12		
    49de:	4b ec       	xor.b	r12,	r11	
    49e0:	0b ec       	xor	r12,	r11	
    49e2:	8d 10       	swpb	r13		
    49e4:	4c ed       	xor.b	r13,	r12	
    49e6:	0c ed       	xor	r13,	r12	
    49e8:	8a 10       	swpb	r10		
    49ea:	4d ea       	xor.b	r10,	r13	
    49ec:	0d ea       	xor	r10,	r13	
    49ee:	0a 48       	mov	r8,	r10	
    49f0:	19 53       	inc	r9		
    49f2:	39 92       	cmp	#8,	r9	;r2 As==11
    49f4:	ee 23       	jnz	$-34     	;abs 0x49d2
    49f6:	7e 52       	add.b	#8,	r14	;r2 As==11
    49f8:	4f 4e       	mov.b	r14,	r15	
    49fa:	34 41       	pop	r4		
    49fc:	35 41       	pop	r5		
    49fe:	36 41       	pop	r6		
    4a00:	37 41       	pop	r7		
    4a02:	38 41       	pop	r8		
    4a04:	39 41       	pop	r9		
    4a06:	3a 41       	pop	r10		
    4a08:	3b 41       	pop	r11		
    4a0a:	30 41       	ret			

00004a0c <NWKP__check_neighbortableentry>:
    4a0c:	0b 12       	push	r11		
    4a0e:	0a 12       	push	r10		
    4a10:	1d 41 06 00 	mov	6(r1),	r13	;0x0006(r1)
    4a14:	1c 41 08 00 	mov	8(r1),	r12	;0x0008(r1)
    4a18:	1b 41 0a 00 	mov	10(r1),	r11	;0x000a(r1)
    4a1c:	1a 41 0c 00 	mov	12(r1),	r10	;0x000c(r1)
    4a20:	c2 93 0a 15 	tst.b	&0x150a	
    4a24:	2e 24       	jz	$+94     	;abs 0x4a82
    4a26:	6f 93       	cmp.b	#2,	r15	;r3 As==10
    4a28:	04 24       	jz	$+10     	;abs 0x4a32
    4a2a:	7f 90 03 00 	cmp.b	#3,	r15	;#0x0003
    4a2e:	29 20       	jnz	$+84     	;abs 0x4a82
    4a30:	10 3c       	jmp	$+34     	;abs 0x4a52
    4a32:	3e 40 fe 15 	mov	#5630,	r14	;#0x15fe
    4a36:	4f 43       	clr.b	r15		
    4a38:	8e 93 00 00 	tst	0(r14)		;0x0000(r14)
    4a3c:	03 24       	jz	$+8      	;abs 0x4a44
    4a3e:	8e 9d 0a 00 	cmp	r13,	10(r14)	;0x000a(r14)
    4a42:	20 24       	jz	$+66     	;abs 0x4a84
    4a44:	5f 53       	inc.b	r15		
    4a46:	3e 50 12 00 	add	#18,	r14	;#0x0012
    4a4a:	7f 90 06 00 	cmp.b	#6,	r15	;#0x0006
    4a4e:	f4 23       	jnz	$-22     	;abs 0x4a38
    4a50:	18 3c       	jmp	$+50     	;abs 0x4a82
    4a52:	3e 40 fe 15 	mov	#5630,	r14	;#0x15fe
    4a56:	4f 43       	clr.b	r15		
    4a58:	8e 93 00 00 	tst	0(r14)		;0x0000(r14)
    4a5c:	0c 24       	jz	$+26     	;abs 0x4a76
    4a5e:	8e 9d 02 00 	cmp	r13,	2(r14)	;0x0002(r14)
    4a62:	09 20       	jnz	$+20     	;abs 0x4a76
    4a64:	8e 9c 04 00 	cmp	r12,	4(r14)	;0x0004(r14)
    4a68:	06 20       	jnz	$+14     	;abs 0x4a76
    4a6a:	8e 9b 06 00 	cmp	r11,	6(r14)	;0x0006(r14)
    4a6e:	03 20       	jnz	$+8      	;abs 0x4a76
    4a70:	8e 9a 08 00 	cmp	r10,	8(r14)	;0x0008(r14)
    4a74:	07 24       	jz	$+16     	;abs 0x4a84
    4a76:	5f 53       	inc.b	r15		
    4a78:	3e 50 12 00 	add	#18,	r14	;#0x0012
    4a7c:	7f 90 06 00 	cmp.b	#6,	r15	;#0x0006
    4a80:	eb 23       	jnz	$-40     	;abs 0x4a58
    4a82:	7f 43       	mov.b	#-1,	r15	;r3 As==11
    4a84:	3a 41       	pop	r10		
    4a86:	3b 41       	pop	r11		
    4a88:	30 41       	ret			

00004a8a <PibP__Frame__getSrcAddr>:
    4a8a:	0b 12       	push	r11		
    4a8c:	0b 4e       	mov	r14,	r11	
    4a8e:	5c 4f 02 00 	mov.b	2(r15),	r12	;0x0002(r15)
    4a92:	4c 93       	tst.b	r12		
    4a94:	2f 34       	jge	$+96     	;abs 0x4af4
    4a96:	4e 4c       	mov.b	r12,	r14	
    4a98:	7e f0 0c 00 	and.b	#12,	r14	;#0x000c
    4a9c:	7e 92       	cmp.b	#8,	r14	;r2 As==11
    4a9e:	06 24       	jz	$+14     	;abs 0x4aac
    4aa0:	7e 90 0c 00 	cmp.b	#12,	r14	;#0x000c
    4aa4:	06 24       	jz	$+14     	;abs 0x4ab2
    4aa6:	7d 40 03 00 	mov.b	#3,	r13	;#0x0003
    4aaa:	05 3c       	jmp	$+12     	;abs 0x4ab6
    4aac:	7d 40 07 00 	mov.b	#7,	r13	;#0x0007
    4ab0:	02 3c       	jmp	$+6      	;abs 0x4ab6
    4ab2:	7d 40 0d 00 	mov.b	#13,	r13	;#0x000d
    4ab6:	5e 4f 01 00 	mov.b	1(r15),	r14	;0x0001(r15)
    4aba:	3e f0 40 00 	and	#64,	r14	;#0x0040
    4abe:	02 24       	jz	$+6      	;abs 0x4ac4
    4ac0:	3c b2       	bit	#8,	r12	;r2 As==11
    4ac2:	01 20       	jnz	$+4      	;abs 0x4ac6
    4ac4:	6d 53       	incd.b	r13		
    4ac6:	3c f0 c0 00 	and	#192,	r12	;#0x00c0
    4aca:	4d 4d       	mov.b	r13,	r13	
    4acc:	0f 5d       	add	r13,	r15	
    4ace:	3c 90 80 00 	cmp	#128,	r12	;#0x0080
    4ad2:	09 20       	jnz	$+20     	;abs 0x4ae6
    4ad4:	5c 4f 02 00 	mov.b	2(r15),	r12	;0x0002(r15)
    4ad8:	8c 10       	swpb	r12		
    4ada:	5f 4f 01 00 	mov.b	1(r15),	r15	;0x0001(r15)
    4ade:	0c df       	bis	r15,	r12	
    4ae0:	8b 4c 00 00 	mov	r12,	0(r11)	;0x0000(r11)
    4ae4:	05 3c       	jmp	$+12     	;abs 0x4af0
    4ae6:	0e 4f       	mov	r15,	r14	
    4ae8:	1e 53       	inc	r14		
    4aea:	0f 4b       	mov	r11,	r15	
    4aec:	b0 12 aa 47 	call	#0x47aa	
    4af0:	0f 43       	clr	r15		
    4af2:	01 3c       	jmp	$+4      	;abs 0x4af6
    4af4:	1f 43       	mov	#1,	r15	;r3 As==01
    4af6:	3b 41       	pop	r11		
    4af8:	30 41       	ret			

00004afa <SchedulerBasicP__TaskBasic__postTask>:
    4afa:	0e 42       	mov	r2,	r14	
    4afc:	3e f2       	and	#8,	r14	;r2 As==11
    4afe:	32 c2       	dint			
    4b00:	03 43       	nop			
    4b02:	4d 4f       	mov.b	r15,	r13	
    4b04:	fd 93 ce 11 	cmp.b	#-1,	4558(r13);r3 As==11, 0x11ce(r13)
    4b08:	06 20       	jnz	$+14     	;abs 0x4b16
    4b0a:	1d 43       	mov	#1,	r13	;r3 As==01
    4b0c:	c2 9f 30 18 	cmp.b	r15,	&0x1830	
    4b10:	03 24       	jz	$+8      	;abs 0x4b18
    4b12:	0d 43       	clr	r13		
    4b14:	01 3c       	jmp	$+4      	;abs 0x4b18
    4b16:	1d 43       	mov	#1,	r13	;r3 As==01
    4b18:	0d 93       	tst	r13		
    4b1a:	0e 20       	jnz	$+30     	;abs 0x4b38
    4b1c:	f2 93 fd 17 	cmp.b	#-1,	&0x17fd	;r3 As==11
    4b20:	03 20       	jnz	$+8      	;abs 0x4b28
    4b22:	c2 4f fd 17 	mov.b	r15,	&0x17fd	
    4b26:	04 3c       	jmp	$+10     	;abs 0x4b30
    4b28:	5d 42 30 18 	mov.b	&0x1830,r13	
    4b2c:	cd 4f ce 11 	mov.b	r15,	4558(r13);0x11ce(r13)
    4b30:	c2 4f 30 18 	mov.b	r15,	&0x1830	
    4b34:	0f 43       	clr	r15		
    4b36:	02 3c       	jmp	$+6      	;abs 0x4b3c
    4b38:	3f 40 05 00 	mov	#5,	r15	;#0x0005
    4b3c:	0e 93       	tst	r14		
    4b3e:	01 24       	jz	$+4      	;abs 0x4b42
    4b40:	32 d2       	eint			
    4b42:	30 41       	ret			

00004b44 <CC2420ControlP__SpiResource__isOwner>:
    4b44:	0e 42       	mov	r2,	r14	
    4b46:	32 c2       	dint			
    4b48:	03 43       	nop			
    4b4a:	5f 43       	mov.b	#1,	r15	;r3 As==01
    4b4c:	c2 93 04 11 	tst.b	&0x1104	
    4b50:	01 24       	jz	$+4      	;abs 0x4b54
    4b52:	4f 43       	clr.b	r15		
    4b54:	3e f2       	and	#8,	r14	;r2 As==11
    4b56:	01 24       	jz	$+4      	;abs 0x4b5a
    4b58:	32 d2       	eint			
    4b5a:	30 41       	ret			

00004b5c <CC2420TKN154P__CC2420Power__rfOff>:
    4b5c:	0b 12       	push	r11		
    4b5e:	0b 42       	mov	r2,	r11	
    4b60:	3b f2       	and	#8,	r11	;r2 As==11
    4b62:	32 c2       	dint			
    4b64:	03 43       	nop			
    4b66:	b0 12 44 4b 	call	#0x4b44	
    4b6a:	4f 93       	tst.b	r15		
    4b6c:	04 20       	jnz	$+10     	;abs 0x4b76
    4b6e:	0b 93       	tst	r11		
    4b70:	10 24       	jz	$+34     	;abs 0x4b92
    4b72:	32 d2       	eint			
    4b74:	0e 3c       	jmp	$+30     	;abs 0x4b92
    4b76:	b0 12 74 46 	call	#0x4674	
    4b7a:	b0 12 7a 46 	call	#0x467a	
    4b7e:	7f 40 06 00 	mov.b	#6,	r15	;#0x0006
    4b82:	b0 12 e4 46 	call	#0x46e4	
    4b86:	b0 12 74 46 	call	#0x4674	
    4b8a:	0b 93       	tst	r11		
    4b8c:	04 24       	jz	$+10     	;abs 0x4b96
    4b8e:	32 d2       	eint			
    4b90:	02 3c       	jmp	$+6      	;abs 0x4b96
    4b92:	1f 43       	mov	#1,	r15	;r3 As==01
    4b94:	01 3c       	jmp	$+4      	;abs 0x4b98
    4b96:	0f 43       	clr	r15		
    4b98:	3b 41       	pop	r11		
    4b9a:	30 41       	ret			

00004b9c <CC2420ControlP__CC2420Power__flushRxFifo>:
    4b9c:	0b 12       	push	r11		
    4b9e:	0b 42       	mov	r2,	r11	
    4ba0:	3b f2       	and	#8,	r11	;r2 As==11
    4ba2:	32 c2       	dint			
    4ba4:	03 43       	nop			
    4ba6:	b0 12 44 4b 	call	#0x4b44	
    4baa:	4f 93       	tst.b	r15		
    4bac:	04 20       	jnz	$+10     	;abs 0x4bb6
    4bae:	0b 93       	tst	r11		
    4bb0:	24 24       	jz	$+74     	;abs 0x4bfa
    4bb2:	32 d2       	eint			
    4bb4:	22 3c       	jmp	$+70     	;abs 0x4bfa
    4bb6:	f2 b2 20 00 	bit.b	#8,	&0x0020	;r2 As==11
    4bba:	1b 24       	jz	$+56     	;abs 0x4bf2
    4bbc:	b0 12 7a 46 	call	#0x467a	
    4bc0:	c2 93 b7 16 	tst.b	&0x16b7	
    4bc4:	0a 24       	jz	$+22     	;abs 0x4bda
    4bc6:	7f 40 7f 00 	mov.b	#127,	r15	;#0x007f
    4bca:	b0 12 38 46 	call	#0x4638	
    4bce:	4f 43       	clr.b	r15		
    4bd0:	b0 12 38 46 	call	#0x4638	
    4bd4:	4f 43       	clr.b	r15		
    4bd6:	b0 12 38 46 	call	#0x4638	
    4bda:	b0 12 74 46 	call	#0x4674	
    4bde:	b0 12 7a 46 	call	#0x467a	
    4be2:	7f 42       	mov.b	#8,	r15	;r2 As==11
    4be4:	b0 12 e4 46 	call	#0x46e4	
    4be8:	7f 42       	mov.b	#8,	r15	;r2 As==11
    4bea:	b0 12 e4 46 	call	#0x46e4	
    4bee:	b0 12 74 46 	call	#0x4674	
    4bf2:	0b 93       	tst	r11		
    4bf4:	04 24       	jz	$+10     	;abs 0x4bfe
    4bf6:	32 d2       	eint			
    4bf8:	02 3c       	jmp	$+6      	;abs 0x4bfe
    4bfa:	1f 43       	mov	#1,	r15	;r3 As==01
    4bfc:	01 3c       	jmp	$+4      	;abs 0x4c00
    4bfe:	0f 43       	clr	r15		
    4c00:	3b 41       	pop	r11		
    4c02:	30 41       	ret			

00004c04 <CC2420TKN154P__TxControl__stop>:
    4c04:	0b 12       	push	r11		
    4c06:	0b 42       	mov	r2,	r11	
    4c08:	32 c2       	dint			
    4c0a:	03 43       	nop			
    4c0c:	82 43 12 11 	mov	#0,	&0x1112	;r3 As==00
    4c10:	b2 f0 ef ff 86 01 	and	#-17,	&0x0186	;#0xffef
    4c16:	b2 f0 ef ff 84 01 	and	#-17,	&0x0184	;#0xffef
    4c1c:	f2 f0 fd ff 1f 00 	and.b	#-3,	&0x001f	;#0xfffd
    4c22:	b0 12 6e 46 	call	#0x466e	
    4c26:	3b b2       	bit	#8,	r11	;r2 As==11
    4c28:	01 24       	jz	$+4      	;abs 0x4c2c
    4c2a:	32 d2       	eint			
    4c2c:	0f 43       	clr	r15		
    4c2e:	3b 41       	pop	r11		
    4c30:	30 41       	ret			

00004c32 <RadioControlImplP__ArbiterInfo__userId>:
    4c32:	0e 42       	mov	r2,	r14	
    4c34:	32 c2       	dint			
    4c36:	03 43       	nop			
    4c38:	5f 42 09 11 	mov.b	&0x1109,r15	
    4c3c:	3e f2       	and	#8,	r14	;r2 As==11
    4c3e:	01 24       	jz	$+4      	;abs 0x4c42
    4c40:	32 d2       	eint			
    4c42:	30 41       	ret			

00004c44 <RadioControlImplP__MacRadioOff__isOff>:
    4c44:	0b 12       	push	r11		
    4c46:	4b 4f       	mov.b	r15,	r11	
    4c48:	b0 12 32 4c 	call	#0x4c32	
    4c4c:	4b 9f       	cmp.b	r15,	r11	
    4c4e:	06 20       	jnz	$+14     	;abs 0x4c5c
    4c50:	5f 43       	mov.b	#1,	r15	;r3 As==01
    4c52:	a2 92 18 11 	cmp	#4,	&0x1118	;r2 As==10
    4c56:	04 24       	jz	$+10     	;abs 0x4c60
    4c58:	4f 43       	clr.b	r15		
    4c5a:	02 3c       	jmp	$+6      	;abs 0x4c60
    4c5c:	7f 40 05 00 	mov.b	#5,	r15	;#0x0005
    4c60:	3b 41       	pop	r11		
    4c62:	30 41       	ret			

00004c64 <CC2420TKN154P__RxControl__start>:
    4c64:	0f 42       	mov	r2,	r15	
    4c66:	3f f2       	and	#8,	r15	;r2 As==11
    4c68:	32 c2       	dint			
    4c6a:	03 43       	nop			
    4c6c:	f2 b2 20 00 	bit.b	#8,	&0x0020	;r2 As==11
    4c70:	07 20       	jnz	$+16     	;abs 0x4c80
    4c72:	d2 b3 20 00 	bit.b	#1,	&0x0020	;r3 As==01
    4c76:	04 20       	jnz	$+10     	;abs 0x4c80
    4c78:	0f 93       	tst	r15		
    4c7a:	1e 24       	jz	$+62     	;abs 0x4cb8
    4c7c:	32 d2       	eint			
    4c7e:	1c 3c       	jmp	$+58     	;abs 0x4cb8
    4c80:	f2 40 80 ff a0 11 	mov.b	#-128,	&0x11a0	;#0xff80
    4c86:	c2 43 b2 12 	mov.b	#0,	&0x12b2	;r3 As==00
    4c8a:	c2 43 05 18 	mov.b	#0,	&0x1805	;r3 As==00
    4c8e:	c2 43 fc 17 	mov.b	#0,	&0x17fc	;r3 As==00
    4c92:	c2 43 0d 12 	mov.b	#0,	&0x120d	;r3 As==00
    4c96:	a2 43 f6 11 	mov	#2,	&0x11f6	;r3 As==10
    4c9a:	f2 f0 fe ff 25 00 	and.b	#-2,	&0x0025	;#0xfffe
    4ca0:	f2 f0 fe ff 23 00 	and.b	#-2,	&0x0023	;#0xfffe
    4ca6:	d2 d3 24 00 	bis.b	#1,	&0x0024	;r3 As==01
    4caa:	d2 d3 25 00 	bis.b	#1,	&0x0025	;r3 As==01
    4cae:	0f 93       	tst	r15		
    4cb0:	05 24       	jz	$+12     	;abs 0x4cbc
    4cb2:	32 d2       	eint			
    4cb4:	0f 43       	clr	r15		
    4cb6:	30 41       	ret			
    4cb8:	1f 43       	mov	#1,	r15	;r3 As==01
    4cba:	30 41       	ret			
    4cbc:	0f 43       	clr	r15		
    4cbe:	30 41       	ret			

00004cc0 <CC2420TKN154P__TxControl__start>:
    4cc0:	0b 12       	push	r11		
    4cc2:	0b 42       	mov	r2,	r11	
    4cc4:	3b f2       	and	#8,	r11	;r2 As==11
    4cc6:	32 c2       	dint			
    4cc8:	03 43       	nop			
    4cca:	92 93 12 11 	cmp	#1,	&0x1112	;r3 As==01
    4cce:	04 20       	jnz	$+10     	;abs 0x4cd8
    4cd0:	0b 93       	tst	r11		
    4cd2:	0d 24       	jz	$+28     	;abs 0x4cee
    4cd4:	32 d2       	eint			
    4cd6:	0b 3c       	jmp	$+24     	;abs 0x4cee
    4cd8:	5f 43       	mov.b	#1,	r15	;r3 As==01
    4cda:	b0 12 ae 46 	call	#0x46ae	
    4cde:	92 43 12 11 	mov	#1,	&0x1112	;r3 As==01
    4ce2:	c2 43 10 11 	mov.b	#0,	&0x1110	;r3 As==00
    4ce6:	0b 93       	tst	r11		
    4ce8:	05 24       	jz	$+12     	;abs 0x4cf4
    4cea:	32 d2       	eint			
    4cec:	03 3c       	jmp	$+8      	;abs 0x4cf4
    4cee:	3f 40 09 00 	mov	#9,	r15	;#0x0009
    4cf2:	01 3c       	jmp	$+4      	;abs 0x4cf6
    4cf4:	0f 43       	clr	r15		
    4cf6:	3b 41       	pop	r11		
    4cf8:	30 41       	ret			

00004cfa <TransformCounterC__1__Counter__get>:
    4cfa:	0b 12       	push	r11		
    4cfc:	0a 12       	push	r10		
    4cfe:	09 12       	push	r9		
    4d00:	0a 42       	mov	r2,	r10	
    4d02:	3a f2       	and	#8,	r10	;r2 As==11
    4d04:	32 c2       	dint			
    4d06:	03 43       	nop			
    4d08:	19 42 1c 14 	mov	&0x141c,r9	
    4d0c:	b0 12 9c 46 	call	#0x469c	
    4d10:	0b 4f       	mov	r15,	r11	
    4d12:	1f 42 80 01 	mov	&0x0180,r15	
    4d16:	5f f3       	and.b	#1,	r15	;r3 As==01
    4d18:	04 24       	jz	$+10     	;abs 0x4d22
    4d1a:	19 53       	inc	r9		
    4d1c:	b0 12 9c 46 	call	#0x469c	
    4d20:	0b 4f       	mov	r15,	r11	
    4d22:	0c 43       	clr	r12		
    4d24:	0d 43       	clr	r13		
    4d26:	0d 49       	mov	r9,	r13	
    4d28:	0e 4b       	mov	r11,	r14	
    4d2a:	0f 43       	clr	r15		
    4d2c:	0e dc       	bis	r12,	r14	
    4d2e:	0f dd       	bis	r13,	r15	
    4d30:	0a 93       	tst	r10		
    4d32:	01 24       	jz	$+4      	;abs 0x4d36
    4d34:	32 d2       	eint			
    4d36:	39 41       	pop	r9		
    4d38:	3a 41       	pop	r10		
    4d3a:	3b 41       	pop	r11		
    4d3c:	30 41       	ret			

00004d3e <Alarm32khzTo62500hzTransformC__AlarmFrom__getNow>:
    4d3e:	7f 90 10 00 	cmp.b	#16,	r15	;#0x0010
    4d42:	07 2c       	jc	$+16     	;abs 0x4d52
    4d44:	4f 4f       	mov.b	r15,	r15	
    4d46:	0f 5f       	rla	r15		
    4d48:	10 4f da bd 	br	-16934(r15)	;0xbdda(r15)
    4d4c:	b0 12 fa 4c 	call	#0x4cfa	
    4d50:	30 41       	ret			
    4d52:	0e 43       	clr	r14		
    4d54:	0f 43       	clr	r15		
    4d56:	30 41       	ret			

00004d58 <PibP__TimeCalc__hasExpired>:
    4d58:	0b 12       	push	r11		
    4d5a:	0a 12       	push	r10		
    4d5c:	09 12       	push	r9		
    4d5e:	08 12       	push	r8		
    4d60:	07 12       	push	r7		
    4d62:	06 12       	push	r6		
    4d64:	08 4e       	mov	r14,	r8	
    4d66:	09 4f       	mov	r15,	r9	
    4d68:	06 4c       	mov	r12,	r6	
    4d6a:	07 4d       	mov	r13,	r7	
    4d6c:	5f 43       	mov.b	#1,	r15	;r3 As==01
    4d6e:	b0 12 3e 4d 	call	#0x4d3e	
    4d72:	0a 4e       	mov	r14,	r10	
    4d74:	0b 4f       	mov	r15,	r11	
    4d76:	0a 5a       	rla	r10		
    4d78:	0b 6b       	rlc	r11		
    4d7a:	0a 88       	sub	r8,	r10	
    4d7c:	0b 79       	subc	r9,	r11	
    4d7e:	5f 43       	mov.b	#1,	r15	;r3 As==01
    4d80:	0b 97       	cmp	r7,	r11	
    4d82:	04 28       	jnc	$+10     	;abs 0x4d8c
    4d84:	07 9b       	cmp	r11,	r7	
    4d86:	03 28       	jnc	$+8      	;abs 0x4d8e
    4d88:	0a 96       	cmp	r6,	r10	
    4d8a:	01 2c       	jc	$+4      	;abs 0x4d8e
    4d8c:	4f 43       	clr.b	r15		
    4d8e:	36 41       	pop	r6		
    4d90:	37 41       	pop	r7		
    4d92:	38 41       	pop	r8		
    4d94:	39 41       	pop	r9		
    4d96:	3a 41       	pop	r10		
    4d98:	3b 41       	pop	r11		
    4d9a:	30 41       	ret			

00004d9c <VirtualizeTimerC__1__Timer__startOneShot>:
    4d9c:	0b 12       	push	r11		
    4d9e:	09 12       	push	r9		
    4da0:	08 12       	push	r8		
    4da2:	4b 4f       	mov.b	r15,	r11	
    4da4:	08 4d       	mov	r13,	r8	
    4da6:	09 4e       	mov	r14,	r9	
    4da8:	7f 40 0f 00 	mov.b	#15,	r15	;#0x000f
    4dac:	b0 12 3e 4d 	call	#0x4d3e	
    4db0:	4c 4b       	mov.b	r11,	r12	
    4db2:	0c 5c       	rla	r12		
    4db4:	0b 4c       	mov	r12,	r11	
    4db6:	0b 5b       	rla	r11		
    4db8:	0b 5b       	rla	r11		
    4dba:	0c 5b       	add	r11,	r12	
    4dbc:	3c 50 50 15 	add	#5456,	r12	;#0x1550
    4dc0:	8c 4e 00 00 	mov	r14,	0(r12)	;0x0000(r12)
    4dc4:	8c 4f 02 00 	mov	r15,	2(r12)	;0x0002(r12)
    4dc8:	ac 5c 00 00 	add	@r12,	0(r12)	;0x0000(r12)
    4dcc:	9c 6c 02 00 02 00 	rlc	2(r12)		;0x0002(r12)
    4dd2:	8c 48 04 00 	mov	r8,	4(r12)	;0x0004(r12)
    4dd6:	8c 49 06 00 	mov	r9,	6(r12)	;0x0006(r12)
    4dda:	fc d0 03 00 08 00 	bis.b	#3,	8(r12)	;#0x0003, 0x0008(r12)
    4de0:	7f 40 26 00 	mov.b	#38,	r15	;#0x0026
    4de4:	b0 12 fa 4a 	call	#0x4afa	
    4de8:	38 41       	pop	r8		
    4dea:	39 41       	pop	r9		
    4dec:	3b 41       	pop	r11		
    4dee:	30 41       	ret			

00004df0 <TransformAlarmC__2__set_alarm>:
    4df0:	0b 12       	push	r11		
    4df2:	0a 12       	push	r10		
    4df4:	09 12       	push	r9		
    4df6:	08 12       	push	r8		
    4df8:	b0 12 fa 4c 	call	#0x4cfa	
    4dfc:	08 4e       	mov	r14,	r8	
    4dfe:	09 4f       	mov	r15,	r9	
    4e00:	1e 42 5a 17 	mov	&0x175a,r14	
    4e04:	1f 42 5c 17 	mov	&0x175c,r15	
    4e08:	0a 4e       	mov	r14,	r10	
    4e0a:	0b 4f       	mov	r15,	r11	
    4e0c:	1a 52 b6 12 	add	&0x12b6,r10	
    4e10:	1b 62 b8 12 	addc	&0x12b8,r11	
    4e14:	09 9f       	cmp	r15,	r9	
    4e16:	09 28       	jnc	$+20     	;abs 0x4e2a
    4e18:	02 20       	jnz	$+6      	;abs 0x4e1e
    4e1a:	08 9e       	cmp	r14,	r8	
    4e1c:	06 28       	jnc	$+14     	;abs 0x4e2a
    4e1e:	0b 9f       	cmp	r15,	r11	
    4e20:	10 28       	jnc	$+34     	;abs 0x4e42
    4e22:	09 20       	jnz	$+20     	;abs 0x4e36
    4e24:	0a 9e       	cmp	r14,	r10	
    4e26:	0d 28       	jnc	$+28     	;abs 0x4e42
    4e28:	06 3c       	jmp	$+14     	;abs 0x4e36
    4e2a:	0b 9f       	cmp	r15,	r11	
    4e2c:	04 28       	jnc	$+10     	;abs 0x4e36
    4e2e:	0f 9b       	cmp	r11,	r15	
    4e30:	27 28       	jnc	$+80     	;abs 0x4e80
    4e32:	0a 9e       	cmp	r14,	r10	
    4e34:	25 2c       	jc	$+76     	;abs 0x4e80
    4e36:	09 9b       	cmp	r11,	r9	
    4e38:	04 28       	jnc	$+10     	;abs 0x4e42
    4e3a:	0b 99       	cmp	r9,	r11	
    4e3c:	21 28       	jnc	$+68     	;abs 0x4e80
    4e3e:	08 9a       	cmp	r10,	r8	
    4e40:	1f 2c       	jc	$+64     	;abs 0x4e80
    4e42:	0c 4a       	mov	r10,	r12	
    4e44:	0d 4b       	mov	r11,	r13	
    4e46:	0c 88       	sub	r8,	r12	
    4e48:	0d 79       	subc	r9,	r13	
    4e4a:	0d 93       	tst	r13		
    4e4c:	03 20       	jnz	$+8      	;abs 0x4e54
    4e4e:	3c 90 01 80 	cmp	#-32767,r12	;#0x8001
    4e52:	18 28       	jnc	$+50     	;abs 0x4e84
    4e54:	0e 48       	mov	r8,	r14	
    4e56:	0f 49       	mov	r9,	r15	
    4e58:	3e 50 00 80 	add	#-32768,r14	;#0x8000
    4e5c:	0f 63       	adc	r15		
    4e5e:	82 4e 5a 17 	mov	r14,	&0x175a	
    4e62:	82 4f 5c 17 	mov	r15,	&0x175c	
    4e66:	0e 4c       	mov	r12,	r14	
    4e68:	0f 4d       	mov	r13,	r15	
    4e6a:	3e 50 00 80 	add	#-32768,r14	;#0x8000
    4e6e:	3f 63       	addc	#-1,	r15	;r3 As==11
    4e70:	82 4e b6 12 	mov	r14,	&0x12b6	
    4e74:	82 4f b8 12 	mov	r15,	&0x12b8	
    4e78:	3c 40 00 80 	mov	#-32768,r12	;#0x8000
    4e7c:	0d 43       	clr	r13		
    4e7e:	0a 3c       	jmp	$+22     	;abs 0x4e94
    4e80:	0c 43       	clr	r12		
    4e82:	0d 43       	clr	r13		
    4e84:	82 4a 5a 17 	mov	r10,	&0x175a	
    4e88:	82 4b 5c 17 	mov	r11,	&0x175c	
    4e8c:	82 43 b6 12 	mov	#0,	&0x12b6	;r3 As==00
    4e90:	82 43 b8 12 	mov	#0,	&0x12b8	;r3 As==00
    4e94:	0a 4c       	mov	r12,	r10	
    4e96:	b0 12 9c 46 	call	#0x469c	
    4e9a:	0e 4f       	mov	r15,	r14	
    4e9c:	0e 88       	sub	r8,	r14	
    4e9e:	0e 9a       	cmp	r10,	r14	
    4ea0:	05 2c       	jc	$+12     	;abs 0x4eac
    4ea2:	0c 4a       	mov	r10,	r12	
    4ea4:	0c 8e       	sub	r14,	r12	
    4ea6:	3c 90 03 00 	cmp	#3,	r12	;#0x0003
    4eaa:	06 2c       	jc	$+14     	;abs 0x4eb8
    4eac:	b0 12 9c 46 	call	#0x469c	
    4eb0:	2f 53       	incd	r15		
    4eb2:	82 4f 98 01 	mov	r15,	&0x0198	
    4eb6:	03 3c       	jmp	$+8      	;abs 0x4ebe
    4eb8:	0c 5f       	add	r15,	r12	
    4eba:	82 4c 98 01 	mov	r12,	&0x0198	
    4ebe:	b2 f0 fe ff 88 01 	and	#-2,	&0x0188	;#0xfffe
    4ec4:	b2 d0 10 00 88 01 	bis	#16,	&0x0188	;#0x0010
    4eca:	38 41       	pop	r8		
    4ecc:	39 41       	pop	r9		
    4ece:	3a 41       	pop	r10		
    4ed0:	3b 41       	pop	r11		
    4ed2:	30 41       	ret			

00004ed4 <TransformAlarmC__3__set_alarm>:
    4ed4:	0b 12       	push	r11		
    4ed6:	0a 12       	push	r10		
    4ed8:	09 12       	push	r9		
    4eda:	08 12       	push	r8		
    4edc:	b0 12 fa 4c 	call	#0x4cfa	
    4ee0:	08 4e       	mov	r14,	r8	
    4ee2:	09 4f       	mov	r15,	r9	
    4ee4:	1e 42 f2 14 	mov	&0x14f2,r14	
    4ee8:	1f 42 f4 14 	mov	&0x14f4,r15	
    4eec:	0a 4e       	mov	r14,	r10	
    4eee:	0b 4f       	mov	r15,	r11	
    4ef0:	1a 52 1c 18 	add	&0x181c,r10	
    4ef4:	1b 62 1e 18 	addc	&0x181e,r11	
    4ef8:	09 9f       	cmp	r15,	r9	
    4efa:	09 28       	jnc	$+20     	;abs 0x4f0e
    4efc:	02 20       	jnz	$+6      	;abs 0x4f02
    4efe:	08 9e       	cmp	r14,	r8	
    4f00:	06 28       	jnc	$+14     	;abs 0x4f0e
    4f02:	0b 9f       	cmp	r15,	r11	
    4f04:	10 28       	jnc	$+34     	;abs 0x4f26
    4f06:	09 20       	jnz	$+20     	;abs 0x4f1a
    4f08:	0a 9e       	cmp	r14,	r10	
    4f0a:	0d 28       	jnc	$+28     	;abs 0x4f26
    4f0c:	06 3c       	jmp	$+14     	;abs 0x4f1a
    4f0e:	0b 9f       	cmp	r15,	r11	
    4f10:	04 28       	jnc	$+10     	;abs 0x4f1a
    4f12:	0f 9b       	cmp	r11,	r15	
    4f14:	27 28       	jnc	$+80     	;abs 0x4f64
    4f16:	0a 9e       	cmp	r14,	r10	
    4f18:	25 2c       	jc	$+76     	;abs 0x4f64
    4f1a:	09 9b       	cmp	r11,	r9	
    4f1c:	04 28       	jnc	$+10     	;abs 0x4f26
    4f1e:	0b 99       	cmp	r9,	r11	
    4f20:	21 28       	jnc	$+68     	;abs 0x4f64
    4f22:	08 9a       	cmp	r10,	r8	
    4f24:	1f 2c       	jc	$+64     	;abs 0x4f64
    4f26:	0c 4a       	mov	r10,	r12	
    4f28:	0d 4b       	mov	r11,	r13	
    4f2a:	0c 88       	sub	r8,	r12	
    4f2c:	0d 79       	subc	r9,	r13	
    4f2e:	0d 93       	tst	r13		
    4f30:	03 20       	jnz	$+8      	;abs 0x4f38
    4f32:	3c 90 01 80 	cmp	#-32767,r12	;#0x8001
    4f36:	18 28       	jnc	$+50     	;abs 0x4f68
    4f38:	0e 48       	mov	r8,	r14	
    4f3a:	0f 49       	mov	r9,	r15	
    4f3c:	3e 50 00 80 	add	#-32768,r14	;#0x8000
    4f40:	0f 63       	adc	r15		
    4f42:	82 4e f2 14 	mov	r14,	&0x14f2	
    4f46:	82 4f f4 14 	mov	r15,	&0x14f4	
    4f4a:	0e 4c       	mov	r12,	r14	
    4f4c:	0f 4d       	mov	r13,	r15	
    4f4e:	3e 50 00 80 	add	#-32768,r14	;#0x8000
    4f52:	3f 63       	addc	#-1,	r15	;r3 As==11
    4f54:	82 4e 1c 18 	mov	r14,	&0x181c	
    4f58:	82 4f 1e 18 	mov	r15,	&0x181e	
    4f5c:	3c 40 00 80 	mov	#-32768,r12	;#0x8000
    4f60:	0d 43       	clr	r13		
    4f62:	0a 3c       	jmp	$+22     	;abs 0x4f78
    4f64:	0c 43       	clr	r12		
    4f66:	0d 43       	clr	r13		
    4f68:	82 4a f2 14 	mov	r10,	&0x14f2	
    4f6c:	82 4b f4 14 	mov	r11,	&0x14f4	
    4f70:	82 43 1c 18 	mov	#0,	&0x181c	;r3 As==00
    4f74:	82 43 1e 18 	mov	#0,	&0x181e	;r3 As==00
    4f78:	0a 4c       	mov	r12,	r10	
    4f7a:	b0 12 9c 46 	call	#0x469c	
    4f7e:	0e 4f       	mov	r15,	r14	
    4f80:	0e 88       	sub	r8,	r14	
    4f82:	0e 9a       	cmp	r10,	r14	
    4f84:	05 2c       	jc	$+12     	;abs 0x4f90
    4f86:	0c 4a       	mov	r10,	r12	
    4f88:	0c 8e       	sub	r14,	r12	
    4f8a:	3c 90 03 00 	cmp	#3,	r12	;#0x0003
    4f8e:	06 2c       	jc	$+14     	;abs 0x4f9c
    4f90:	b0 12 9c 46 	call	#0x469c	
    4f94:	2f 53       	incd	r15		
    4f96:	82 4f 9a 01 	mov	r15,	&0x019a	
    4f9a:	03 3c       	jmp	$+8      	;abs 0x4fa2
    4f9c:	0c 5f       	add	r15,	r12	
    4f9e:	82 4c 9a 01 	mov	r12,	&0x019a	
    4fa2:	b2 f0 fe ff 8a 01 	and	#-2,	&0x018a	;#0xfffe
    4fa8:	b2 d0 10 00 8a 01 	bis	#16,	&0x018a	;#0x0010
    4fae:	38 41       	pop	r8		
    4fb0:	39 41       	pop	r9		
    4fb2:	3a 41       	pop	r10		
    4fb4:	3b 41       	pop	r11		
    4fb6:	30 41       	ret			

00004fb8 <TKN154TimingP__SymbolAlarm__startAt>:
    4fb8:	0b 12       	push	r11		
    4fba:	0a 12       	push	r10		
    4fbc:	09 12       	push	r9		
    4fbe:	08 12       	push	r8		
    4fc0:	07 12       	push	r7		
    4fc2:	06 12       	push	r6		
    4fc4:	08 4e       	mov	r14,	r8	
    4fc6:	09 4f       	mov	r15,	r9	
    4fc8:	06 4c       	mov	r12,	r6	
    4fca:	07 4d       	mov	r13,	r7	
    4fcc:	b0 12 fa 4c 	call	#0x4cfa	
    4fd0:	0a 4e       	mov	r14,	r10	
    4fd2:	0b 4f       	mov	r15,	r11	
    4fd4:	0a 5a       	rla	r10		
    4fd6:	0b 6b       	rlc	r11		
    4fd8:	0a 88       	sub	r8,	r10	
    4fda:	0b 79       	subc	r9,	r11	
    4fdc:	b0 12 fa 4c 	call	#0x4cfa	
    4fe0:	82 4e f2 14 	mov	r14,	&0x14f2	
    4fe4:	82 4f f4 14 	mov	r15,	&0x14f4	
    4fe8:	0e 4a       	mov	r10,	r14	
    4fea:	0f 4b       	mov	r11,	r15	
    4fec:	0b 97       	cmp	r7,	r11	
    4fee:	04 28       	jnc	$+10     	;abs 0x4ff8
    4ff0:	07 9b       	cmp	r11,	r7	
    4ff2:	04 28       	jnc	$+10     	;abs 0x4ffc
    4ff4:	0a 96       	cmp	r6,	r10	
    4ff6:	02 2c       	jc	$+6      	;abs 0x4ffc
    4ff8:	0e 46       	mov	r6,	r14	
    4ffa:	0f 47       	mov	r7,	r15	
    4ffc:	0e 8a       	sub	r10,	r14	
    4ffe:	0f 7b       	subc	r11,	r15	
    5000:	82 4e 1c 18 	mov	r14,	&0x181c	
    5004:	82 4f 1e 18 	mov	r15,	&0x181e	
    5008:	12 c3       	clrc			
    500a:	12 10 1e 18 	rrc	&0x181e	
    500e:	12 10 1c 18 	rrc	&0x181c	
    5012:	b0 12 d4 4e 	call	#0x4ed4	
    5016:	36 41       	pop	r6		
    5018:	37 41       	pop	r7		
    501a:	38 41       	pop	r8		
    501c:	39 41       	pop	r9		
    501e:	3a 41       	pop	r10		
    5020:	3b 41       	pop	r11		
    5022:	30 41       	ret			

00005024 <TransformAlarmC__1__set_alarm>:
    5024:	0b 12       	push	r11		
    5026:	0a 12       	push	r10		
    5028:	09 12       	push	r9		
    502a:	08 12       	push	r8		
    502c:	b0 12 fa 4c 	call	#0x4cfa	
    5030:	08 4e       	mov	r14,	r8	
    5032:	09 4f       	mov	r15,	r9	
    5034:	1e 42 46 11 	mov	&0x1146,r14	
    5038:	1f 42 48 11 	mov	&0x1148,r15	
    503c:	0a 4e       	mov	r14,	r10	
    503e:	0b 4f       	mov	r15,	r11	
    5040:	1a 52 0e 12 	add	&0x120e,r10	
    5044:	1b 62 10 12 	addc	&0x1210,r11	
    5048:	09 9f       	cmp	r15,	r9	
    504a:	09 28       	jnc	$+20     	;abs 0x505e
    504c:	02 20       	jnz	$+6      	;abs 0x5052
    504e:	08 9e       	cmp	r14,	r8	
    5050:	06 28       	jnc	$+14     	;abs 0x505e
    5052:	0b 9f       	cmp	r15,	r11	
    5054:	10 28       	jnc	$+34     	;abs 0x5076
    5056:	09 20       	jnz	$+20     	;abs 0x506a
    5058:	0a 9e       	cmp	r14,	r10	
    505a:	0d 28       	jnc	$+28     	;abs 0x5076
    505c:	06 3c       	jmp	$+14     	;abs 0x506a
    505e:	0b 9f       	cmp	r15,	r11	
    5060:	04 28       	jnc	$+10     	;abs 0x506a
    5062:	0f 9b       	cmp	r11,	r15	
    5064:	27 28       	jnc	$+80     	;abs 0x50b4
    5066:	0a 9e       	cmp	r14,	r10	
    5068:	25 2c       	jc	$+76     	;abs 0x50b4
    506a:	09 9b       	cmp	r11,	r9	
    506c:	04 28       	jnc	$+10     	;abs 0x5076
    506e:	0b 99       	cmp	r9,	r11	
    5070:	21 28       	jnc	$+68     	;abs 0x50b4
    5072:	08 9a       	cmp	r10,	r8	
    5074:	1f 2c       	jc	$+64     	;abs 0x50b4
    5076:	0c 4a       	mov	r10,	r12	
    5078:	0d 4b       	mov	r11,	r13	
    507a:	0c 88       	sub	r8,	r12	
    507c:	0d 79       	subc	r9,	r13	
    507e:	0d 93       	tst	r13		
    5080:	03 20       	jnz	$+8      	;abs 0x5088
    5082:	3c 90 01 80 	cmp	#-32767,r12	;#0x8001
    5086:	18 28       	jnc	$+50     	;abs 0x50b8
    5088:	0e 48       	mov	r8,	r14	
    508a:	0f 49       	mov	r9,	r15	
    508c:	3e 50 00 80 	add	#-32768,r14	;#0x8000
    5090:	0f 63       	adc	r15		
    5092:	82 4e 46 11 	mov	r14,	&0x1146	
    5096:	82 4f 48 11 	mov	r15,	&0x1148	
    509a:	0e 4c       	mov	r12,	r14	
    509c:	0f 4d       	mov	r13,	r15	
    509e:	3e 50 00 80 	add	#-32768,r14	;#0x8000
    50a2:	3f 63       	addc	#-1,	r15	;r3 As==11
    50a4:	82 4e 0e 12 	mov	r14,	&0x120e	
    50a8:	82 4f 10 12 	mov	r15,	&0x1210	
    50ac:	3c 40 00 80 	mov	#-32768,r12	;#0x8000
    50b0:	0d 43       	clr	r13		
    50b2:	0a 3c       	jmp	$+22     	;abs 0x50c8
    50b4:	0c 43       	clr	r12		
    50b6:	0d 43       	clr	r13		
    50b8:	82 4a 46 11 	mov	r10,	&0x1146	
    50bc:	82 4b 48 11 	mov	r11,	&0x1148	
    50c0:	82 43 0e 12 	mov	#0,	&0x120e	;r3 As==00
    50c4:	82 43 10 12 	mov	#0,	&0x1210	;r3 As==00
    50c8:	0a 4c       	mov	r12,	r10	
    50ca:	b0 12 9c 46 	call	#0x469c	
    50ce:	0e 4f       	mov	r15,	r14	
    50d0:	0e 88       	sub	r8,	r14	
    50d2:	0e 9a       	cmp	r10,	r14	
    50d4:	05 2c       	jc	$+12     	;abs 0x50e0
    50d6:	0c 4a       	mov	r10,	r12	
    50d8:	0c 8e       	sub	r14,	r12	
    50da:	3c 90 03 00 	cmp	#3,	r12	;#0x0003
    50de:	06 2c       	jc	$+14     	;abs 0x50ec
    50e0:	b0 12 9c 46 	call	#0x469c	
    50e4:	2f 53       	incd	r15		
    50e6:	82 4f 96 01 	mov	r15,	&0x0196	
    50ea:	03 3c       	jmp	$+8      	;abs 0x50f2
    50ec:	0c 5f       	add	r15,	r12	
    50ee:	82 4c 96 01 	mov	r12,	&0x0196	
    50f2:	b2 f0 fe ff 86 01 	and	#-2,	&0x0186	;#0xfffe
    50f8:	b2 d0 10 00 86 01 	bis	#16,	&0x0186	;#0x0010
    50fe:	38 41       	pop	r8		
    5100:	39 41       	pop	r9		
    5102:	3a 41       	pop	r10		
    5104:	3b 41       	pop	r11		
    5106:	30 41       	ret			

00005108 <CC2420TransmitP__CC2420Tx__send>:
    5108:	0b 12       	push	r11		
    510a:	4b 4f       	mov.b	r15,	r11	
    510c:	b2 90 03 00 12 11 	cmp	#3,	&0x1112	;#0x0003
    5112:	36 20       	jnz	$+110    	;abs 0x5180
    5114:	b0 12 6e 46 	call	#0x466e	
    5118:	b0 12 66 46 	call	#0x4666	
    511c:	4b 93       	tst.b	r11		
    511e:	03 24       	jz	$+8      	;abs 0x5126
    5120:	7f 40 05 00 	mov.b	#5,	r15	;#0x0005
    5124:	01 3c       	jmp	$+4      	;abs 0x5128
    5126:	6f 42       	mov.b	#4,	r15	;r2 As==10
    5128:	b0 12 e4 46 	call	#0x46e4	
    512c:	3f f2       	and	#8,	r15	;r2 As==11
    512e:	04 20       	jnz	$+10     	;abs 0x5138
    5130:	b0 12 e4 46 	call	#0x46e4	
    5134:	3f f2       	and	#8,	r15	;r2 As==11
    5136:	02 20       	jnz	$+6      	;abs 0x513c
    5138:	5b 43       	mov.b	#1,	r11	;r3 As==01
    513a:	01 3c       	jmp	$+4      	;abs 0x513e
    513c:	4b 43       	clr.b	r11		
    513e:	b0 12 6e 46 	call	#0x466e	
    5142:	4b 93       	tst.b	r11		
    5144:	1f 20       	jnz	$+64     	;abs 0x5184
    5146:	a2 42 12 11 	mov	#4,	&0x1112	;r2 As==10
    514a:	1f 42 10 15 	mov	&0x1510,r15	
    514e:	1f 4f 04 00 	mov	4(r15),	r15	;0x0004(r15)
    5152:	ff 43 03 00 	mov.b	#-1,	3(r15)	;r3 As==11, 0x0003(r15)
    5156:	ff 43 02 00 	mov.b	#-1,	2(r15)	;r3 As==11, 0x0002(r15)
    515a:	ff 43 01 00 	mov.b	#-1,	1(r15)	;r3 As==11, 0x0001(r15)
    515e:	ff 43 00 00 	mov.b	#-1,	0(r15)	;r3 As==11, 0x0000(r15)
    5162:	b0 12 fa 4c 	call	#0x4cfa	
    5166:	82 4e 46 11 	mov	r14,	&0x1146	
    516a:	82 4f 48 11 	mov	r15,	&0x1148	
    516e:	b2 40 e0 01 0e 12 	mov	#480,	&0x120e	;#0x01e0
    5174:	82 43 10 12 	mov	#0,	&0x1210	;r3 As==00
    5178:	b0 12 24 50 	call	#0x5024	
    517c:	0f 43       	clr	r15		
    517e:	03 3c       	jmp	$+8      	;abs 0x5186
    5180:	2f 42       	mov	#4,	r15	;r2 As==10
    5182:	01 3c       	jmp	$+4      	;abs 0x5186
    5184:	1f 43       	mov	#1,	r15	;r3 As==01
    5186:	3b 41       	pop	r11		
    5188:	30 41       	ret			

0000518a <CC2420TKN154P__CC2420Power__rxOn>:
    518a:	0b 12       	push	r11		
    518c:	0b 42       	mov	r2,	r11	
    518e:	3b f2       	and	#8,	r11	;r2 As==11
    5190:	32 c2       	dint			
    5192:	03 43       	nop			
    5194:	b0 12 44 4b 	call	#0x4b44	
    5198:	4f 93       	tst.b	r15		
    519a:	04 20       	jnz	$+10     	;abs 0x51a4
    519c:	0b 93       	tst	r11		
    519e:	14 24       	jz	$+42     	;abs 0x51c8
    51a0:	32 d2       	eint			
    51a2:	12 3c       	jmp	$+38     	;abs 0x51c8
    51a4:	b0 12 74 46 	call	#0x4674	
    51a8:	b0 12 7a 46 	call	#0x467a	
    51ac:	7f 40 03 00 	mov.b	#3,	r15	;#0x0003
    51b0:	b0 12 e4 46 	call	#0x46e4	
    51b4:	7f 40 0b 00 	mov.b	#11,	r15	;#0x000b
    51b8:	b0 12 e4 46 	call	#0x46e4	
    51bc:	b0 12 74 46 	call	#0x4674	
    51c0:	0b 93       	tst	r11		
    51c2:	04 24       	jz	$+10     	;abs 0x51cc
    51c4:	32 d2       	eint			
    51c6:	02 3c       	jmp	$+6      	;abs 0x51cc
    51c8:	1f 43       	mov	#1,	r15	;r3 As==01
    51ca:	01 3c       	jmp	$+4      	;abs 0x51ce
    51cc:	0f 43       	clr	r15		
    51ce:	3b 41       	pop	r11		
    51d0:	30 41       	ret			

000051d2 <SimpleTransferArbiterP__0__Resource__isOwner>:
    51d2:	0e 42       	mov	r2,	r14	
    51d4:	3e f2       	and	#8,	r14	;r2 As==11
    51d6:	32 c2       	dint			
    51d8:	03 43       	nop			
    51da:	c2 9f 09 11 	cmp.b	r15,	&0x1109	
    51de:	07 20       	jnz	$+16     	;abs 0x51ee
    51e0:	e2 93 36 11 	cmp.b	#2,	&0x1136	;r3 As==10
    51e4:	04 20       	jnz	$+10     	;abs 0x51ee
    51e6:	0e 93       	tst	r14		
    51e8:	07 24       	jz	$+16     	;abs 0x51f8
    51ea:	32 d2       	eint			
    51ec:	05 3c       	jmp	$+12     	;abs 0x51f8
    51ee:	0e 93       	tst	r14		
    51f0:	05 24       	jz	$+12     	;abs 0x51fc
    51f2:	32 d2       	eint			
    51f4:	4f 43       	clr.b	r15		
    51f6:	30 41       	ret			
    51f8:	5f 43       	mov.b	#1,	r15	;r3 As==01
    51fa:	30 41       	ret			
    51fc:	4f 43       	clr.b	r15		
    51fe:	30 41       	ret			

00005200 <VirtualizeAlarmC__0__Alarm__isRunning>:
    5200:	0e 42       	mov	r2,	r14	
    5202:	32 c2       	dint			
    5204:	03 43       	nop			
    5206:	4f 4f       	mov.b	r15,	r15	
    5208:	5f 4f 40 17 	mov.b	5952(r15),r15	;0x1740(r15)
    520c:	3e f2       	and	#8,	r14	;r2 As==11
    520e:	01 24       	jz	$+4      	;abs 0x5212
    5210:	32 d2       	eint			
    5212:	30 41       	ret			

00005214 <Alarm32khzTo62500hzTransformC__AlarmFrom__isRunning>:
    5214:	7f 90 10 00 	cmp.b	#16,	r15	;#0x0010
    5218:	31 2c       	jc	$+100    	;abs 0x527c
    521a:	4f 4f       	mov.b	r15,	r15	
    521c:	0f 5f       	rla	r15		
    521e:	10 4f fa bd 	br	-16902(r15)	;0xbdfa(r15)
    5222:	4f 43       	clr.b	r15		
    5224:	28 3c       	jmp	$+82     	;abs 0x5276
    5226:	5f 43       	mov.b	#1,	r15	;r3 As==01
    5228:	26 3c       	jmp	$+78     	;abs 0x5276
    522a:	6f 43       	mov.b	#2,	r15	;r3 As==10
    522c:	24 3c       	jmp	$+74     	;abs 0x5276
    522e:	7f 40 03 00 	mov.b	#3,	r15	;#0x0003
    5232:	21 3c       	jmp	$+68     	;abs 0x5276
    5234:	6f 42       	mov.b	#4,	r15	;r2 As==10
    5236:	1f 3c       	jmp	$+64     	;abs 0x5276
    5238:	7f 40 05 00 	mov.b	#5,	r15	;#0x0005
    523c:	1c 3c       	jmp	$+58     	;abs 0x5276
    523e:	7f 40 06 00 	mov.b	#6,	r15	;#0x0006
    5242:	19 3c       	jmp	$+52     	;abs 0x5276
    5244:	7f 40 07 00 	mov.b	#7,	r15	;#0x0007
    5248:	16 3c       	jmp	$+46     	;abs 0x5276
    524a:	7f 42       	mov.b	#8,	r15	;r2 As==11
    524c:	14 3c       	jmp	$+42     	;abs 0x5276
    524e:	7f 40 09 00 	mov.b	#9,	r15	;#0x0009
    5252:	11 3c       	jmp	$+36     	;abs 0x5276
    5254:	7f 40 0a 00 	mov.b	#10,	r15	;#0x000a
    5258:	0e 3c       	jmp	$+30     	;abs 0x5276
    525a:	7f 40 0b 00 	mov.b	#11,	r15	;#0x000b
    525e:	0b 3c       	jmp	$+24     	;abs 0x5276
    5260:	7f 40 0c 00 	mov.b	#12,	r15	;#0x000c
    5264:	08 3c       	jmp	$+18     	;abs 0x5276
    5266:	7f 40 0d 00 	mov.b	#13,	r15	;#0x000d
    526a:	05 3c       	jmp	$+12     	;abs 0x5276
    526c:	7f 40 0e 00 	mov.b	#14,	r15	;#0x000e
    5270:	02 3c       	jmp	$+6      	;abs 0x5276
    5272:	7f 40 0f 00 	mov.b	#15,	r15	;#0x000f
    5276:	b0 12 00 52 	call	#0x5200	
    527a:	30 41       	ret			
    527c:	4f 43       	clr.b	r15		
    527e:	30 41       	ret			

00005280 <SimpleTransferArbiterP__0__Resource__release>:
    5280:	0b 12       	push	r11		
    5282:	0a 12       	push	r10		
    5284:	09 12       	push	r9		
    5286:	08 12       	push	r8		
    5288:	0a 42       	mov	r2,	r10	
    528a:	3a f2       	and	#8,	r10	;r2 As==11
    528c:	32 c2       	dint			
    528e:	03 43       	nop			
    5290:	e2 93 36 11 	cmp.b	#2,	&0x1136	;r3 As==10
    5294:	3a 20       	jnz	$+118    	;abs 0x530a
    5296:	c2 9f 09 11 	cmp.b	r15,	&0x1109	
    529a:	37 20       	jnz	$+112    	;abs 0x530a
    529c:	c2 93 2c 15 	tst.b	&0x152c	
    52a0:	03 20       	jnz	$+8      	;abs 0x52a8
    52a2:	c2 93 2d 15 	tst.b	&0x152d	
    52a6:	3e 24       	jz	$+126    	;abs 0x5324
    52a8:	59 42 38 11 	mov.b	&0x1138,r9	
    52ac:	0e 49       	mov	r9,	r14	
    52ae:	1e 53       	inc	r14		
    52b0:	3e 90 0c 00 	cmp	#12,	r14	;#0x000c
    52b4:	01 20       	jnz	$+4      	;abs 0x52b8
    52b6:	0e 43       	clr	r14		
    52b8:	4c 4e       	mov.b	r14,	r12	
    52ba:	4f 4e       	mov.b	r14,	r15	
    52bc:	12 c3       	clrc			
    52be:	4f 10       	rrc.b	r15		
    52c0:	12 c3       	clrc			
    52c2:	4f 10       	rrc.b	r15		
    52c4:	12 c3       	clrc			
    52c6:	4f 10       	rrc.b	r15		
    52c8:	4f 4f       	mov.b	r15,	r15	
    52ca:	3f 50 2c 15 	add	#5420,	r15	;#0x152c
    52ce:	68 4f       	mov.b	@r15,	r8	
    52d0:	1d 43       	mov	#1,	r13	;r3 As==01
    52d2:	4b 4c       	mov.b	r12,	r11	
    52d4:	7b f0 07 00 	and.b	#7,	r11	;#0x0007
    52d8:	4b 93       	tst.b	r11		
    52da:	03 24       	jz	$+8      	;abs 0x52e2
    52dc:	0d 5d       	rla	r13		
    52de:	7b 53       	add.b	#-1,	r11	;r3 As==11
    52e0:	fb 3f       	jmp	$-8      	;abs 0x52d8
    52e2:	48 bd       	bit.b	r13,	r8	
    52e4:	06 24       	jz	$+14     	;abs 0x52f2
    52e6:	48 cd       	bic.b	r13,	r8	
    52e8:	cf 48 00 00 	mov.b	r8,	0(r15)	;0x0000(r15)
    52ec:	c2 4c 38 11 	mov.b	r12,	&0x1138	
    52f0:	03 3c       	jmp	$+8      	;abs 0x52f8
    52f2:	0e 99       	cmp	r9,	r14	
    52f4:	dc 23       	jnz	$-70     	;abs 0x52ae
    52f6:	7c 43       	mov.b	#-1,	r12	;r3 As==11
    52f8:	c2 4c fa 11 	mov.b	r12,	&0x11fa	
    52fc:	d2 43 36 11 	mov.b	#1,	&0x1136	;r3 As==01
    5300:	7f 40 05 00 	mov.b	#5,	r15	;#0x0005
    5304:	b0 12 fa 4a 	call	#0x4afa	
    5308:	11 3c       	jmp	$+36     	;abs 0x532c
    530a:	4e 43       	clr.b	r14		
    530c:	0a 93       	tst	r10		
    530e:	01 24       	jz	$+4      	;abs 0x5312
    5310:	32 d2       	eint			
    5312:	1f 43       	mov	#1,	r15	;r3 As==01
    5314:	5e 93       	cmp.b	#1,	r14	;r3 As==01
    5316:	01 20       	jnz	$+4      	;abs 0x531a
    5318:	0f 43       	clr	r15		
    531a:	38 41       	pop	r8		
    531c:	39 41       	pop	r9		
    531e:	3a 41       	pop	r10		
    5320:	3b 41       	pop	r11		
    5322:	30 41       	ret			
    5324:	f2 43 09 11 	mov.b	#-1,	&0x1109	;r3 As==11
    5328:	c2 43 36 11 	mov.b	#0,	&0x1136	;r3 As==00
    532c:	5e 43       	mov.b	#1,	r14	;r3 As==01
    532e:	ee 3f       	jmp	$-34     	;abs 0x530c

00005330 <VirtualizeAlarmC__0__Alarm__stop>:
    5330:	0e 42       	mov	r2,	r14	
    5332:	32 c2       	dint			
    5334:	03 43       	nop			
    5336:	4f 4f       	mov.b	r15,	r15	
    5338:	cf 43 40 17 	mov.b	#0,	5952(r15);r3 As==00, 0x1740(r15)
    533c:	3e f2       	and	#8,	r14	;r2 As==11
    533e:	01 24       	jz	$+4      	;abs 0x5342
    5340:	32 d2       	eint			
    5342:	30 41       	ret			

00005344 <Alarm32khzTo62500hzTransformC__AlarmFrom__stop>:
    5344:	7f 90 10 00 	cmp.b	#16,	r15	;#0x0010
    5348:	32 2c       	jc	$+102    	;abs 0x53ae
    534a:	4f 4f       	mov.b	r15,	r15	
    534c:	0f 5f       	rla	r15		
    534e:	10 4f 1a be 	br	-16870(r15)	;0xbe1a(r15)
    5352:	4f 43       	clr.b	r15		
    5354:	25 3c       	jmp	$+76     	;abs 0x53a0
    5356:	5f 43       	mov.b	#1,	r15	;r3 As==01
    5358:	23 3c       	jmp	$+72     	;abs 0x53a0
    535a:	6f 43       	mov.b	#2,	r15	;r3 As==10
    535c:	21 3c       	jmp	$+68     	;abs 0x53a0
    535e:	7f 40 03 00 	mov.b	#3,	r15	;#0x0003
    5362:	1e 3c       	jmp	$+62     	;abs 0x53a0
    5364:	6f 42       	mov.b	#4,	r15	;r2 As==10
    5366:	1c 3c       	jmp	$+58     	;abs 0x53a0
    5368:	7f 40 05 00 	mov.b	#5,	r15	;#0x0005
    536c:	19 3c       	jmp	$+52     	;abs 0x53a0
    536e:	7f 40 06 00 	mov.b	#6,	r15	;#0x0006
    5372:	16 3c       	jmp	$+46     	;abs 0x53a0
    5374:	7f 40 07 00 	mov.b	#7,	r15	;#0x0007
    5378:	13 3c       	jmp	$+40     	;abs 0x53a0
    537a:	7f 42       	mov.b	#8,	r15	;r2 As==11
    537c:	11 3c       	jmp	$+36     	;abs 0x53a0
    537e:	7f 40 09 00 	mov.b	#9,	r15	;#0x0009
    5382:	0e 3c       	jmp	$+30     	;abs 0x53a0
    5384:	7f 40 0a 00 	mov.b	#10,	r15	;#0x000a
    5388:	0b 3c       	jmp	$+24     	;abs 0x53a0
    538a:	7f 40 0b 00 	mov.b	#11,	r15	;#0x000b
    538e:	08 3c       	jmp	$+18     	;abs 0x53a0
    5390:	7f 40 0c 00 	mov.b	#12,	r15	;#0x000c
    5394:	05 3c       	jmp	$+12     	;abs 0x53a0
    5396:	7f 40 0d 00 	mov.b	#13,	r15	;#0x000d
    539a:	02 3c       	jmp	$+6      	;abs 0x53a0
    539c:	7f 40 0e 00 	mov.b	#14,	r15	;#0x000e
    53a0:	b0 12 30 53 	call	#0x5330	
    53a4:	30 41       	ret			
    53a6:	7f 40 0f 00 	mov.b	#15,	r15	;#0x000f
    53aa:	b0 12 30 53 	call	#0x5330	
    53ae:	30 41       	ret			

000053b0 <DispatchSlottedCsmaP__0__stopAllAlarms>:
    53b0:	6f 42       	mov.b	#4,	r15	;r2 As==10
    53b2:	b0 12 44 53 	call	#0x5344	
    53b6:	7f 40 06 00 	mov.b	#6,	r15	;#0x0006
    53ba:	b0 12 44 53 	call	#0x5344	
    53be:	7f 40 05 00 	mov.b	#5,	r15	;#0x0005
    53c2:	b0 12 44 53 	call	#0x5344	
    53c6:	30 41       	ret			

000053c8 <DispatchSlottedCsmaP__1__stopAllAlarms>:
    53c8:	7f 40 07 00 	mov.b	#7,	r15	;#0x0007
    53cc:	b0 12 44 53 	call	#0x5344	
    53d0:	7f 42       	mov.b	#8,	r15	;r2 As==11
    53d2:	b0 12 44 53 	call	#0x5344	
    53d6:	30 41       	ret			

000053d8 <RandomMlcgC__Random__rand32>:
    53d8:	0b 12       	push	r11		
    53da:	0a 12       	push	r10		
    53dc:	09 12       	push	r9		
    53de:	08 12       	push	r8		
    53e0:	07 12       	push	r7		
    53e2:	06 12       	push	r6		
    53e4:	05 12       	push	r5		
    53e6:	07 42       	mov	r2,	r7	
    53e8:	37 f2       	and	#8,	r7	;r2 As==11
    53ea:	32 c2       	dint			
    53ec:	03 43       	nop			
    53ee:	3c 40 4e 83 	mov	#-31922,r12	;#0x834e
    53f2:	0d 43       	clr	r13		
    53f4:	1e 42 14 14 	mov	&0x1414,r14	
    53f8:	1f 42 16 14 	mov	&0x1416,r15	
    53fc:	b0 12 2c bb 	call	#0xbb2c	
    5400:	06 4d       	mov	r13,	r6	
    5402:	08 4e       	mov	r14,	r8	
    5404:	09 4f       	mov	r15,	r9	
    5406:	0e 4c       	mov	r12,	r14	
    5408:	0f 46       	mov	r6,	r15	
    540a:	12 c3       	clrc			
    540c:	0f 10       	rrc	r15		
    540e:	0e 10       	rrc	r14		
    5410:	0e 58       	add	r8,	r14	
    5412:	0f 69       	addc	r9,	r15	
    5414:	0f 93       	tst	r15		
    5416:	05 34       	jge	$+12     	;abs 0x5422
    5418:	3e f3       	and	#-1,	r14	;r3 As==11
    541a:	3f f0 ff 7f 	and	#32767,	r15	;#0x7fff
    541e:	1e 53       	inc	r14		
    5420:	0f 63       	adc	r15		
    5422:	82 4e 14 14 	mov	r14,	&0x1414	
    5426:	82 4f 16 14 	mov	r15,	&0x1416	
    542a:	07 93       	tst	r7		
    542c:	01 24       	jz	$+4      	;abs 0x5430
    542e:	32 d2       	eint			
    5430:	35 41       	pop	r5		
    5432:	36 41       	pop	r6		
    5434:	37 41       	pop	r7		
    5436:	38 41       	pop	r8		
    5438:	39 41       	pop	r9		
    543a:	3a 41       	pop	r10		
    543c:	3b 41       	pop	r11		
    543e:	30 41       	ret			

00005440 <PibP__resetAttributesToDefault>:
    5440:	0b 12       	push	r11		
    5442:	3f 40 df 13 	mov	#5087,	r15	;#0x13df
    5446:	ff 40 1a 00 00 00 	mov.b	#26,	0(r15)	;#0x001a, 0x0000(r15)
    544c:	ff 40 80 ff 01 00 	mov.b	#-128,	1(r15)	;#0xff80, 0x0001(r15)
    5452:	ff 40 03 00 02 00 	mov.b	#3,	2(r15)	;#0x0003, 0x0002(r15)
    5458:	cf 43 03 00 	mov.b	#0,	3(r15)	;r3 As==00, 0x0003(r15)
    545c:	cf 43 fd ff 	mov.b	#0,	-3(r15)	;r3 As==00, 0xfffd(r15)
    5460:	3b 40 d6 13 	mov	#5078,	r11	;#0x13d6
    5464:	cb 43 00 00 	mov.b	#0,	0(r11)	;r3 As==00, 0x0000(r11)
    5468:	db 43 01 00 	mov.b	#1,	1(r11)	;r3 As==01, 0x0001(r11)
    546c:	cb 43 02 00 	mov.b	#0,	2(r11)	;r3 As==00, 0x0002(r11)
    5470:	fb 40 06 00 0d 00 	mov.b	#6,	13(r11)	;#0x0006, 0x000d(r11)
    5476:	cb 43 0e 00 	mov.b	#0,	14(r11)	;r3 As==00, 0x000e(r11)
    547a:	fb 40 0f 00 0f 00 	mov.b	#15,	15(r11)	;#0x000f, 0x000f(r11)
    5480:	8b 43 24 00 	mov	#0,	36(r11)	;r3 As==00, 0x0024(r11)
    5484:	8b 43 26 00 	mov	#0,	38(r11)	;r3 As==00, 0x0026(r11)
    5488:	b0 12 d8 53 	call	#0x53d8	
    548c:	cb 4e 10 00 	mov.b	r14,	16(r11)	;0x0010(r11)
    5490:	bb 43 18 00 	mov	#-1,	24(r11)	;r3 As==11, 0x0018(r11)
    5494:	b0 12 d8 53 	call	#0x53d8	
    5498:	cb 4e 11 00 	mov.b	r14,	17(r11)	;0x0011(r11)
    549c:	db 43 03 00 	mov.b	#1,	3(r11)	;r3 As==01, 0x0003(r11)
    54a0:	fb 40 05 00 15 00 	mov.b	#5,	21(r11)	;#0x0005, 0x0015(r11)
    54a6:	eb 42 12 00 	mov.b	#4,	18(r11)	;r2 As==10, 0x0012(r11)
    54aa:	fb 40 03 00 16 00 	mov.b	#3,	22(r11)	;#0x0003, 0x0016(r11)
    54b0:	fb 40 03 00 13 00 	mov.b	#3,	19(r11)	;#0x0003, 0x0013(r11)
    54b6:	bb 43 1a 00 	mov	#-1,	26(r11)	;r3 As==11, 0x001a(r11)
    54ba:	cb 43 04 00 	mov.b	#0,	4(r11)	;r3 As==00, 0x0004(r11)
    54be:	fb 40 20 00 17 00 	mov.b	#32,	23(r11)	;#0x0020, 0x0017(r11)
    54c4:	cb 43 05 00 	mov.b	#0,	5(r11)	;r3 As==00, 0x0005(r11)
    54c8:	cb 43 07 00 	mov.b	#0,	7(r11)	;r3 As==00, 0x0007(r11)
    54cc:	bb 43 1c 00 	mov	#-1,	28(r11)	;r3 As==11, 0x001c(r11)
    54d0:	fb 40 0f 00 14 00 	mov.b	#15,	20(r11)	;#0x000f, 0x0014(r11)
    54d6:	bb 40 f4 01 1e 00 	mov	#500,	30(r11)	;#0x01f4, 0x001e(r11)
    54dc:	cb 43 08 00 	mov.b	#0,	8(r11)	;r3 As==00, 0x0008(r11)
    54e0:	bb 40 c2 07 20 00 	mov	#1986,	32(r11)	;#0x07c2, 0x0020(r11)
    54e6:	8b 43 22 00 	mov	#0,	34(r11)	;r3 As==00, 0x0022(r11)
    54ea:	3b 41       	pop	r11		
    54ec:	30 41       	ret			

000054ee <LedsP__Led0__set>:
    54ee:	0f 42       	mov	r2,	r15	
    54f0:	32 c2       	dint			
    54f2:	03 43       	nop			
    54f4:	f2 d0 10 00 31 00 	bis.b	#16,	&0x0031	;#0x0010
    54fa:	3f f2       	and	#8,	r15	;r2 As==11
    54fc:	01 24       	jz	$+4      	;abs 0x5500
    54fe:	32 d2       	eint			
    5500:	30 41       	ret			

00005502 <TransformAlarmC__0__Counter__get>:
    5502:	0b 12       	push	r11		
    5504:	0a 12       	push	r10		
    5506:	09 12       	push	r9		
    5508:	09 42       	mov	r2,	r9	
    550a:	39 f2       	and	#8,	r9	;r2 As==11
    550c:	32 c2       	dint			
    550e:	03 43       	nop			
    5510:	1a 42 16 15 	mov	&0x1516,r10	
    5514:	1b 42 18 15 	mov	&0x1518,r11	
    5518:	b0 12 9c 46 	call	#0x469c	
    551c:	1e 42 80 01 	mov	&0x0180,r14	
    5520:	5e f3       	and.b	#1,	r14	;r3 As==01
    5522:	04 24       	jz	$+10     	;abs 0x552c
    5524:	1a 53       	inc	r10		
    5526:	0b 63       	adc	r11		
    5528:	b0 12 9c 46 	call	#0x469c	
    552c:	12 c3       	clrc			
    552e:	0f 10       	rrc	r15		
    5530:	12 c3       	clrc			
    5532:	0f 10       	rrc	r15		
    5534:	12 c3       	clrc			
    5536:	0f 10       	rrc	r15		
    5538:	12 c3       	clrc			
    553a:	0f 10       	rrc	r15		
    553c:	12 c3       	clrc			
    553e:	0f 10       	rrc	r15		
    5540:	0c 4f       	mov	r15,	r12	
    5542:	0d 43       	clr	r13		
    5544:	0e 4a       	mov	r10,	r14	
    5546:	0f 4b       	mov	r11,	r15	
    5548:	4f ea       	xor.b	r10,	r15	
    554a:	0f ea       	xor	r10,	r15	
    554c:	8f 10       	swpb	r15		
    554e:	4e 4e       	mov.b	r14,	r14	
    5550:	8e 10       	swpb	r14		
    5552:	0e 5e       	rla	r14		
    5554:	0f 6f       	rlc	r15		
    5556:	0e 5e       	rla	r14		
    5558:	0f 6f       	rlc	r15		
    555a:	0e 5e       	rla	r14		
    555c:	0f 6f       	rlc	r15		
    555e:	0e dc       	bis	r12,	r14	
    5560:	0f dd       	bis	r13,	r15	
    5562:	09 93       	tst	r9		
    5564:	01 24       	jz	$+4      	;abs 0x5568
    5566:	32 d2       	eint			
    5568:	39 41       	pop	r9		
    556a:	3a 41       	pop	r10		
    556c:	3b 41       	pop	r11		
    556e:	30 41       	ret			

00005570 <TransformAlarmC__0__set_alarm>:
    5570:	0b 12       	push	r11		
    5572:	0a 12       	push	r10		
    5574:	09 12       	push	r9		
    5576:	08 12       	push	r8		
    5578:	b0 12 02 55 	call	#0x5502	
    557c:	08 4e       	mov	r14,	r8	
    557e:	09 4f       	mov	r15,	r9	
    5580:	1e 42 30 14 	mov	&0x1430,r14	
    5584:	1f 42 32 14 	mov	&0x1432,r15	
    5588:	0a 4e       	mov	r14,	r10	
    558a:	0b 4f       	mov	r15,	r11	
    558c:	1a 52 20 14 	add	&0x1420,r10	
    5590:	1b 62 22 14 	addc	&0x1422,r11	
    5594:	09 9f       	cmp	r15,	r9	
    5596:	09 28       	jnc	$+20     	;abs 0x55aa
    5598:	02 20       	jnz	$+6      	;abs 0x559e
    559a:	08 9e       	cmp	r14,	r8	
    559c:	06 28       	jnc	$+14     	;abs 0x55aa
    559e:	0b 9f       	cmp	r15,	r11	
    55a0:	10 28       	jnc	$+34     	;abs 0x55c2
    55a2:	09 20       	jnz	$+20     	;abs 0x55b6
    55a4:	0a 9e       	cmp	r14,	r10	
    55a6:	0d 28       	jnc	$+28     	;abs 0x55c2
    55a8:	06 3c       	jmp	$+14     	;abs 0x55b6
    55aa:	0b 9f       	cmp	r15,	r11	
    55ac:	04 28       	jnc	$+10     	;abs 0x55b6
    55ae:	0f 9b       	cmp	r11,	r15	
    55b0:	27 28       	jnc	$+80     	;abs 0x5600
    55b2:	0a 9e       	cmp	r14,	r10	
    55b4:	25 2c       	jc	$+76     	;abs 0x5600
    55b6:	09 9b       	cmp	r11,	r9	
    55b8:	04 28       	jnc	$+10     	;abs 0x55c2
    55ba:	0b 99       	cmp	r9,	r11	
    55bc:	21 28       	jnc	$+68     	;abs 0x5600
    55be:	08 9a       	cmp	r10,	r8	
    55c0:	1f 2c       	jc	$+64     	;abs 0x5600
    55c2:	0c 4a       	mov	r10,	r12	
    55c4:	0d 4b       	mov	r11,	r13	
    55c6:	0c 88       	sub	r8,	r12	
    55c8:	0d 79       	subc	r9,	r13	
    55ca:	0d 93       	tst	r13		
    55cc:	03 20       	jnz	$+8      	;abs 0x55d4
    55ce:	3c 90 01 04 	cmp	#1025,	r12	;#0x0401
    55d2:	18 28       	jnc	$+50     	;abs 0x5604
    55d4:	0e 48       	mov	r8,	r14	
    55d6:	0f 49       	mov	r9,	r15	
    55d8:	3e 50 00 04 	add	#1024,	r14	;#0x0400
    55dc:	0f 63       	adc	r15		
    55de:	82 4e 30 14 	mov	r14,	&0x1430	
    55e2:	82 4f 32 14 	mov	r15,	&0x1432	
    55e6:	0e 4c       	mov	r12,	r14	
    55e8:	0f 4d       	mov	r13,	r15	
    55ea:	3e 50 00 fc 	add	#-1024,	r14	;#0xfc00
    55ee:	3f 63       	addc	#-1,	r15	;r3 As==11
    55f0:	82 4e 20 14 	mov	r14,	&0x1420	
    55f4:	82 4f 22 14 	mov	r15,	&0x1422	
    55f8:	3c 40 00 04 	mov	#1024,	r12	;#0x0400
    55fc:	0d 43       	clr	r13		
    55fe:	0a 3c       	jmp	$+22     	;abs 0x5614
    5600:	0c 43       	clr	r12		
    5602:	0d 43       	clr	r13		
    5604:	82 4a 30 14 	mov	r10,	&0x1430	
    5608:	82 4b 32 14 	mov	r11,	&0x1432	
    560c:	82 43 20 14 	mov	#0,	&0x1420	;r3 As==00
    5610:	82 43 22 14 	mov	#0,	&0x1422	;r3 As==00
    5614:	0a 4c       	mov	r12,	r10	
    5616:	0a 5a       	rla	r10		
    5618:	0a 5a       	rla	r10		
    561a:	0a 5a       	rla	r10		
    561c:	0a 5a       	rla	r10		
    561e:	0a 5a       	rla	r10		
    5620:	b0 12 9c 46 	call	#0x469c	
    5624:	08 58       	rla	r8		
    5626:	08 58       	rla	r8		
    5628:	08 58       	rla	r8		
    562a:	08 58       	rla	r8		
    562c:	08 58       	rla	r8		
    562e:	0e 4f       	mov	r15,	r14	
    5630:	0e 88       	sub	r8,	r14	
    5632:	0e 9a       	cmp	r10,	r14	
    5634:	04 2c       	jc	$+10     	;abs 0x563e
    5636:	0a 8e       	sub	r14,	r10	
    5638:	3a 90 03 00 	cmp	#3,	r10	;#0x0003
    563c:	06 2c       	jc	$+14     	;abs 0x564a
    563e:	b0 12 9c 46 	call	#0x469c	
    5642:	2f 53       	incd	r15		
    5644:	82 4f 92 01 	mov	r15,	&0x0192	
    5648:	03 3c       	jmp	$+8      	;abs 0x5650
    564a:	0a 5f       	add	r15,	r10	
    564c:	82 4a 92 01 	mov	r10,	&0x0192	
    5650:	b2 f0 fe ff 82 01 	and	#-2,	&0x0182	;#0xfffe
    5656:	b2 d0 10 00 82 01 	bis	#16,	&0x0182	;#0x0010
    565c:	38 41       	pop	r8		
    565e:	39 41       	pop	r9		
    5660:	3a 41       	pop	r10		
    5662:	3b 41       	pop	r11		
    5664:	30 41       	ret			

00005666 <NWKP__Cskip>:
    5666:	0b 12       	push	r11		
    5668:	0a 12       	push	r10		
    566a:	09 12       	push	r9		
    566c:	08 12       	push	r8		
    566e:	07 12       	push	r7		
    5670:	5c 42 a7 11 	mov.b	&0x11a7,r12	
    5674:	5d 42 a9 11 	mov.b	&0x11a9,r13	
    5678:	58 42 a8 11 	mov.b	&0x11a8,r8	
    567c:	0b 42       	mov	r2,	r11	
    567e:	3b f2       	and	#8,	r11	;r2 As==11
    5680:	32 c2       	dint			
    5682:	03 43       	nop			
    5684:	1d 93       	cmp	#1,	r13	;r3 As==01
    5686:	1c 20       	jnz	$+58     	;abs 0x56c0
    5688:	8f 11       	sxt	r15		
    568a:	08 8f       	sub	r15,	r8	
    568c:	0f 48       	mov	r8,	r15	
    568e:	3f 53       	add	#-1,	r15	;r3 As==11
    5690:	02 12       	push	r2		
    5692:	32 c2       	dint			
    5694:	03 43       	nop			
    5696:	82 4c 32 01 	mov	r12,	&0x0132	
    569a:	82 4f 38 01 	mov	r15,	&0x0138	
    569e:	1f 42 3a 01 	mov	&0x013a,r15	
    56a2:	32 41       	pop	r2		
    56a4:	1f 53       	inc	r15		
    56a6:	28 3c       	jmp	$+82     	;abs 0x56f8
    56a8:	02 12       	push	r2		
    56aa:	32 c2       	dint			
    56ac:	03 43       	nop			
    56ae:	82 4a 32 01 	mov	r10,	&0x0132	
    56b2:	82 4d 38 01 	mov	r13,	&0x0138	
    56b6:	1a 42 3a 01 	mov	&0x013a,r10	
    56ba:	32 41       	pop	r2		
    56bc:	19 53       	inc	r9		
    56be:	02 3c       	jmp	$+6      	;abs 0x56c4
    56c0:	09 43       	clr	r9		
    56c2:	1a 43       	mov	#1,	r10	;r3 As==01
    56c4:	4e 4f       	mov.b	r15,	r14	
    56c6:	8e 11       	sxt	r14		
    56c8:	07 48       	mov	r8,	r7	
    56ca:	07 8e       	sub	r14,	r7	
    56cc:	0e 47       	mov	r7,	r14	
    56ce:	3e 53       	add	#-1,	r14	;r3 As==11
    56d0:	09 9e       	cmp	r14,	r9	
    56d2:	ea 3b       	jl	$-42     	;abs 0x56a8
    56d4:	0f 4c       	mov	r12,	r15	
    56d6:	1f 53       	inc	r15		
    56d8:	0f 8d       	sub	r13,	r15	
    56da:	02 12       	push	r2		
    56dc:	32 c2       	dint			
    56de:	03 43       	nop			
    56e0:	82 4c 32 01 	mov	r12,	&0x0132	
    56e4:	82 4a 38 01 	mov	r10,	&0x0138	
    56e8:	1c 42 3a 01 	mov	&0x013a,r12	
    56ec:	32 41       	pop	r2		
    56ee:	1e 43       	mov	#1,	r14	;r3 As==01
    56f0:	0e 8d       	sub	r13,	r14	
    56f2:	0f 8c       	sub	r12,	r15	
    56f4:	b0 12 fa bb 	call	#0xbbfa	
    56f8:	0b 93       	tst	r11		
    56fa:	01 24       	jz	$+4      	;abs 0x56fe
    56fc:	32 d2       	eint			
    56fe:	37 41       	pop	r7		
    5700:	38 41       	pop	r8		
    5702:	39 41       	pop	r9		
    5704:	3a 41       	pop	r10		
    5706:	3b 41       	pop	r11		
    5708:	30 41       	ret			

0000570a <CC2420TKN154P__CC2420Config__setChannel>:
    570a:	0e 42       	mov	r2,	r14	
    570c:	32 c2       	dint			
    570e:	03 43       	nop			
    5710:	d2 43 58 17 	mov.b	#1,	&0x1758	;r3 As==01
    5714:	c2 4f 6b 17 	mov.b	r15,	&0x176b	
    5718:	3e f2       	and	#8,	r14	;r2 As==11
    571a:	01 24       	jz	$+4      	;abs 0x571e
    571c:	32 d2       	eint			
    571e:	30 41       	ret			

00005720 <CC2420TKN154P__PIBUpdate__notify>:
    5720:	7f 90 03 00 	cmp.b	#3,	r15	;#0x0003
    5724:	6c 24       	jz	$+218    	;abs 0x57fe
    5726:	6f 92       	cmp.b	#4,	r15	;r2 As==10
    5728:	05 2c       	jc	$+12     	;abs 0x5734
    572a:	4f 93       	tst.b	r15		
    572c:	1f 24       	jz	$+64     	;abs 0x576c
    572e:	6f 93       	cmp.b	#2,	r15	;r3 As==10
    5730:	71 20       	jnz	$+228    	;abs 0x5814
    5732:	29 3c       	jmp	$+84     	;abs 0x5786
    5734:	7f 90 53 00 	cmp.b	#83,	r15	;#0x0053
    5738:	07 24       	jz	$+16     	;abs 0x5748
    573a:	7f 90 f0 ff 	cmp.b	#-16,	r15	;#0xfff0
    573e:	1a 24       	jz	$+54     	;abs 0x5774
    5740:	7f 90 50 00 	cmp.b	#80,	r15	;#0x0050
    5744:	67 20       	jnz	$+208    	;abs 0x5814
    5746:	09 3c       	jmp	$+20     	;abs 0x575a
    5748:	2e 4e       	mov	@r14,	r14	
    574a:	0f 42       	mov	r2,	r15	
    574c:	32 c2       	dint			
    574e:	03 43       	nop			
    5750:	d2 43 58 17 	mov.b	#1,	&0x1758	;r3 As==01
    5754:	82 4e 34 14 	mov	r14,	&0x1434	
    5758:	5a 3c       	jmp	$+182    	;abs 0x580e
    575a:	2e 4e       	mov	@r14,	r14	
    575c:	0f 42       	mov	r2,	r15	
    575e:	32 c2       	dint			
    5760:	03 43       	nop			
    5762:	d2 43 58 17 	mov.b	#1,	&0x1758	;r3 As==01
    5766:	82 4e 06 14 	mov	r14,	&0x1406	
    576a:	51 3c       	jmp	$+164    	;abs 0x580e
    576c:	6f 4e       	mov.b	@r14,	r15	
    576e:	b0 12 0a 57 	call	#0x570a	
    5772:	50 3c       	jmp	$+162    	;abs 0x5814
    5774:	6e 4e       	mov.b	@r14,	r14	
    5776:	0f 42       	mov	r2,	r15	
    5778:	32 c2       	dint			
    577a:	03 43       	nop			
    577c:	d2 43 58 17 	mov.b	#1,	&0x1758	;r3 As==01
    5780:	c2 4e a2 11 	mov.b	r14,	&0x11a2	
    5784:	44 3c       	jmp	$+138    	;abs 0x580e
    5786:	6f 4e       	mov.b	@r14,	r15	
    5788:	7f f0 3f 00 	and.b	#63,	r15	;#0x003f
    578c:	3f b0 20 00 	bit	#32,	r15	;#0x0020
    5790:	02 24       	jz	$+6      	;abs 0x5796
    5792:	7f d0 c0 ff 	bis.b	#-64,	r15	;#0xffc0
    5796:	8f 11       	sxt	r15		
    5798:	14 34       	jge	$+42     	;abs 0x57c2
    579a:	3f 93       	cmp	#-1,	r15	;r3 As==11
    579c:	15 24       	jz	$+44     	;abs 0x57c8
    579e:	3f 90 fd ff 	cmp	#-3,	r15	;#0xfffd
    57a2:	15 34       	jge	$+44     	;abs 0x57ce
    57a4:	3f 90 fb ff 	cmp	#-5,	r15	;#0xfffb
    57a8:	15 34       	jge	$+44     	;abs 0x57d4
    57aa:	3f 90 f8 ff 	cmp	#-8,	r15	;#0xfff8
    57ae:	15 34       	jge	$+44     	;abs 0x57da
    57b0:	3f 90 f4 ff 	cmp	#-12,	r15	;#0xfff4
    57b4:	15 34       	jge	$+44     	;abs 0x57e0
    57b6:	3f 90 ed ff 	cmp	#-19,	r15	;#0xffed
    57ba:	15 38       	jl	$+44     	;abs 0x57e6
    57bc:	7f 40 07 00 	mov.b	#7,	r15	;#0x0007
    57c0:	14 3c       	jmp	$+42     	;abs 0x57ea
    57c2:	7f 40 1f 00 	mov.b	#31,	r15	;#0x001f
    57c6:	11 3c       	jmp	$+36     	;abs 0x57ea
    57c8:	7f 40 1b 00 	mov.b	#27,	r15	;#0x001b
    57cc:	0e 3c       	jmp	$+30     	;abs 0x57ea
    57ce:	7f 40 17 00 	mov.b	#23,	r15	;#0x0017
    57d2:	0b 3c       	jmp	$+24     	;abs 0x57ea
    57d4:	7f 40 13 00 	mov.b	#19,	r15	;#0x0013
    57d8:	08 3c       	jmp	$+18     	;abs 0x57ea
    57da:	7f 40 0f 00 	mov.b	#15,	r15	;#0x000f
    57de:	05 3c       	jmp	$+12     	;abs 0x57ea
    57e0:	7f 40 0b 00 	mov.b	#11,	r15	;#0x000b
    57e4:	02 3c       	jmp	$+6      	;abs 0x57ea
    57e6:	7f 40 03 00 	mov.b	#3,	r15	;#0x0003
    57ea:	0e 42       	mov	r2,	r14	
    57ec:	32 c2       	dint			
    57ee:	03 43       	nop			
    57f0:	d2 43 58 17 	mov.b	#1,	&0x1758	;r3 As==01
    57f4:	c2 4f 0e 14 	mov.b	r15,	&0x140e	
    57f8:	3e f2       	and	#8,	r14	;r2 As==11
    57fa:	0c 24       	jz	$+26     	;abs 0x5814
    57fc:	0a 3c       	jmp	$+22     	;abs 0x5812
    57fe:	6e 4e       	mov.b	@r14,	r14	
    5800:	0f 42       	mov	r2,	r15	
    5802:	32 c2       	dint			
    5804:	03 43       	nop			
    5806:	d2 43 58 17 	mov.b	#1,	&0x1758	;r3 As==01
    580a:	c2 4e 0e 18 	mov.b	r14,	&0x180e	
    580e:	3f f2       	and	#8,	r15	;r2 As==11
    5810:	01 24       	jz	$+4      	;abs 0x5814
    5812:	32 d2       	eint			
    5814:	1f 42 18 11 	mov	&0x1118,r15	
    5818:	3f 50 fa ff 	add	#-6,	r15	;#0xfffa
    581c:	2f 93       	cmp	#2,	r15	;r3 As==10
    581e:	04 2c       	jc	$+10     	;abs 0x5828
    5820:	7f 40 1f 00 	mov.b	#31,	r15	;#0x001f
    5824:	b0 12 fa 4a 	call	#0x4afa	
    5828:	30 41       	ret			

0000582a <Msp430InterruptC__0__enable>:
    582a:	0e 42       	mov	r2,	r14	
    582c:	3e f2       	and	#8,	r14	;r2 As==11
    582e:	32 c2       	dint			
    5830:	03 43       	nop			
    5832:	f2 f0 7f 00 2d 00 	and.b	#127,	&0x002d	;#0x007f
    5838:	f2 f0 7f 00 2b 00 	and.b	#127,	&0x002b	;#0x007f
    583e:	4f 93       	tst.b	r15		
    5840:	05 24       	jz	$+12     	;abs 0x584c
    5842:	5f 42 2c 00 	mov.b	&0x002c,r15	
    5846:	7f f0 7f 00 	and.b	#127,	r15	;#0x007f
    584a:	04 3c       	jmp	$+10     	;abs 0x5854
    584c:	5f 42 2c 00 	mov.b	&0x002c,r15	
    5850:	7f d0 80 ff 	bis.b	#-128,	r15	;#0xff80
    5854:	c2 4f 2c 00 	mov.b	r15,	&0x002c	
    5858:	f2 d0 80 ff 2d 00 	bis.b	#-128,	&0x002d	;#0xff80
    585e:	0e 93       	tst	r14		
    5860:	01 24       	jz	$+4      	;abs 0x5864
    5862:	32 d2       	eint			
    5864:	0f 43       	clr	r15		
    5866:	30 41       	ret			

00005868 <BeaconTransmitP__BeaconPayloadUpdateTimer__fired>:
    5868:	0b 12       	push	r11		
    586a:	0a 12       	push	r10		
    586c:	09 12       	push	r9		
    586e:	08 12       	push	r8		
    5870:	07 12       	push	r7		
    5872:	06 12       	push	r6		
    5874:	05 12       	push	r5		
    5876:	04 12       	push	r4		
    5878:	31 82       	sub	#8,	r1	;r2 As==11
    587a:	55 42 17 12 	mov.b	&0x1217,r5	
    587e:	04 42       	mov	r2,	r4	
    5880:	34 f2       	and	#8,	r4	;r2 As==11
    5882:	32 c2       	dint			
    5884:	03 43       	nop			
    5886:	d2 93 38 18 	cmp.b	#1,	&0x1838	;r3 As==01
    588a:	06 20       	jnz	$+14     	;abs 0x5898
    588c:	04 93       	tst	r4		
    588e:	02 20       	jnz	$+6      	;abs 0x5894
    5890:	30 40 dc 5b 	br	#0x5bdc	
    5894:	30 40 68 5b 	br	#0x5b68	
    5898:	5e 42 1a 14 	mov.b	&0x141a,r14	
    589c:	2e f2       	and	#4,	r14	;r2 As==10
    589e:	b2 24       	jz	$+358    	;abs 0x5a04
    58a0:	0d 43       	clr	r13		
    58a2:	46 43       	clr.b	r6		
    58a4:	1f 4d 7c 11 	mov	4476(r13),r15	;0x117c(r13)
    58a8:	0f 93       	tst	r15		
    58aa:	39 24       	jz	$+116    	;abs 0x591e
    58ac:	2f 4f       	mov	@r15,	r15	
    58ae:	5e 4f 02 00 	mov.b	2(r15),	r14	;0x0002(r15)
    58b2:	3e f0 0c 00 	and	#12,	r14	;#0x000c
    58b6:	3e 90 0c 00 	cmp	#12,	r14	;#0x000c
    58ba:	31 20       	jnz	$+100    	;abs 0x591e
    58bc:	0a 4f       	mov	r15,	r10	
    58be:	3a 50 06 00 	add	#6,	r10	;#0x0006
    58c2:	3b 40 c0 12 	mov	#4800,	r11	;#0x12c0
    58c6:	4e 43       	clr.b	r14		
    58c8:	4c 43       	clr.b	r12		
    58ca:	0f 3c       	jmp	$+32     	;abs 0x58ea
    58cc:	0f 43       	clr	r15		
    58ce:	4e 4f       	mov.b	r15,	r14	
    58d0:	09 4a       	mov	r10,	r9	
    58d2:	09 5f       	add	r15,	r9	
    58d4:	08 4b       	mov	r11,	r8	
    58d6:	08 5f       	add	r15,	r8	
    58d8:	e8 99 43 00 	cmp.b	@r9,	67(r8)	;0x0043(r8)
    58dc:	04 20       	jnz	$+10     	;abs 0x58e6
    58de:	1f 53       	inc	r15		
    58e0:	3f 92       	cmp	#8,	r15	;r2 As==11
    58e2:	f5 23       	jnz	$-20     	;abs 0x58ce
    58e4:	7e 42       	mov.b	#8,	r14	;r2 As==11
    58e6:	5c 53       	inc.b	r12		
    58e8:	3b 82       	sub	#8,	r11	;r2 As==11
    58ea:	4c 96       	cmp.b	r6,	r12	
    58ec:	03 24       	jz	$+8      	;abs 0x58f4
    58ee:	7e 92       	cmp.b	#8,	r14	;r2 As==11
    58f0:	ed 23       	jnz	$-36     	;abs 0x58cc
    58f2:	1b 3c       	jmp	$+56     	;abs 0x592a
    58f4:	7e 92       	cmp.b	#8,	r14	;r2 As==11
    58f6:	19 24       	jz	$+52     	;abs 0x592a
    58f8:	56 53       	inc.b	r6		
    58fa:	4e 46       	mov.b	r6,	r14	
    58fc:	0f 43       	clr	r15		
    58fe:	0f 8e       	sub	r14,	r15	
    5900:	0f 5f       	rla	r15		
    5902:	0f 5f       	rla	r15		
    5904:	0f 5f       	rla	r15		
    5906:	0e 43       	clr	r14		
    5908:	3f 50 c0 12 	add	#4800,	r15	;#0x12c0
    590c:	0b 4a       	mov	r10,	r11	
    590e:	0b 5e       	add	r14,	r11	
    5910:	0c 4f       	mov	r15,	r12	
    5912:	0c 5e       	add	r14,	r12	
    5914:	ec 4b 4b 00 	mov.b	@r11,	75(r12)	;0x004b(r12)
    5918:	1e 53       	inc	r14		
    591a:	3e 92       	cmp	#8,	r14	;r2 As==11
    591c:	f7 23       	jnz	$-16     	;abs 0x590c
    591e:	3d 90 0c 00 	cmp	#12,	r13	;#0x000c
    5922:	03 24       	jz	$+8      	;abs 0x592a
    5924:	2d 53       	incd	r13		
    5926:	76 92       	cmp.b	#8,	r6	;r2 As==11
    5928:	bd 2b       	jnc	$-132    	;abs 0x58a4
    592a:	4f 46       	mov.b	r6,	r15	
    592c:	0e 43       	clr	r14		
    592e:	0e 8f       	sub	r15,	r14	
    5930:	0e 5e       	rla	r14		
    5932:	0e 5e       	rla	r14		
    5934:	0e 5e       	rla	r14		
    5936:	3e 50 0b 13 	add	#4875,	r14	;#0x130b
    593a:	07 43       	clr	r7		
    593c:	48 43       	clr.b	r8		
    593e:	0b 4e       	mov	r14,	r11	
    5940:	2b 83       	decd	r11		
    5942:	81 4b 06 00 	mov	r11,	6(r1)	;0x0006(r1)
    5946:	81 4f 04 00 	mov	r15,	4(r1)	;0x0004(r1)
    594a:	1d 47 7c 11 	mov	4476(r7),r13	;0x117c(r7)
    594e:	0d 93       	tst	r13		
    5950:	2f 24       	jz	$+96     	;abs 0x59b0
    5952:	2c 4d       	mov	@r13,	r12	
    5954:	5d 4c 02 00 	mov.b	2(r12),	r13	;0x0002(r12)
    5958:	3d f0 0c 00 	and	#12,	r13	;#0x000c
    595c:	3d 92       	cmp	#8,	r13	;r2 As==11
    595e:	28 20       	jnz	$+82     	;abs 0x59b0
    5960:	5d 4c 07 00 	mov.b	7(r12),	r13	;0x0007(r12)
    5964:	8d 10       	swpb	r13		
    5966:	5c 4c 06 00 	mov.b	6(r12),	r12	;0x0006(r12)
    596a:	0d dc       	bis	r12,	r13	
    596c:	0c 4d       	mov	r13,	r12	
    596e:	8c 10       	swpb	r12		
    5970:	4a 4c       	mov.b	r12,	r10	
    5972:	8a 10       	swpb	r10		
    5974:	4d 4d       	mov.b	r13,	r13	
    5976:	0a dd       	bis	r13,	r10	
    5978:	1f 41 06 00 	mov	6(r1),	r15	;0x0006(r1)
    597c:	49 43       	clr.b	r9		
    597e:	0a 3c       	jmp	$+22     	;abs 0x5994
    5980:	0c 4f       	mov	r15,	r12	
    5982:	2f 83       	decd	r15		
    5984:	5d 4c 01 00 	mov.b	1(r12),	r13	;0x0001(r12)
    5988:	8d 10       	swpb	r13		
    598a:	6c 4c       	mov.b	@r12,	r12	
    598c:	0d dc       	bis	r12,	r13	
    598e:	0a 9d       	cmp	r13,	r10	
    5990:	16 24       	jz	$+46     	;abs 0x59be
    5992:	59 53       	inc.b	r9		
    5994:	49 98       	cmp.b	r8,	r9	
    5996:	f4 23       	jnz	$-22     	;abs 0x5980
    5998:	58 53       	inc.b	r8		
    599a:	4b 48       	mov.b	r8,	r11	
    599c:	0d 43       	clr	r13		
    599e:	0d 8b       	sub	r11,	r13	
    59a0:	0d 5d       	rla	r13		
    59a2:	0d 5e       	add	r14,	r13	
    59a4:	cd 4a 00 00 	mov.b	r10,	0(r13)	;0x0000(r13)
    59a8:	0c 4a       	mov	r10,	r12	
    59aa:	8c 10       	swpb	r12		
    59ac:	cd 4c 01 00 	mov.b	r12,	1(r13)	;0x0001(r13)
    59b0:	37 90 0c 00 	cmp	#12,	r7	;#0x000c
    59b4:	04 24       	jz	$+10     	;abs 0x59be
    59b6:	27 53       	incd	r7		
    59b8:	78 90 07 00 	cmp.b	#7,	r8	;#0x0007
    59bc:	c6 2b       	jnc	$-114    	;abs 0x594a
    59be:	1f 41 04 00 	mov	4(r1),	r15	;0x0004(r1)
    59c2:	4d 48       	mov.b	r8,	r13	
    59c4:	0e 43       	clr	r14		
    59c6:	0e 8f       	sub	r15,	r14	
    59c8:	0e 5e       	rla	r14		
    59ca:	0e 5e       	rla	r14		
    59cc:	0e 8d       	sub	r13,	r14	
    59ce:	0e 5e       	rla	r14		
    59d0:	0f 5f       	rla	r15		
    59d2:	0f 5f       	rla	r15		
    59d4:	0f 5f       	rla	r15		
    59d6:	0f 5f       	rla	r15		
    59d8:	48 df       	bis.b	r15,	r8	
    59da:	ce 48 0a 13 	mov.b	r8,	4874(r14);0x130a(r14)
    59de:	4f 46       	mov.b	r6,	r15	
    59e0:	0f 5f       	rla	r15		
    59e2:	0f 5f       	rla	r15		
    59e4:	4f 5d       	add.b	r13,	r15	
    59e6:	4f 5f       	rla.b	r15		
    59e8:	5f 53       	inc.b	r15		
    59ea:	4d 4f       	mov.b	r15,	r13	
    59ec:	3e 40 0b 13 	mov	#4875,	r14	;#0x130b
    59f0:	0e 8d       	sub	r13,	r14	
    59f2:	5f 92 52 17 	cmp.b	&0x1752,r15	
    59f6:	0b 24       	jz	$+24     	;abs 0x5a0e
    59f8:	c2 4f 52 17 	mov.b	r15,	&0x1752	
    59fc:	f2 d0 0f 00 1a 14 	bis.b	#15,	&0x141a	;#0x000f
    5a02:	05 3c       	jmp	$+12     	;abs 0x5a0e
    5a04:	5f 42 52 17 	mov.b	&0x1752,r15	
    5a08:	3e 40 0b 13 	mov	#4875,	r14	;#0x130b
    5a0c:	0e 8f       	sub	r15,	r14	
    5a0e:	59 42 1a 14 	mov.b	&0x141a,r9	
    5a12:	29 b3       	bit	#2,	r9	;r3 As==10
    5a14:	46 24       	jz	$+142    	;abs 0x5aa2
    5a16:	0a 4e       	mov	r14,	r10	
    5a18:	0f 4e       	mov	r14,	r15	
    5a1a:	8f 10       	swpb	r15		
    5a1c:	8f 11       	sxt	r15		
    5a1e:	8f 10       	swpb	r15		
    5a20:	8f 11       	sxt	r15		
    5a22:	0b 4f       	mov	r15,	r11	
    5a24:	3c 40 c0 12 	mov	#4800,	r12	;#0x12c0
    5a28:	0f 4c       	mov	r12,	r15	
    5a2a:	8f 10       	swpb	r15		
    5a2c:	8f 11       	sxt	r15		
    5a2e:	8f 10       	swpb	r15		
    5a30:	8f 11       	sxt	r15		
    5a32:	0d 4f       	mov	r15,	r13	
    5a34:	0a 8c       	sub	r12,	r10	
    5a36:	0b 7d       	subc	r13,	r11	
    5a38:	4a 93       	tst.b	r10		
    5a3a:	04 24       	jz	$+10     	;abs 0x5a44
    5a3c:	ce 43 ff ff 	mov.b	#0,	-1(r14)	;r3 As==00, 0xffff(r14)
    5a40:	5d 43       	mov.b	#1,	r13	;r3 As==01
    5a42:	01 3c       	jmp	$+4      	;abs 0x5a46
    5a44:	4d 43       	clr.b	r13		
    5a46:	4f 4d       	mov.b	r13,	r15	
    5a48:	0e 8f       	sub	r15,	r14	
    5a4a:	6a 4e       	mov.b	@r14,	r10	
    5a4c:	3a f0 07 00 	and	#7,	r10	;#0x0007
    5a50:	45 43       	clr.b	r5		
    5a52:	4b 43       	clr.b	r11		
    5a54:	10 3c       	jmp	$+34     	;abs 0x5a76
    5a56:	0f 4c       	mov	r12,	r15	
    5a58:	0f 5f       	rla	r15		
    5a5a:	0f 5c       	add	r12,	r15	
    5a5c:	0f 5e       	add	r14,	r15	
    5a5e:	5f 4f 04 00 	mov.b	4(r15),	r15	;0x0004(r15)
    5a62:	12 c3       	clrc			
    5a64:	4f 10       	rrc.b	r15		
    5a66:	12 c3       	clrc			
    5a68:	4f 10       	rrc.b	r15		
    5a6a:	12 c3       	clrc			
    5a6c:	4f 10       	rrc.b	r15		
    5a6e:	12 c3       	clrc			
    5a70:	4f 10       	rrc.b	r15		
    5a72:	45 5f       	add.b	r15,	r5	
    5a74:	5b 53       	inc.b	r11		
    5a76:	4c 4b       	mov.b	r11,	r12	
    5a78:	0c 9a       	cmp	r10,	r12	
    5a7a:	ed 3b       	jl	$-36     	;abs 0x5a56
    5a7c:	5d 92 bc 11 	cmp.b	&0x11bc,r13	
    5a80:	09 20       	jnz	$+20     	;abs 0x5a94
    5a82:	4f 45       	mov.b	r5,	r15	
    5a84:	3c 40 0f 00 	mov	#15,	r12	;#0x000f
    5a88:	0c 8f       	sub	r15,	r12	
    5a8a:	5f 42 cc 11 	mov.b	&0x11cc,r15	
    5a8e:	3f 53       	add	#-1,	r15	;r3 As==11
    5a90:	0c 9f       	cmp	r15,	r12	
    5a92:	0a 24       	jz	$+22     	;abs 0x5aa8
    5a94:	c2 4d bc 11 	mov.b	r13,	&0x11bc	
    5a98:	79 d0 0f 00 	bis.b	#15,	r9	;#0x000f
    5a9c:	c2 49 1a 14 	mov.b	r9,	&0x141a	
    5aa0:	03 3c       	jmp	$+8      	;abs 0x5aa8
    5aa2:	5f 42 bc 11 	mov.b	&0x11bc,r15	
    5aa6:	0e 8f       	sub	r15,	r14	
    5aa8:	0c 4e       	mov	r14,	r12	
    5aaa:	2c 83       	decd	r12		
    5aac:	5d 42 1a 14 	mov.b	&0x141a,r13	
    5ab0:	1d b3       	bit	#1,	r13	;r3 As==01
    5ab2:	1e 24       	jz	$+62     	;abs 0x5af0
    5ab4:	5f 42 86 15 	mov.b	&0x1586,r15	
    5ab8:	0f 5f       	rla	r15		
    5aba:	0f 5f       	rla	r15		
    5abc:	0f 5f       	rla	r15		
    5abe:	0f 5f       	rla	r15		
    5ac0:	5b 42 cc 17 	mov.b	&0x17cc,r11	
    5ac4:	4b df       	bis.b	r15,	r11	
    5ac6:	ce 4b fe ff 	mov.b	r11,	-2(r14)	;0xfffe(r14)
    5aca:	ce 43 ff ff 	mov.b	#0,	-1(r14)	;r3 As==00, 0xffff(r14)
    5ace:	c2 93 d6 13 	tst.b	&0x13d6	
    5ad2:	03 24       	jz	$+8      	;abs 0x5ada
    5ad4:	fe 40 80 ff ff ff 	mov.b	#-128,	-1(r14)	;#0xff80, 0xffff(r14)
    5ada:	c2 93 de 13 	tst.b	&0x13de	
    5ade:	03 24       	jz	$+8      	;abs 0x5ae6
    5ae0:	fe d0 40 00 ff ff 	bis.b	#64,	-1(r14)	;#0x0040, 0xffff(r14)
    5ae6:	7f 40 0f 00 	mov.b	#15,	r15	;#0x000f
    5aea:	4f c5       	bic.b	r5,	r15	
    5aec:	ce df ff ff 	bis.b	r15,	-1(r14)	;0xffff(r14)
    5af0:	5f 42 52 17 	mov.b	&0x1752,r15	
    5af4:	5f 52 bc 11 	add.b	&0x11bc,r15	
    5af8:	6f 53       	incd.b	r15		
    5afa:	5f 52 fb 14 	add.b	&0x14fb,r15	
    5afe:	c2 4f 4d 15 	mov.b	r15,	&0x154d	
    5b02:	82 4c 48 15 	mov	r12,	&0x1548	
    5b06:	7d f0 f0 ff 	and.b	#-16,	r13	;#0xfff0
    5b0a:	c2 4d 1a 14 	mov.b	r13,	&0x141a	
    5b0e:	04 93       	tst	r4		
    5b10:	01 24       	jz	$+4      	;abs 0x5b14
    5b12:	32 d2       	eint			
    5b14:	d2 93 e6 14 	cmp.b	#1,	&0x14e6	;r3 As==01
    5b18:	17 20       	jnz	$+48     	;abs 0x5b48
    5b1a:	91 42 0c 11 00 00 	mov	&0x110c,0(r1)	;0x0000(r1)
    5b20:	d1 42 52 11 02 00 	mov.b	&0x1152,2(r1)	;0x0002(r1)
    5b26:	c1 43 03 00 	mov.b	#0,	3(r1)	;r3 As==00, 0x0003(r1)
    5b2a:	5f 42 1a 14 	mov.b	&0x141a,r15	
    5b2e:	3f b0 10 00 	bit	#16,	r15	;#0x0010
    5b32:	0a 20       	jnz	$+22     	;abs 0x5b48
    5b34:	82 41 0a 12 	mov	r1,	&0x120a	
    5b38:	e2 42 fa 14 	mov.b	#4,	&0x14fa	;r2 As==10
    5b3c:	c2 43 a1 11 	mov.b	#0,	&0x11a1	;r3 As==00
    5b40:	7f d0 30 00 	bis.b	#48,	r15	;#0x0030
    5b44:	c2 4f 1a 14 	mov.b	r15,	&0x141a	
    5b48:	1f 42 46 15 	mov	&0x1546,r15	
    5b4c:	5d 42 e6 13 	mov.b	&0x13e6,r13	
    5b50:	5d 53       	inc.b	r13		
    5b52:	cf 4d 03 00 	mov.b	r13,	3(r15)	;0x0003(r15)
    5b56:	0a 42       	mov	r2,	r10	
    5b58:	3a f2       	and	#8,	r10	;r2 As==11
    5b5a:	32 c2       	dint			
    5b5c:	03 43       	nop			
    5b5e:	d2 93 38 18 	cmp.b	#1,	&0x1838	;r3 As==01
    5b62:	04 20       	jnz	$+10     	;abs 0x5b6c
    5b64:	0a 93       	tst	r10		
    5b66:	3a 24       	jz	$+118    	;abs 0x5bdc
    5b68:	32 d2       	eint			
    5b6a:	38 3c       	jmp	$+114    	;abs 0x5bdc
    5b6c:	5b 42 1a 14 	mov.b	&0x141a,r11	
    5b70:	3b b0 10 00 	bit	#16,	r11	;#0x0010
    5b74:	18 24       	jz	$+50     	;abs 0x5ba6
    5b76:	59 42 fa 14 	mov.b	&0x14fa,r9	
    5b7a:	58 42 a1 11 	mov.b	&0x11a1,r8	
    5b7e:	4f 48       	mov.b	r8,	r15	
    5b80:	3f 50 4b 00 	add	#75,	r15	;#0x004b
    5b84:	4d 49       	mov.b	r9,	r13	
    5b86:	1e 42 0a 12 	mov	&0x120a,r14	
    5b8a:	3f 50 c0 12 	add	#4800,	r15	;#0x12c0
    5b8e:	b0 12 74 bc 	call	#0xbc74	
    5b92:	4f 4b       	mov.b	r11,	r15	
    5b94:	7f f0 f0 ff 	and.b	#-16,	r15	;#0xfff0
    5b98:	3f b0 20 00 	bit	#32,	r15	;#0x0020
    5b9c:	05 24       	jz	$+12     	;abs 0x5ba8
    5b9e:	48 59       	add.b	r9,	r8	
    5ba0:	c2 48 fb 14 	mov.b	r8,	&0x14fb	
    5ba4:	01 3c       	jmp	$+4      	;abs 0x5ba8
    5ba6:	4f 43       	clr.b	r15		
    5ba8:	5e 42 52 17 	mov.b	&0x1752,r14	
    5bac:	5e 52 bc 11 	add.b	&0x11bc,r14	
    5bb0:	6e 53       	incd.b	r14		
    5bb2:	5e 52 fb 14 	add.b	&0x14fb,r14	
    5bb6:	c2 4e 4d 15 	mov.b	r14,	&0x154d	
    5bba:	7b f0 0f 00 	and.b	#15,	r11	;#0x000f
    5bbe:	c2 4b 1a 14 	mov.b	r11,	&0x141a	
    5bc2:	0a 93       	tst	r10		
    5bc4:	01 24       	jz	$+4      	;abs 0x5bc8
    5bc6:	32 d2       	eint			
    5bc8:	4f 93       	tst.b	r15		
    5bca:	08 24       	jz	$+18     	;abs 0x5bdc
    5bcc:	3f f0 20 00 	and	#32,	r15	;#0x0020
    5bd0:	05 24       	jz	$+12     	;abs 0x5bdc
    5bd2:	d2 93 e6 14 	cmp.b	#1,	&0x14e6	;r3 As==01
    5bd6:	02 20       	jnz	$+6      	;abs 0x5bdc
    5bd8:	c2 43 e6 14 	mov.b	#0,	&0x14e6	;r3 As==00
    5bdc:	31 52       	add	#8,	r1	;r2 As==11
    5bde:	34 41       	pop	r4		
    5be0:	35 41       	pop	r5		
    5be2:	36 41       	pop	r6		
    5be4:	37 41       	pop	r7		
    5be6:	38 41       	pop	r8		
    5be8:	39 41       	pop	r9		
    5bea:	3a 41       	pop	r10		
    5bec:	3b 41       	pop	r11		
    5bee:	30 41       	ret			

00005bf0 <CC2420ControlP__CC2420Power__rssi>:
    5bf0:	0b 12       	push	r11		
    5bf2:	0a 12       	push	r10		
    5bf4:	09 12       	push	r9		
    5bf6:	08 12       	push	r8		
    5bf8:	09 4f       	mov	r15,	r9	
    5bfa:	0a 42       	mov	r2,	r10	
    5bfc:	3a f2       	and	#8,	r10	;r2 As==11
    5bfe:	32 c2       	dint			
    5c00:	03 43       	nop			
    5c02:	b0 12 44 4b 	call	#0x4b44	
    5c06:	4f 93       	tst.b	r15		
    5c08:	22 24       	jz	$+70     	;abs 0x5c4e
    5c0a:	b0 12 74 46 	call	#0x4674	
    5c0e:	b0 12 7a 46 	call	#0x467a	
    5c12:	c2 93 b7 16 	tst.b	&0x16b7	
    5c16:	10 24       	jz	$+34     	;abs 0x5c38
    5c18:	7f 40 53 00 	mov.b	#83,	r15	;#0x0053
    5c1c:	b0 12 38 46 	call	#0x4638	
    5c20:	48 4f       	mov.b	r15,	r8	
    5c22:	4f 43       	clr.b	r15		
    5c24:	b0 12 38 46 	call	#0x4638	
    5c28:	4b 4f       	mov.b	r15,	r11	
    5c2a:	8b 10       	swpb	r11		
    5c2c:	4f 43       	clr.b	r15		
    5c2e:	b0 12 38 46 	call	#0x4638	
    5c32:	4e 4f       	mov.b	r15,	r14	
    5c34:	0b de       	bis	r14,	r11	
    5c36:	01 3c       	jmp	$+4      	;abs 0x5c3a
    5c38:	48 43       	clr.b	r8		
    5c3a:	b0 12 74 46 	call	#0x4674	
    5c3e:	28 f3       	and	#2,	r8	;r3 As==10
    5c40:	06 24       	jz	$+14     	;abs 0x5c4e
    5c42:	c9 4b 00 00 	mov.b	r11,	0(r9)	;0x0000(r9)
    5c46:	0a 93       	tst	r10		
    5c48:	06 24       	jz	$+14     	;abs 0x5c56
    5c4a:	32 d2       	eint			
    5c4c:	04 3c       	jmp	$+10     	;abs 0x5c56
    5c4e:	0a 93       	tst	r10		
    5c50:	04 24       	jz	$+10     	;abs 0x5c5a
    5c52:	32 d2       	eint			
    5c54:	02 3c       	jmp	$+6      	;abs 0x5c5a
    5c56:	0f 43       	clr	r15		
    5c58:	01 3c       	jmp	$+4      	;abs 0x5c5c
    5c5a:	1f 43       	mov	#1,	r15	;r3 As==01
    5c5c:	38 41       	pop	r8		
    5c5e:	39 41       	pop	r9		
    5c60:	3a 41       	pop	r10		
    5c62:	3b 41       	pop	r11		
    5c64:	30 41       	ret			

00005c66 <CC2420ControlP__RSTN__clr>:
    5c66:	0f 42       	mov	r2,	r15	
    5c68:	32 c2       	dint			
    5c6a:	03 43       	nop			
    5c6c:	f2 f0 bf ff 1d 00 	and.b	#-65,	&0x001d	;#0xffbf
    5c72:	3f f2       	and	#8,	r15	;r2 As==11
    5c74:	01 24       	jz	$+4      	;abs 0x5c78
    5c76:	32 d2       	eint			
    5c78:	30 41       	ret			

00005c7a <CC2420ControlP__RSTN__set>:
    5c7a:	0f 42       	mov	r2,	r15	
    5c7c:	32 c2       	dint			
    5c7e:	03 43       	nop			
    5c80:	f2 d0 40 00 1d 00 	bis.b	#64,	&0x001d	;#0x0040
    5c86:	3f f2       	and	#8,	r15	;r2 As==11
    5c88:	01 24       	jz	$+4      	;abs 0x5c8c
    5c8a:	32 d2       	eint			
    5c8c:	30 41       	ret			

00005c8e <HplMsp430Usart0P__Usart__resetUsart>:
    5c8e:	4f 93       	tst.b	r15		
    5c90:	03 24       	jz	$+8      	;abs 0x5c98
    5c92:	d2 43 70 00 	mov.b	#1,	&0x0070	;r3 As==01
    5c96:	30 41       	ret			
    5c98:	f2 f0 fe ff 70 00 	and.b	#-2,	&0x0070	;#0xfffe
    5c9e:	30 41       	ret			

00005ca0 <SchedulerBasicP__popTask.part.118>:
    5ca0:	5f 42 fd 17 	mov.b	&0x17fd,r15	
    5ca4:	4e 4f       	mov.b	r15,	r14	
    5ca6:	3e 50 ce 11 	add	#4558,	r14	;#0x11ce
    5caa:	6d 4e       	mov.b	@r14,	r13	
    5cac:	c2 4d fd 17 	mov.b	r13,	&0x17fd	
    5cb0:	7d 93       	cmp.b	#-1,	r13	;r3 As==11
    5cb2:	02 20       	jnz	$+6      	;abs 0x5cb8
    5cb4:	f2 43 30 18 	mov.b	#-1,	&0x1830	;r3 As==11
    5cb8:	fe 43 00 00 	mov.b	#-1,	0(r14)	;r3 As==11, 0x0000(r14)
    5cbc:	30 41       	ret			

00005cbe <Msp430TimerP__0__Event__fired>:
    5cbe:	5f 93       	cmp.b	#1,	r15	;r3 As==01
    5cc0:	0c 24       	jz	$+26     	;abs 0x5cda
    5cc2:	03 28       	jnc	$+8      	;abs 0x5cca
    5cc4:	6f 93       	cmp.b	#2,	r15	;r3 As==10
    5cc6:	18 20       	jnz	$+50     	;abs 0x5cf8
    5cc8:	10 3c       	jmp	$+34     	;abs 0x5cea
    5cca:	1f 42 62 01 	mov	&0x0162,r15	
    5cce:	8f 10       	swpb	r15		
    5cd0:	5f f3       	and.b	#1,	r15	;r3 As==01
    5cd2:	12 24       	jz	$+38     	;abs 0x5cf8
    5cd4:	1f 42 72 01 	mov	&0x0172,r15	
    5cd8:	30 41       	ret			
    5cda:	1f 42 64 01 	mov	&0x0164,r15	
    5cde:	8f 10       	swpb	r15		
    5ce0:	5f f3       	and.b	#1,	r15	;r3 As==01
    5ce2:	0a 24       	jz	$+22     	;abs 0x5cf8
    5ce4:	1f 42 74 01 	mov	&0x0174,r15	
    5ce8:	30 41       	ret			
    5cea:	1f 42 66 01 	mov	&0x0166,r15	
    5cee:	8f 10       	swpb	r15		
    5cf0:	5f f3       	and.b	#1,	r15	;r3 As==01
    5cf2:	02 24       	jz	$+6      	;abs 0x5cf8
    5cf4:	1f 42 76 01 	mov	&0x0176,r15	
    5cf8:	30 41       	ret			

00005cfa <ArbiterP__0__ResourceConfigure__unconfigure.part.128>:
    5cfa:	5f 43       	mov.b	#1,	r15	;r3 As==01
    5cfc:	b0 12 8e 5c 	call	#0x5c8e	
    5d00:	f2 f0 bf ff 04 00 	and.b	#-65,	&0x0004	;#0xffbf
    5d06:	3f 40 1b 00 	mov	#27,	r15	;#0x001b
    5d0a:	ff f0 fd ff 00 00 	and.b	#-3,	0(r15)	;#0xfffd, 0x0000(r15)
    5d10:	ff f0 fb ff 00 00 	and.b	#-5,	0(r15)	;#0xfffb, 0x0000(r15)
    5d16:	ff f0 f7 ff 00 00 	and.b	#-9,	0(r15)	;#0xfff7, 0x0000(r15)
    5d1c:	30 41       	ret			

00005d1e <ArbiterP__0__Queue__dequeue.part.129>:
    5d1e:	5f 42 03 11 	mov.b	&0x1103,r15	
    5d22:	4e 4f       	mov.b	r15,	r14	
    5d24:	5d 4e 16 12 	mov.b	4630(r14),r13	;0x1216(r14)
    5d28:	c2 4d 03 11 	mov.b	r13,	&0x1103	
    5d2c:	7d 93       	cmp.b	#-1,	r13	;r3 As==11
    5d2e:	02 20       	jnz	$+6      	;abs 0x5d34
    5d30:	f2 43 02 11 	mov.b	#-1,	&0x1102	;r3 As==11
    5d34:	fe 43 16 12 	mov.b	#-1,	4630(r14);r3 As==11, 0x1216(r14)
    5d38:	30 41       	ret			

00005d3a <CC2420SpiP__Reg__write>:
    5d3a:	0b 12       	push	r11		
    5d3c:	0b 4e       	mov	r14,	r11	
    5d3e:	c2 93 b7 16 	tst.b	&0x16b7	
    5d42:	0a 24       	jz	$+22     	;abs 0x5d58
    5d44:	b0 12 38 46 	call	#0x4638	
    5d48:	0f 4b       	mov	r11,	r15	
    5d4a:	8f 10       	swpb	r15		
    5d4c:	b0 12 38 46 	call	#0x4638	
    5d50:	4f 4b       	mov.b	r11,	r15	
    5d52:	b0 12 38 46 	call	#0x4638	
    5d56:	01 3c       	jmp	$+4      	;abs 0x5d5a
    5d58:	4f 43       	clr.b	r15		
    5d5a:	3b 41       	pop	r11		
    5d5c:	30 41       	ret			

00005d5e <CC2420ControlP__writeFsctrl>:
    5d5e:	5e 42 6b 17 	mov.b	&0x176b,r14	
    5d62:	0f 4e       	mov	r14,	r15	
    5d64:	0f 5f       	rla	r15		
    5d66:	0f 5f       	rla	r15		
    5d68:	0f 5e       	add	r14,	r15	
    5d6a:	3f 50 2e 01 	add	#302,	r15	;#0x012e
    5d6e:	0e 4f       	mov	r15,	r14	
    5d70:	3e d0 00 40 	bis	#16384,	r14	;#0x4000
    5d74:	7f 40 18 00 	mov.b	#24,	r15	;#0x0018
    5d78:	b0 12 3a 5d 	call	#0x5d3a	
    5d7c:	30 41       	ret			

00005d7e <CC2420ControlP__writeMdmctrl0>:
    5d7e:	0b 12       	push	r11		
    5d80:	0a 12       	push	r10		
    5d82:	5e 42 0e 15 	mov.b	&0x150e,r14	
    5d86:	5c 42 a2 11 	mov.b	&0x11a2,r12	
    5d8a:	5b 42 0c 12 	mov.b	&0x120c,r11	
    5d8e:	c2 93 0f 14 	tst.b	&0x140f	
    5d92:	04 24       	jz	$+10     	;abs 0x5d9c
    5d94:	1d 43       	mov	#1,	r13	;r3 As==01
    5d96:	c2 93 59 17 	tst.b	&0x1759	
    5d9a:	01 20       	jnz	$+4      	;abs 0x5d9e
    5d9c:	0d 43       	clr	r13		
    5d9e:	1f 43       	mov	#1,	r15	;r3 As==01
    5da0:	4e 93       	tst.b	r14		
    5da2:	01 20       	jnz	$+4      	;abs 0x5da6
    5da4:	0f 43       	clr	r15		
    5da6:	8f 10       	swpb	r15		
    5da8:	0f 5f       	rla	r15		
    5daa:	0f 5f       	rla	r15		
    5dac:	0f 5f       	rla	r15		
    5dae:	0f 5f       	rla	r15		
    5db0:	0f 5f       	rla	r15		
    5db2:	1e 43       	mov	#1,	r14	;r3 As==01
    5db4:	4c 93       	tst.b	r12		
    5db6:	01 20       	jnz	$+4      	;abs 0x5dba
    5db8:	0e 43       	clr	r14		
    5dba:	8e 10       	swpb	r14		
    5dbc:	0e 5e       	rla	r14		
    5dbe:	0e 5e       	rla	r14		
    5dc0:	0e 5e       	rla	r14		
    5dc2:	0e 5e       	rla	r14		
    5dc4:	0f de       	bis	r14,	r15	
    5dc6:	3f d0 22 02 	bis	#546,	r15	;#0x0222
    5dca:	1c 43       	mov	#1,	r12	;r3 As==01
    5dcc:	4b 93       	tst.b	r11		
    5dce:	01 20       	jnz	$+4      	;abs 0x5dd2
    5dd0:	0c 43       	clr	r12		
    5dd2:	8c 10       	swpb	r12		
    5dd4:	0c 5c       	rla	r12		
    5dd6:	0c 5c       	rla	r12		
    5dd8:	0c 5c       	rla	r12		
    5dda:	0f dc       	bis	r12,	r15	
    5ddc:	5b 42 0e 18 	mov.b	&0x180e,r11	
    5de0:	7a 40 06 00 	mov.b	#6,	r10	;#0x0006
    5de4:	0b 5b       	rla	r11		
    5de6:	7a 53       	add.b	#-1,	r10	;r3 As==11
    5de8:	fd 23       	jnz	$-4      	;abs 0x5de4
    5dea:	0e 4f       	mov	r15,	r14	
    5dec:	0e db       	bis	r11,	r14	
    5dee:	4d 4d       	mov.b	r13,	r13	
    5df0:	0d 5d       	rla	r13		
    5df2:	0d 5d       	rla	r13		
    5df4:	0d 5d       	rla	r13		
    5df6:	0d 5d       	rla	r13		
    5df8:	0e dd       	bis	r13,	r14	
    5dfa:	7f 40 11 00 	mov.b	#17,	r15	;#0x0011
    5dfe:	b0 12 3a 5d 	call	#0x5d3a	
    5e02:	3a 41       	pop	r10		
    5e04:	3b 41       	pop	r11		
    5e06:	30 41       	ret			

00005e08 <CC2420ControlP__writeId>:
    5e08:	0b 12       	push	r11		
    5e0a:	31 50 f4 ff 	add	#-12,	r1	;#0xfff4
    5e0e:	0f 41       	mov	r1,	r15	
    5e10:	b0 12 ee 45 	call	#0x45ee	
    5e14:	1f 42 06 14 	mov	&0x1406,r15	
    5e18:	c1 4f 08 00 	mov.b	r15,	8(r1)	;0x0008(r1)
    5e1c:	0e 4f       	mov	r15,	r14	
    5e1e:	8e 10       	swpb	r14		
    5e20:	c1 4e 09 00 	mov.b	r14,	9(r1)	;0x0009(r1)
    5e24:	1e 42 34 14 	mov	&0x1434,r14	
    5e28:	c1 4e 0a 00 	mov.b	r14,	10(r1)	;0x000a(r1)
    5e2c:	8e 10       	swpb	r14		
    5e2e:	c1 4e 0b 00 	mov.b	r14,	11(r1)	;0x000b(r1)
    5e32:	1e 43       	mov	#1,	r14	;r3 As==01
    5e34:	3f 93       	cmp	#-1,	r15	;r3 As==11
    5e36:	01 24       	jz	$+4      	;abs 0x5e3a
    5e38:	0e 43       	clr	r14		
    5e3a:	8e 10       	swpb	r14		
    5e3c:	0e 5e       	rla	r14		
    5e3e:	0e 5e       	rla	r14		
    5e40:	0e 5e       	rla	r14		
    5e42:	3e d0 7f 02 	bis	#639,	r14	;#0x027f
    5e46:	7f 40 1c 00 	mov.b	#28,	r15	;#0x001c
    5e4a:	b0 12 3a 5d 	call	#0x5d3a	
    5e4e:	c2 93 b7 16 	tst.b	&0x16b7	
    5e52:	12 24       	jz	$+38     	;abs 0x5e78
    5e54:	7f 40 e0 ff 	mov.b	#-32,	r15	;#0xffe0
    5e58:	b0 12 38 46 	call	#0x4638	
    5e5c:	7f 40 80 ff 	mov.b	#-128,	r15	;#0xff80
    5e60:	b0 12 38 46 	call	#0x4638	
    5e64:	0b 43       	clr	r11		
    5e66:	0f 41       	mov	r1,	r15	
    5e68:	0f 5b       	add	r11,	r15	
    5e6a:	6f 4f       	mov.b	@r15,	r15	
    5e6c:	b0 12 38 46 	call	#0x4638	
    5e70:	1b 53       	inc	r11		
    5e72:	3b 90 0c 00 	cmp	#12,	r11	;#0x000c
    5e76:	f7 23       	jnz	$-16     	;abs 0x5e66
    5e78:	31 50 0c 00 	add	#12,	r1	;#0x000c
    5e7c:	3b 41       	pop	r11		
    5e7e:	30 41       	ret			

00005e80 <CC2420TKN154P__CC2420Config__sync>:
    5e80:	0b 12       	push	r11		
    5e82:	0b 42       	mov	r2,	r11	
    5e84:	3b f2       	and	#8,	r11	;r2 As==11
    5e86:	32 c2       	dint			
    5e88:	03 43       	nop			
    5e8a:	b0 12 44 4b 	call	#0x4b44	
    5e8e:	4f 93       	tst.b	r15		
    5e90:	04 20       	jnz	$+10     	;abs 0x5e9a
    5e92:	0b 93       	tst	r11		
    5e94:	2b 24       	jz	$+88     	;abs 0x5eec
    5e96:	32 d2       	eint			
    5e98:	29 3c       	jmp	$+84     	;abs 0x5eec
    5e9a:	c2 93 58 17 	tst.b	&0x1758	
    5e9e:	22 24       	jz	$+70     	;abs 0x5ee4
    5ea0:	b0 12 74 46 	call	#0x4674	
    5ea4:	b0 12 7a 46 	call	#0x467a	
    5ea8:	7f 40 06 00 	mov.b	#6,	r15	;#0x0006
    5eac:	b0 12 e4 46 	call	#0x46e4	
    5eb0:	b0 12 74 46 	call	#0x4674	
    5eb4:	b0 12 7a 46 	call	#0x467a	
    5eb8:	b0 12 5e 5d 	call	#0x5d5e	
    5ebc:	b0 12 7e 5d 	call	#0x5d7e	
    5ec0:	5e 42 0e 14 	mov.b	&0x140e,r14	
    5ec4:	3e d0 e0 80 	bis	#-32544,r14	;#0x80e0
    5ec8:	7f 40 15 00 	mov.b	#21,	r15	;#0x0015
    5ecc:	b0 12 3a 5d 	call	#0x5d3a	
    5ed0:	b0 12 74 46 	call	#0x4674	
    5ed4:	b0 12 7a 46 	call	#0x467a	
    5ed8:	b0 12 08 5e 	call	#0x5e08	
    5edc:	b0 12 74 46 	call	#0x4674	
    5ee0:	c2 43 58 17 	mov.b	#0,	&0x1758	;r3 As==00
    5ee4:	0b 93       	tst	r11		
    5ee6:	04 24       	jz	$+10     	;abs 0x5ef0
    5ee8:	32 d2       	eint			
    5eea:	02 3c       	jmp	$+6      	;abs 0x5ef0
    5eec:	1f 43       	mov	#1,	r15	;r3 As==01
    5eee:	01 3c       	jmp	$+4      	;abs 0x5ef2
    5ef0:	0f 43       	clr	r15		
    5ef2:	3b 41       	pop	r11		
    5ef4:	30 41       	ret			

00005ef6 <PoolP__1__Pool__put>:
    5ef6:	5d 42 ec 14 	mov.b	&0x14ec,r13	
    5efa:	7d 90 03 00 	cmp.b	#3,	r13	;#0x0003
    5efe:	11 2c       	jc	$+36     	;abs 0x5f22
    5f00:	5e 42 0c 18 	mov.b	&0x180c,r14	
    5f04:	4c 4d       	mov.b	r13,	r12	
    5f06:	0e 5c       	add	r12,	r14	
    5f08:	3e 90 03 00 	cmp	#3,	r14	;#0x0003
    5f0c:	02 28       	jnc	$+6      	;abs 0x5f12
    5f0e:	3e 50 fd ff 	add	#-3,	r14	;#0xfffd
    5f12:	0e 5e       	rla	r14		
    5f14:	8e 4f 32 18 	mov	r15,	6194(r14);0x1832(r14)
    5f18:	5d 53       	inc.b	r13		
    5f1a:	c2 4d ec 14 	mov.b	r13,	&0x14ec	
    5f1e:	0f 43       	clr	r15		
    5f20:	30 41       	ret			
    5f22:	1f 43       	mov	#1,	r15	;r3 As==01
    5f24:	30 41       	ret			

00005f26 <PoolP__0__Pool__put>:
    5f26:	5d 42 ed 14 	mov.b	&0x14ed,r13	
    5f2a:	6d 92       	cmp.b	#4,	r13	;r2 As==10
    5f2c:	0f 2c       	jc	$+32     	;abs 0x5f4c
    5f2e:	5e 42 1b 14 	mov.b	&0x141b,r14	
    5f32:	4c 4d       	mov.b	r13,	r12	
    5f34:	0e 5c       	add	r12,	r14	
    5f36:	2e 92       	cmp	#4,	r14	;r2 As==10
    5f38:	01 28       	jnc	$+4      	;abs 0x5f3c
    5f3a:	2e 82       	sub	#4,	r14	;r2 As==10
    5f3c:	0e 5e       	rla	r14		
    5f3e:	8e 4f a8 16 	mov	r15,	5800(r14);0x16a8(r14)
    5f42:	5d 53       	inc.b	r13		
    5f44:	c2 4d ed 14 	mov.b	r13,	&0x14ed	
    5f48:	0f 43       	clr	r15		
    5f4a:	30 41       	ret			
    5f4c:	1f 43       	mov	#1,	r15	;r3 As==01
    5f4e:	30 41       	ret			

00005f50 <BeaconTransmitP__GetSetRealignmentFrame__set>:
    5f50:	0b 12       	push	r11		
    5f52:	0b 4f       	mov	r15,	r11	
    5f54:	2f 4f       	mov	@r15,	r15	
    5f56:	b0 12 f6 5e 	call	#0x5ef6	
    5f5a:	0f 4b       	mov	r11,	r15	
    5f5c:	b0 12 26 5f 	call	#0x5f26	
    5f60:	3b 41       	pop	r11		
    5f62:	30 41       	ret			

00005f64 <PibP__FrameUtility__getMHRLength.part.149>:
    5f64:	0b 12       	push	r11		
    5f66:	4b 4e       	mov.b	r14,	r11	
    5f68:	3b b2       	bit	#8,	r11	;r2 As==11
    5f6a:	05 24       	jz	$+12     	;abs 0x5f76
    5f6c:	2b b2       	bit	#4,	r11	;r2 As==10
    5f6e:	06 24       	jz	$+14     	;abs 0x5f7c
    5f70:	7c 40 0d 00 	mov.b	#13,	r12	;#0x000d
    5f74:	05 3c       	jmp	$+12     	;abs 0x5f80
    5f76:	7c 40 03 00 	mov.b	#3,	r12	;#0x0003
    5f7a:	02 3c       	jmp	$+6      	;abs 0x5f80
    5f7c:	7c 40 07 00 	mov.b	#7,	r12	;#0x0007
    5f80:	4e 93       	tst.b	r14		
    5f82:	0b 34       	jge	$+24     	;abs 0x5f9a
    5f84:	7f f0 40 00 	and.b	#64,	r15	;#0x0040
    5f88:	02 24       	jz	$+6      	;abs 0x5f8e
    5f8a:	6c 53       	incd.b	r12		
    5f8c:	01 3c       	jmp	$+4      	;abs 0x5f90
    5f8e:	6c 52       	add.b	#4,	r12	;r2 As==10
    5f90:	3b f0 40 00 	and	#64,	r11	;#0x0040
    5f94:	02 24       	jz	$+6      	;abs 0x5f9a
    5f96:	7c 50 06 00 	add.b	#6,	r12	;#0x0006
    5f9a:	cd 4c 00 00 	mov.b	r12,	0(r13)	;0x0000(r13)
    5f9e:	0f 43       	clr	r15		
    5fa0:	3b 41       	pop	r11		
    5fa2:	30 41       	ret			

00005fa4 <DispatchQueueP__0__Queue__dequeue>:
    5fa4:	5d 42 2a 11 	mov.b	&0x112a,r13	
    5fa8:	4f 4d       	mov.b	r13,	r15	
    5faa:	0f 5f       	rla	r15		
    5fac:	1f 4f 96 17 	mov	6038(r15),r15	;0x1796(r15)
    5fb0:	5e 42 26 11 	mov.b	&0x1126,r14	
    5fb4:	4e 93       	tst.b	r14		
    5fb6:	0a 24       	jz	$+22     	;abs 0x5fcc
    5fb8:	5d 53       	inc.b	r13		
    5fba:	c2 4d 2a 11 	mov.b	r13,	&0x112a	
    5fbe:	6d 92       	cmp.b	#4,	r13	;r2 As==10
    5fc0:	02 20       	jnz	$+6      	;abs 0x5fc6
    5fc2:	c2 43 2a 11 	mov.b	#0,	&0x112a	;r3 As==00
    5fc6:	7e 53       	add.b	#-1,	r14	;r3 As==11
    5fc8:	c2 4e 26 11 	mov.b	r14,	&0x1126	
    5fcc:	30 41       	ret			

00005fce <DispatchQueueP__1__Queue__dequeue>:
    5fce:	5d 42 24 11 	mov.b	&0x1124,r13	
    5fd2:	4f 4d       	mov.b	r13,	r15	
    5fd4:	0f 5f       	rla	r15		
    5fd6:	1f 4f 62 17 	mov	5986(r15),r15	;0x1762(r15)
    5fda:	5e 42 20 11 	mov.b	&0x1120,r14	
    5fde:	4e 93       	tst.b	r14		
    5fe0:	0a 24       	jz	$+22     	;abs 0x5ff6
    5fe2:	5d 53       	inc.b	r13		
    5fe4:	c2 4d 24 11 	mov.b	r13,	&0x1124	
    5fe8:	6d 92       	cmp.b	#4,	r13	;r2 As==10
    5fea:	02 20       	jnz	$+6      	;abs 0x5ff0
    5fec:	c2 43 24 11 	mov.b	#0,	&0x1124	;r3 As==00
    5ff0:	7e 53       	add.b	#-1,	r14	;r3 As==11
    5ff2:	c2 4e 20 11 	mov.b	r14,	&0x1120	
    5ff6:	30 41       	ret			

00005ff8 <CoordBroadcastP__Queue__dequeue.part.158>:
    5ff8:	5f 42 1e 11 	mov.b	&0x111e,r15	
    5ffc:	5f 53       	inc.b	r15		
    5ffe:	c2 4f 1e 11 	mov.b	r15,	&0x111e	
    6002:	6f 92       	cmp.b	#4,	r15	;r2 As==10
    6004:	02 20       	jnz	$+6      	;abs 0x600a
    6006:	c2 43 1e 11 	mov.b	#0,	&0x111e	;r3 As==00
    600a:	f2 53 1a 11 	add.b	#-1,	&0x111a	;r3 As==11
    600e:	30 41       	ret			

00006010 <CC2420SpiP__Fifo__continueRead.isra.160>:
    6010:	4e 4e       	mov.b	r14,	r14	
    6012:	c2 43 40 14 	mov.b	#0,	&0x1440	;r3 As==00
    6016:	82 43 1e 14 	mov	#0,	&0x141e	;r3 As==00
    601a:	82 4f 88 15 	mov	r15,	&0x1588	
    601e:	82 4e 06 18 	mov	r14,	&0x1806	
    6022:	82 43 00 18 	mov	#0,	&0x1800	;r3 As==00
    6026:	0e 93       	tst	r14		
    6028:	09 24       	jz	$+20     	;abs 0x603c
    602a:	f2 f0 bf ff 02 00 	and.b	#-65,	&0x0002	;#0xffbf
    6030:	f2 d0 40 00 00 00 	bis.b	#64,	&0x0000	;#0x0040
    6036:	b0 12 16 47 	call	#0x4716	
    603a:	04 3c       	jmp	$+10     	;abs 0x6044
    603c:	7f 40 21 00 	mov.b	#33,	r15	;#0x0021
    6040:	b0 12 fa 4a 	call	#0x4afa	
    6044:	0f 43       	clr	r15		
    6046:	30 41       	ret			

00006048 <CC2420ReceiveP__receive>:
    6048:	0b 12       	push	r11		
    604a:	b0 12 82 46 	call	#0x4682	
    604e:	f2 f0 fb ff 1d 00 	and.b	#-5,	&0x001d	;#0xfffb
    6054:	1b 42 8a 15 	mov	&0x158a,r11	
    6058:	c2 93 b7 16 	tst.b	&0x16b7	
    605c:	0b 24       	jz	$+24     	;abs 0x6074
    605e:	b2 40 7f 00 46 14 	mov	#127,	&0x1446	;#0x007f
    6064:	7f 40 7f 00 	mov.b	#127,	r15	;#0x007f
    6068:	b0 12 38 46 	call	#0x4638	
    606c:	5e 43       	mov.b	#1,	r14	;r3 As==01
    606e:	0f 4b       	mov	r11,	r15	
    6070:	b0 12 10 60 	call	#0x6010	
    6074:	3b 41       	pop	r11		
    6076:	30 41       	ret			

00006078 <CC2420TransmitP__TXFIFO__write.part.162>:
    6078:	0b 12       	push	r11		
    607a:	0a 12       	push	r10		
    607c:	09 12       	push	r9		
    607e:	0a 4f       	mov	r15,	r10	
    6080:	49 4e       	mov.b	r14,	r9	
    6082:	b2 40 3e 00 46 14 	mov	#62,	&0x1446	;#0x003e
    6088:	7f 40 3e 00 	mov.b	#62,	r15	;#0x003e
    608c:	b0 12 38 46 	call	#0x4638	
    6090:	4b 4f       	mov.b	r15,	r11	
    6092:	4e 49       	mov.b	r9,	r14	
    6094:	c2 43 40 14 	mov.b	#0,	&0x1440	;r3 As==00
    6098:	82 4a 1e 14 	mov	r10,	&0x141e	
    609c:	82 43 88 15 	mov	#0,	&0x1588	;r3 As==00
    60a0:	82 4e 06 18 	mov	r14,	&0x1806	
    60a4:	82 43 00 18 	mov	#0,	&0x1800	;r3 As==00
    60a8:	0e 93       	tst	r14		
    60aa:	09 24       	jz	$+20     	;abs 0x60be
    60ac:	f2 f0 bf ff 02 00 	and.b	#-65,	&0x0002	;#0xffbf
    60b2:	f2 d0 40 00 00 00 	bis.b	#64,	&0x0000	;#0x0040
    60b8:	b0 12 16 47 	call	#0x4716	
    60bc:	04 3c       	jmp	$+10     	;abs 0x60c6
    60be:	7f 40 21 00 	mov.b	#33,	r15	;#0x0021
    60c2:	b0 12 fa 4a 	call	#0x4afa	
    60c6:	4f 4b       	mov.b	r11,	r15	
    60c8:	39 41       	pop	r9		
    60ca:	3a 41       	pop	r10		
    60cc:	3b 41       	pop	r11		
    60ce:	30 41       	ret			

000060d0 <CC2420TKN154P__txSpiReserved>:
    60d0:	0b 12       	push	r11		
    60d2:	b0 12 80 5e 	call	#0x5e80	
    60d6:	b0 12 c0 4c 	call	#0x4cc0	
    60da:	1f 42 b4 16 	mov	&0x16b4,r15	
    60de:	0b 42       	mov	r2,	r11	
    60e0:	3b f2       	and	#8,	r11	;r2 As==11
    60e2:	32 c2       	dint			
    60e4:	03 43       	nop			
    60e6:	92 93 12 11 	cmp	#1,	&0x1112	;r3 As==01
    60ea:	22 20       	jnz	$+70     	;abs 0x6130
    60ec:	a2 43 12 11 	mov	#2,	&0x1112	;r3 As==10
    60f0:	82 4f 10 15 	mov	r15,	&0x1510	
    60f4:	2e 4f       	mov	@r15,	r14	
    60f6:	5d 4f 06 00 	mov.b	6(r15),	r13	;0x0006(r15)
    60fa:	5d 5f 07 00 	add.b	7(r15),	r13	;0x0007(r15)
    60fe:	4f 4d       	mov.b	r13,	r15	
    6100:	6f 53       	incd.b	r15		
    6102:	ce 4f 00 00 	mov.b	r15,	0(r14)	;0x0000(r14)
    6106:	b0 12 6e 46 	call	#0x466e	
    610a:	b0 12 66 46 	call	#0x4666	
    610e:	7f 40 09 00 	mov.b	#9,	r15	;#0x0009
    6112:	b0 12 e4 46 	call	#0x46e4	
    6116:	b0 12 6e 46 	call	#0x466e	
    611a:	b0 12 66 46 	call	#0x4666	
    611e:	1f 42 10 15 	mov	&0x1510,r15	
    6122:	2f 4f       	mov	@r15,	r15	
    6124:	c2 93 b7 16 	tst.b	&0x16b7	
    6128:	03 24       	jz	$+8      	;abs 0x6130
    612a:	5e 43       	mov.b	#1,	r14	;r3 As==01
    612c:	b0 12 78 60 	call	#0x6078	
    6130:	0b 93       	tst	r11		
    6132:	01 24       	jz	$+4      	;abs 0x6136
    6134:	32 d2       	eint			
    6136:	3b 41       	pop	r11		
    6138:	30 41       	ret			

0000613a <CC2420SpiP__attemptRelease>:
    613a:	c2 93 14 11 	tst.b	&0x1114	
    613e:	2d 20       	jnz	$+92     	;abs 0x619a
    6140:	f2 93 04 11 	cmp.b	#-1,	&0x1104	;r3 As==11
    6144:	2a 20       	jnz	$+86     	;abs 0x619a
    6146:	c2 93 b7 16 	tst.b	&0x16b7	
    614a:	27 20       	jnz	$+80     	;abs 0x619a
    614c:	d2 43 94 17 	mov.b	#1,	&0x1794	;r3 As==01
    6150:	c2 93 c4 11 	tst.b	&0x11c4	
    6154:	02 24       	jz	$+6      	;abs 0x615a
    6156:	c2 43 94 17 	mov.b	#0,	&0x1794	;r3 As==00
    615a:	c2 93 94 17 	tst.b	&0x1794	
    615e:	1f 24       	jz	$+64     	;abs 0x619e
    6160:	e2 92 b3 12 	cmp.b	#4,	&0x12b3	;r2 As==10
    6164:	1f 20       	jnz	$+64     	;abs 0x61a4
    6166:	c2 93 01 11 	tst.b	&0x1101	
    616a:	1e 20       	jnz	$+62     	;abs 0x61a8
    616c:	f2 93 03 11 	cmp.b	#-1,	&0x1103	;r3 As==11
    6170:	05 20       	jnz	$+12     	;abs 0x617c
    6172:	d2 43 01 11 	mov.b	#1,	&0x1101	;r3 As==01
    6176:	c2 43 b3 12 	mov.b	#0,	&0x12b3	;r3 As==00
    617a:	0c 3c       	jmp	$+26     	;abs 0x6194
    617c:	b0 12 1e 5d 	call	#0x5d1e	
    6180:	c2 4f 00 11 	mov.b	r15,	&0x1100	
    6184:	f2 43 01 11 	mov.b	#-1,	&0x1101	;r3 As==11
    6188:	e2 43 b3 12 	mov.b	#2,	&0x12b3	;r3 As==10
    618c:	7f 40 22 00 	mov.b	#34,	r15	;#0x0022
    6190:	b0 12 fa 4a 	call	#0x4afa	
    6194:	b0 12 fa 5c 	call	#0x5cfa	
    6198:	05 3c       	jmp	$+12     	;abs 0x61a4
    619a:	1f 43       	mov	#1,	r15	;r3 As==01
    619c:	30 41       	ret			
    619e:	3f 40 05 00 	mov	#5,	r15	;#0x0005
    61a2:	30 41       	ret			
    61a4:	0f 43       	clr	r15		
    61a6:	30 41       	ret			
    61a8:	0f 43       	clr	r15		
    61aa:	30 41       	ret			

000061ac <CC2420SpiP__Resource__release>:
    61ac:	0b 12       	push	r11		
    61ae:	0a 12       	push	r10		
    61b0:	09 12       	push	r9		
    61b2:	0b 42       	mov	r2,	r11	
    61b4:	3b f2       	and	#8,	r11	;r2 As==11
    61b6:	32 c2       	dint			
    61b8:	03 43       	nop			
    61ba:	c2 9f 04 11 	cmp.b	r15,	&0x1104	
    61be:	04 24       	jz	$+10     	;abs 0x61c8
    61c0:	0b 93       	tst	r11		
    61c2:	31 24       	jz	$+100    	;abs 0x6226
    61c4:	32 d2       	eint			
    61c6:	2f 3c       	jmp	$+96     	;abs 0x6226
    61c8:	f2 43 04 11 	mov.b	#-1,	&0x1104	;r3 As==11
    61cc:	5c 42 14 11 	mov.b	&0x1114,r12	
    61d0:	4c 93       	tst.b	r12		
    61d2:	05 20       	jnz	$+12     	;abs 0x61de
    61d4:	c2 43 b7 16 	mov.b	#0,	&0x16b7	;r3 As==00
    61d8:	b0 12 3a 61 	call	#0x613a	
    61dc:	1d 3c       	jmp	$+60     	;abs 0x6218
    61de:	4a 43       	clr.b	r10		
    61e0:	49 4c       	mov.b	r12,	r9	
    61e2:	4d 4a       	mov.b	r10,	r13	
    61e4:	5d f3       	and.b	#1,	r13	;r3 As==01
    61e6:	4e 4d       	mov.b	r13,	r14	
    61e8:	0f 49       	mov	r9,	r15	
    61ea:	4a 4d       	mov.b	r13,	r10	
    61ec:	03 24       	jz	$+8      	;abs 0x61f4
    61ee:	0f 11       	rra	r15		
    61f0:	7a 53       	add.b	#-1,	r10	;r3 As==11
    61f2:	fd 23       	jnz	$-4      	;abs 0x61ee
    61f4:	1f f3       	and	#1,	r15	;r3 As==01
    61f6:	14 24       	jz	$+42     	;abs 0x6220
    61f8:	c2 4d 04 11 	mov.b	r13,	&0x1104	
    61fc:	1f 43       	mov	#1,	r15	;r3 As==01
    61fe:	4e 4e       	mov.b	r14,	r14	
    6200:	4e 93       	tst.b	r14		
    6202:	03 24       	jz	$+8      	;abs 0x620a
    6204:	0f 5f       	rla	r15		
    6206:	7e 53       	add.b	#-1,	r14	;r3 As==11
    6208:	fb 3f       	jmp	$-8      	;abs 0x6200
    620a:	4c cf       	bic.b	r15,	r12	
    620c:	c2 4c 14 11 	mov.b	r12,	&0x1114	
    6210:	7f 40 20 00 	mov.b	#32,	r15	;#0x0020
    6214:	b0 12 fa 4a 	call	#0x4afa	
    6218:	0b 93       	tst	r11		
    621a:	07 24       	jz	$+16     	;abs 0x622a
    621c:	32 d2       	eint			
    621e:	05 3c       	jmp	$+12     	;abs 0x622a
    6220:	4a 4d       	mov.b	r13,	r10	
    6222:	5a 53       	inc.b	r10		
    6224:	de 3f       	jmp	$-66     	;abs 0x61e2
    6226:	1f 43       	mov	#1,	r15	;r3 As==01
    6228:	01 3c       	jmp	$+4      	;abs 0x622c
    622a:	0f 43       	clr	r15		
    622c:	39 41       	pop	r9		
    622e:	3a 41       	pop	r10		
    6230:	3b 41       	pop	r11		
    6232:	30 41       	ret			

00006234 <CC2420TKN154P__SpiResource__release>:
    6234:	0b 12       	push	r11		
    6236:	0b 42       	mov	r2,	r11	
    6238:	32 c2       	dint			
    623a:	03 43       	nop			
    623c:	4f 43       	clr.b	r15		
    623e:	b0 12 ac 61 	call	#0x61ac	
    6242:	3b b2       	bit	#8,	r11	;r2 As==11
    6244:	01 24       	jz	$+4      	;abs 0x6248
    6246:	32 d2       	eint			
    6248:	3b 41       	pop	r11		
    624a:	30 41       	ret			

0000624c <ArbiterP__0__ResourceDefaultOwner__release>:
    624c:	d2 93 01 11 	cmp.b	#1,	&0x1101	;r3 As==01
    6250:	19 20       	jnz	$+52     	;abs 0x6284
    6252:	5f 42 b3 12 	mov.b	&0x12b3,r15	
    6256:	4e 4f       	mov.b	r15,	r14	
    6258:	7e 53       	add.b	#-1,	r14	;r3 As==11
    625a:	6e 93       	cmp.b	#2,	r14	;r3 As==10
    625c:	07 2c       	jc	$+16     	;abs 0x626c
    625e:	e2 43 b3 12 	mov.b	#2,	&0x12b3	;r3 As==10
    6262:	7f 40 22 00 	mov.b	#34,	r15	;#0x0022
    6266:	b0 12 fa 4a 	call	#0x4afa	
    626a:	0a 3c       	jmp	$+22     	;abs 0x6280
    626c:	7f 90 03 00 	cmp.b	#3,	r15	;#0x0003
    6270:	0b 20       	jnz	$+24     	;abs 0x6288
    6272:	d2 42 00 11 01 11 	mov.b	&0x1100,&0x1101	
    6278:	f2 43 00 11 	mov.b	#-1,	&0x1100	;r3 As==11
    627c:	e2 42 b3 12 	mov.b	#4,	&0x12b3	;r2 As==10
    6280:	0f 43       	clr	r15		
    6282:	30 41       	ret			
    6284:	1f 43       	mov	#1,	r15	;r3 As==01
    6286:	30 41       	ret			
    6288:	1f 43       	mov	#1,	r15	;r3 As==01
    628a:	30 41       	ret			

0000628c <CC2420SpiP__Resource__request>:
    628c:	0b 12       	push	r11		
    628e:	0b 42       	mov	r2,	r11	
    6290:	3b f2       	and	#8,	r11	;r2 As==11
    6292:	32 c2       	dint			
    6294:	03 43       	nop			
    6296:	c2 93 b7 16 	tst.b	&0x16b7	
    629a:	08 20       	jnz	$+18     	;abs 0x62ac
    629c:	d2 43 b7 16 	mov.b	#1,	&0x16b7	;r3 As==01
    62a0:	c2 4f 04 11 	mov.b	r15,	&0x1104	
    62a4:	c2 93 01 11 	tst.b	&0x1101	
    62a8:	0c 24       	jz	$+26     	;abs 0x62c2
    62aa:	0f 3c       	jmp	$+32     	;abs 0x62ca
    62ac:	1e 43       	mov	#1,	r14	;r3 As==01
    62ae:	7f f0 0f 00 	and.b	#15,	r15	;#0x000f
    62b2:	4f 93       	tst.b	r15		
    62b4:	03 24       	jz	$+8      	;abs 0x62bc
    62b6:	0e 5e       	rla	r14		
    62b8:	7f 53       	add.b	#-1,	r15	;r3 As==11
    62ba:	fb 3f       	jmp	$-8      	;abs 0x62b2
    62bc:	c2 de 14 11 	bis.b	r14,	&0x1114	
    62c0:	35 3c       	jmp	$+108    	;abs 0x632c
    62c2:	1f 43       	mov	#1,	r15	;r3 As==01
    62c4:	e2 92 b3 12 	cmp.b	#4,	&0x12b3	;r2 As==10
    62c8:	01 24       	jz	$+4      	;abs 0x62cc
    62ca:	0f 43       	clr	r15		
    62cc:	4f 93       	tst.b	r15		
    62ce:	05 24       	jz	$+12     	;abs 0x62da
    62d0:	7f 40 20 00 	mov.b	#32,	r15	;#0x0020
    62d4:	b0 12 fa 4a 	call	#0x4afa	
    62d8:	29 3c       	jmp	$+84     	;abs 0x632c
    62da:	c2 93 00 11 	tst.b	&0x1100	
    62de:	26 24       	jz	$+78     	;abs 0x632c
    62e0:	1f 43       	mov	#1,	r15	;r3 As==01
    62e2:	f2 93 16 12 	cmp.b	#-1,	&0x1216	;r3 As==11
    62e6:	04 20       	jnz	$+10     	;abs 0x62f0
    62e8:	c2 93 02 11 	tst.b	&0x1102	
    62ec:	01 24       	jz	$+4      	;abs 0x62f0
    62ee:	0f 43       	clr	r15		
    62f0:	0f 93       	tst	r15		
    62f2:	1c 20       	jnz	$+58     	;abs 0x632c
    62f4:	f2 93 03 11 	cmp.b	#-1,	&0x1103	;r3 As==11
    62f8:	03 20       	jnz	$+8      	;abs 0x6300
    62fa:	c2 43 03 11 	mov.b	#0,	&0x1103	;r3 As==00
    62fe:	04 3c       	jmp	$+10     	;abs 0x6308
    6300:	5f 42 02 11 	mov.b	&0x1102,r15	
    6304:	cf 43 16 12 	mov.b	#0,	4630(r15);r3 As==00, 0x1216(r15)
    6308:	c2 43 02 11 	mov.b	#0,	&0x1102	;r3 As==00
    630c:	c2 93 b3 12 	tst.b	&0x12b3	
    6310:	0d 20       	jnz	$+28     	;abs 0x632c
    6312:	d2 43 b3 12 	mov.b	#1,	&0x12b3	;r3 As==01
    6316:	f2 93 03 11 	cmp.b	#-1,	&0x1103	;r3 As==11
    631a:	03 24       	jz	$+8      	;abs 0x6322
    631c:	b0 12 1e 5d 	call	#0x5d1e	
    6320:	01 3c       	jmp	$+4      	;abs 0x6324
    6322:	7f 43       	mov.b	#-1,	r15	;r3 As==11
    6324:	c2 4f 00 11 	mov.b	r15,	&0x1100	
    6328:	b0 12 4c 62 	call	#0x624c	
    632c:	0b 93       	tst	r11		
    632e:	01 24       	jz	$+4      	;abs 0x6332
    6330:	32 d2       	eint			
    6332:	0f 43       	clr	r15		
    6334:	3b 41       	pop	r11		
    6336:	30 41       	ret			

00006338 <CC2420TKN154P__SpiResource__request>:
    6338:	4f 43       	clr.b	r15		
    633a:	b0 12 8c 62 	call	#0x628c	
    633e:	30 41       	ret			

00006340 <CC2420TKN154P__SplitControl__stop>:
    6340:	0f 42       	mov	r2,	r15	
    6342:	3f f2       	and	#8,	r15	;r2 As==11
    6344:	32 c2       	dint			
    6346:	03 43       	nop			
    6348:	1e 42 18 11 	mov	&0x1118,r14	
    634c:	0e 93       	tst	r14		
    634e:	04 20       	jnz	$+10     	;abs 0x6358
    6350:	0f 93       	tst	r15		
    6352:	12 24       	jz	$+38     	;abs 0x6378
    6354:	32 d2       	eint			
    6356:	10 3c       	jmp	$+34     	;abs 0x6378
    6358:	2e 92       	cmp	#4,	r14	;r2 As==10
    635a:	05 24       	jz	$+12     	;abs 0x6366
    635c:	0f 93       	tst	r15		
    635e:	0f 24       	jz	$+32     	;abs 0x637e
    6360:	32 d2       	eint			
    6362:	1f 43       	mov	#1,	r15	;r3 As==01
    6364:	30 41       	ret			
    6366:	92 43 18 11 	mov	#1,	&0x1118	;r3 As==01
    636a:	0f 93       	tst	r15		
    636c:	01 24       	jz	$+4      	;abs 0x6370
    636e:	32 d2       	eint			
    6370:	b0 12 38 63 	call	#0x6338	
    6374:	0f 43       	clr	r15		
    6376:	30 41       	ret			
    6378:	3f 40 09 00 	mov	#9,	r15	;#0x0009
    637c:	30 41       	ret			
    637e:	1f 43       	mov	#1,	r15	;r3 As==01
    6380:	30 41       	ret			

00006382 <CC2420TKN154P__SplitControl__start>:
    6382:	0f 42       	mov	r2,	r15	
    6384:	3f f2       	and	#8,	r15	;r2 As==11
    6386:	32 c2       	dint			
    6388:	03 43       	nop			
    638a:	1e 42 18 11 	mov	&0x1118,r14	
    638e:	2e 92       	cmp	#4,	r14	;r2 As==10
    6390:	04 20       	jnz	$+10     	;abs 0x639a
    6392:	0f 93       	tst	r15		
    6394:	12 24       	jz	$+38     	;abs 0x63ba
    6396:	32 d2       	eint			
    6398:	10 3c       	jmp	$+34     	;abs 0x63ba
    639a:	0e 93       	tst	r14		
    639c:	05 24       	jz	$+12     	;abs 0x63a8
    639e:	0f 93       	tst	r15		
    63a0:	0f 24       	jz	$+32     	;abs 0x63c0
    63a2:	32 d2       	eint			
    63a4:	1f 43       	mov	#1,	r15	;r3 As==01
    63a6:	30 41       	ret			
    63a8:	a2 43 18 11 	mov	#2,	&0x1118	;r3 As==10
    63ac:	0f 93       	tst	r15		
    63ae:	01 24       	jz	$+4      	;abs 0x63b2
    63b0:	32 d2       	eint			
    63b2:	b0 12 38 63 	call	#0x6338	
    63b6:	0f 43       	clr	r15		
    63b8:	30 41       	ret			
    63ba:	3f 40 09 00 	mov	#9,	r15	;#0x0009
    63be:	30 41       	ret			
    63c0:	1f 43       	mov	#1,	r15	;r3 As==01
    63c2:	30 41       	ret			

000063c4 <CC2420ReceiveP__continueStop>:
    63c4:	c2 93 05 15 	tst.b	&0x1505	
    63c8:	08 24       	jz	$+18     	;abs 0x63da
    63ca:	c2 43 05 15 	mov.b	#0,	&0x1505	;r3 As==00
    63ce:	82 43 f6 11 	mov	#0,	&0x11f6	;r3 As==00
    63d2:	7f 40 23 00 	mov.b	#35,	r15	;#0x0023
    63d6:	b0 12 fa 4a 	call	#0x4afa	
    63da:	30 41       	ret			

000063dc <CC2420TKN154P__RxControl__stop>:
    63dc:	0b 12       	push	r11		
    63de:	0b 42       	mov	r2,	r11	
    63e0:	3b f2       	and	#8,	r11	;r2 As==11
    63e2:	32 c2       	dint			
    63e4:	03 43       	nop			
    63e6:	82 93 f6 11 	tst	&0x11f6	
    63ea:	04 20       	jnz	$+10     	;abs 0x63f4
    63ec:	0b 93       	tst	r11		
    63ee:	13 24       	jz	$+40     	;abs 0x6416
    63f0:	32 d2       	eint			
    63f2:	11 3c       	jmp	$+36     	;abs 0x6416
    63f4:	d2 43 05 15 	mov.b	#1,	&0x1505	;r3 As==01
    63f8:	f2 f0 fe ff 25 00 	and.b	#-2,	&0x0025	;#0xfffe
    63fe:	f2 f0 fe ff 23 00 	and.b	#-2,	&0x0023	;#0xfffe
    6404:	c2 93 b2 12 	tst.b	&0x12b2	
    6408:	02 20       	jnz	$+6      	;abs 0x640e
    640a:	b0 12 c4 63 	call	#0x63c4	
    640e:	0b 93       	tst	r11		
    6410:	05 24       	jz	$+12     	;abs 0x641c
    6412:	32 d2       	eint			
    6414:	03 3c       	jmp	$+8      	;abs 0x641c
    6416:	3f 40 09 00 	mov	#9,	r15	;#0x0009
    641a:	01 3c       	jmp	$+4      	;abs 0x641e
    641c:	0f 43       	clr	r15		
    641e:	3b 41       	pop	r11		
    6420:	30 41       	ret			

00006422 <DispatchQueueP__0__FrameTx__transmit>:
    6422:	ce 4f 08 00 	mov.b	r15,	8(r14)	;0x0008(r14)
    6426:	5f 42 b9 16 	mov.b	&0x16b9,r15	
    642a:	2f f3       	and	#2,	r15	;r3 As==10
    642c:	1b 20       	jnz	$+56     	;abs 0x6464
    642e:	5d 42 26 11 	mov.b	&0x1126,r13	
    6432:	6d 92       	cmp.b	#4,	r13	;r2 As==10
    6434:	1a 2c       	jc	$+54     	;abs 0x646a
    6436:	5c 42 28 11 	mov.b	&0x1128,r12	
    643a:	4f 4c       	mov.b	r12,	r15	
    643c:	0f 5f       	rla	r15		
    643e:	8f 4e 96 17 	mov	r14,	6038(r15);0x1796(r15)
    6442:	4f 4c       	mov.b	r12,	r15	
    6444:	5f 53       	inc.b	r15		
    6446:	c2 4f 28 11 	mov.b	r15,	&0x1128	
    644a:	6f 92       	cmp.b	#4,	r15	;r2 As==10
    644c:	02 20       	jnz	$+6      	;abs 0x6452
    644e:	c2 43 28 11 	mov.b	#0,	&0x1128	;r3 As==00
    6452:	5d 53       	inc.b	r13		
    6454:	c2 4d 26 11 	mov.b	r13,	&0x1126	
    6458:	7f 40 0c 00 	mov.b	#12,	r15	;#0x000c
    645c:	b0 12 fa 4a 	call	#0x4afa	
    6460:	0f 43       	clr	r15		
    6462:	30 41       	ret			
    6464:	3f 40 f1 00 	mov	#241,	r15	;#0x00f1
    6468:	30 41       	ret			
    646a:	3f 40 f1 00 	mov	#241,	r15	;#0x00f1
    646e:	30 41       	ret			

00006470 <DispatchQueueP__1__FrameTx__transmit>:
    6470:	ce 4f 08 00 	mov.b	r15,	8(r14)	;0x0008(r14)
    6474:	5f 42 fb 17 	mov.b	&0x17fb,r15	
    6478:	2f f3       	and	#2,	r15	;r3 As==10
    647a:	1b 20       	jnz	$+56     	;abs 0x64b2
    647c:	5d 42 20 11 	mov.b	&0x1120,r13	
    6480:	6d 92       	cmp.b	#4,	r13	;r2 As==10
    6482:	1a 2c       	jc	$+54     	;abs 0x64b8
    6484:	5c 42 22 11 	mov.b	&0x1122,r12	
    6488:	4f 4c       	mov.b	r12,	r15	
    648a:	0f 5f       	rla	r15		
    648c:	8f 4e 62 17 	mov	r14,	5986(r15);0x1762(r15)
    6490:	4f 4c       	mov.b	r12,	r15	
    6492:	5f 53       	inc.b	r15		
    6494:	c2 4f 22 11 	mov.b	r15,	&0x1122	
    6498:	6f 92       	cmp.b	#4,	r15	;r2 As==10
    649a:	02 20       	jnz	$+6      	;abs 0x64a0
    649c:	c2 43 22 11 	mov.b	#0,	&0x1122	;r3 As==00
    64a0:	5d 53       	inc.b	r13		
    64a2:	c2 4d 20 11 	mov.b	r13,	&0x1120	
    64a6:	7f 40 13 00 	mov.b	#19,	r15	;#0x0013
    64aa:	b0 12 fa 4a 	call	#0x4afa	
    64ae:	0f 43       	clr	r15		
    64b0:	30 41       	ret			
    64b2:	3f 40 f1 00 	mov	#241,	r15	;#0x00f1
    64b6:	30 41       	ret			
    64b8:	3f 40 f1 00 	mov	#241,	r15	;#0x00f1
    64bc:	30 41       	ret			

000064be <ScanP__RadioOff__offDone>:
    64be:	5f 42 a6 16 	mov.b	&0x16a6,r15	
    64c2:	4f 93       	tst.b	r15		
    64c4:	03 20       	jnz	$+8      	;abs 0x64cc
    64c6:	7f 40 09 00 	mov.b	#9,	r15	;#0x0009
    64ca:	04 3c       	jmp	$+10     	;abs 0x64d4
    64cc:	5f 53       	inc.b	r15		
    64ce:	c2 4f a6 16 	mov.b	r15,	&0x16a6	
    64d2:	7f 42       	mov.b	#8,	r15	;r2 As==11
    64d4:	b0 12 fa 4a 	call	#0x4afa	
    64d8:	30 41       	ret			

000064da <CC2420TKN154P__checkEnableRxForACK>:
    64da:	1f 42 b4 16 	mov	&0x16b4,r15	
    64de:	2f 4f       	mov	@r15,	r15	
    64e0:	5f 4f 01 00 	mov.b	1(r15),	r15	;0x0001(r15)
    64e4:	3f f0 20 00 	and	#32,	r15	;#0x0020
    64e8:	04 24       	jz	$+10     	;abs 0x64f2
    64ea:	b0 12 34 62 	call	#0x6234	
    64ee:	b0 12 64 4c 	call	#0x4c64	
    64f2:	30 41       	ret			

000064f4 <InactivePeriodP__1__tooLate.part.174>:
    64f4:	3c 40 c0 03 	mov	#960,	r12	;#0x03c0
    64f8:	0d 43       	clr	r13		
    64fa:	5f 42 cc 17 	mov.b	&0x17cc,r15	
    64fe:	7f f0 1f 00 	and.b	#31,	r15	;#0x001f
    6502:	4f 93       	tst.b	r15		
    6504:	04 24       	jz	$+10     	;abs 0x650e
    6506:	0c 5c       	rla	r12		
    6508:	0d 6d       	rlc	r13		
    650a:	7f 53       	add.b	#-1,	r15	;r3 As==11
    650c:	fa 3f       	jmp	$-10     	;abs 0x6502
    650e:	3c 50 94 fd 	add	#-620,	r12	;#0xfd94
    6512:	3d 63       	addc	#-1,	r13	;r3 As==11
    6514:	1e 42 12 15 	mov	&0x1512,r14	
    6518:	1f 42 14 15 	mov	&0x1514,r15	
    651c:	b0 12 58 4d 	call	#0x4d58	
    6520:	30 41       	ret			

00006522 <InactivePeriodP__0__tooLate>:
    6522:	f2 90 0f 00 cc 17 	cmp.b	#15,	&0x17cc	;#0x000f
    6528:	0a 28       	jnc	$+22     	;abs 0x653e
    652a:	5f 42 8a 11 	mov.b	&0x118a,r15	
    652e:	2f f2       	and	#4,	r15	;r2 As==10
    6530:	08 24       	jz	$+18     	;abs 0x6542
    6532:	1f 43       	mov	#1,	r15	;r3 As==01
    6534:	f2 90 0f 00 70 16 	cmp.b	#15,	&0x1670	;#0x000f
    653a:	04 28       	jnc	$+10     	;abs 0x6544
    653c:	02 3c       	jmp	$+6      	;abs 0x6542
    653e:	1f 43       	mov	#1,	r15	;r3 As==01
    6540:	01 3c       	jmp	$+4      	;abs 0x6544
    6542:	0f 43       	clr	r15		
    6544:	4f 93       	tst.b	r15		
    6546:	1c 20       	jnz	$+58     	;abs 0x6580
    6548:	5f 42 bd 11 	mov.b	&0x11bd,r15	
    654c:	7f 90 0f 00 	cmp.b	#15,	r15	;#0x000f
    6550:	02 28       	jnc	$+6      	;abs 0x6556
    6552:	7f 40 0e 00 	mov.b	#14,	r15	;#0x000e
    6556:	3c 40 c0 03 	mov	#960,	r12	;#0x03c0
    655a:	0d 43       	clr	r13		
    655c:	7f f0 1f 00 	and.b	#31,	r15	;#0x001f
    6560:	4f 93       	tst.b	r15		
    6562:	04 24       	jz	$+10     	;abs 0x656c
    6564:	0c 5c       	rla	r12		
    6566:	0d 6d       	rlc	r13		
    6568:	7f 53       	add.b	#-1,	r15	;r3 As==11
    656a:	fa 3f       	jmp	$-10     	;abs 0x6560
    656c:	3c 50 94 fd 	add	#-620,	r12	;#0xfd94
    6570:	3d 63       	addc	#-1,	r13	;r3 As==11
    6572:	1e 42 20 18 	mov	&0x1820,r14	
    6576:	1f 42 22 18 	mov	&0x1822,r15	
    657a:	b0 12 58 4d 	call	#0x4d58	
    657e:	30 41       	ret			
    6580:	5f 43       	mov.b	#1,	r15	;r3 As==01
    6582:	30 41       	ret			

00006584 <VirtualizeAlarmC__0__setNextAlarm.part.177>:
    6584:	0b 12       	push	r11		
    6586:	0a 12       	push	r10		
    6588:	09 12       	push	r9		
    658a:	08 12       	push	r8		
    658c:	07 12       	push	r7		
    658e:	06 12       	push	r6		
    6590:	05 12       	push	r5		
    6592:	04 12       	push	r4		
    6594:	31 50 fa ff 	add	#-6,	r1	;#0xfffa
    6598:	b0 12 fa 4c 	call	#0x4cfa	
    659c:	04 4e       	mov	r14,	r4	
    659e:	05 4f       	mov	r15,	r5	
    65a0:	3e 40 c4 16 	mov	#5828,	r14	;#0x16c4
    65a4:	c1 43 04 00 	mov.b	#0,	4(r1)	;r3 As==00, 0x0004(r1)
    65a8:	36 43       	mov	#-1,	r6	;r3 As==11
    65aa:	37 43       	mov	#-1,	r7	;r3 As==11
    65ac:	3f 40 c0 16 	mov	#5824,	r15	;#0x16c0
    65b0:	0d 4f       	mov	r15,	r13	
    65b2:	3d 50 80 00 	add	#128,	r13	;#0x0080
    65b6:	81 44 00 00 	mov	r4,	0(r1)	;0x0000(r1)
    65ba:	81 45 02 00 	mov	r5,	2(r1)	;0x0002(r1)
    65be:	05 4f       	mov	r15,	r5	
    65c0:	04 4d       	mov	r13,	r4	
    65c2:	c4 93 00 00 	tst.b	0(r4)		;0x0000(r4)
    65c6:	36 24       	jz	$+110    	;abs 0x6634
    65c8:	28 45       	mov	@r5,	r8	
    65ca:	19 45 02 00 	mov	2(r5),	r9	;0x0002(r5)
    65ce:	2a 41       	mov	@r1,	r10	
    65d0:	1b 41 02 00 	mov	2(r1),	r11	;0x0002(r1)
    65d4:	0a 88       	sub	r8,	r10	
    65d6:	0b 79       	subc	r9,	r11	
    65d8:	2c 4e       	mov	@r14,	r12	
    65da:	1d 4e 02 00 	mov	2(r14),	r13	;0x0002(r14)
    65de:	0b 9d       	cmp	r13,	r11	
    65e0:	10 28       	jnc	$+34     	;abs 0x6602
    65e2:	02 20       	jnz	$+6      	;abs 0x65e8
    65e4:	0a 9c       	cmp	r12,	r10	
    65e6:	0d 28       	jnc	$+28     	;abs 0x6602
    65e8:	0a 4c       	mov	r12,	r10	
    65ea:	0b 4d       	mov	r13,	r11	
    65ec:	0a 58       	add	r8,	r10	
    65ee:	0b 69       	addc	r9,	r11	
    65f0:	85 4a 00 00 	mov	r10,	0(r5)	;0x0000(r5)
    65f4:	85 4b 02 00 	mov	r11,	2(r5)	;0x0002(r5)
    65f8:	8e 43 00 00 	mov	#0,	0(r14)	;r3 As==00, 0x0000(r14)
    65fc:	8e 43 02 00 	mov	#0,	2(r14)	;r3 As==00, 0x0002(r14)
    6600:	0d 3c       	jmp	$+28     	;abs 0x661c
    6602:	a5 41 00 00 	mov	@r1,	0(r5)	;0x0000(r5)
    6606:	95 41 02 00 02 00 	mov	2(r1),	2(r5)	;0x0002(r1), 0x0002(r5)
    660c:	08 4c       	mov	r12,	r8	
    660e:	09 4d       	mov	r13,	r9	
    6610:	08 8a       	sub	r10,	r8	
    6612:	09 7b       	subc	r11,	r9	
    6614:	8e 48 00 00 	mov	r8,	0(r14)	;0x0000(r14)
    6618:	8e 49 02 00 	mov	r9,	2(r14)	;0x0002(r14)
    661c:	2d 4e       	mov	@r14,	r13	
    661e:	1f 4e 02 00 	mov	2(r14),	r15	;0x0002(r14)
    6622:	07 9f       	cmp	r15,	r7	
    6624:	07 28       	jnc	$+16     	;abs 0x6634
    6626:	02 20       	jnz	$+6      	;abs 0x662c
    6628:	06 9d       	cmp	r13,	r6	
    662a:	04 28       	jnc	$+10     	;abs 0x6634
    662c:	06 4d       	mov	r13,	r6	
    662e:	07 4f       	mov	r15,	r7	
    6630:	d1 43 04 00 	mov.b	#1,	4(r1)	;r3 As==01, 0x0004(r1)
    6634:	35 52       	add	#8,	r5	;r2 As==11
    6636:	14 53       	inc	r4		
    6638:	3e 52       	add	#8,	r14	;r2 As==11
    663a:	35 90 40 17 	cmp	#5952,	r5	;#0x1740
    663e:	c1 23       	jnz	$-124    	;abs 0x65c2
    6640:	24 41       	mov	@r1,	r4	
    6642:	15 41 02 00 	mov	2(r1),	r5	;0x0002(r1)
    6646:	c1 93 04 00 	tst.b	4(r1)		;0x0004(r1)
    664a:	10 24       	jz	$+34     	;abs 0x666c
    664c:	07 93       	tst	r7		
    664e:	03 34       	jge	$+8      	;abs 0x6656
    6650:	12 c3       	clrc			
    6652:	07 10       	rrc	r7		
    6654:	06 10       	rrc	r6		
    6656:	82 44 5a 17 	mov	r4,	&0x175a	
    665a:	82 45 5c 17 	mov	r5,	&0x175c	
    665e:	82 46 b6 12 	mov	r6,	&0x12b6	
    6662:	82 47 b8 12 	mov	r7,	&0x12b8	
    6666:	b0 12 f0 4d 	call	#0x4df0	
    666a:	03 3c       	jmp	$+8      	;abs 0x6672
    666c:	b2 f0 ef ff 88 01 	and	#-17,	&0x0188	;#0xffef
    6672:	31 50 06 00 	add	#6,	r1	;#0x0006
    6676:	34 41       	pop	r4		
    6678:	35 41       	pop	r5		
    667a:	36 41       	pop	r6		
    667c:	37 41       	pop	r7		
    667e:	38 41       	pop	r8		
    6680:	39 41       	pop	r9		
    6682:	3a 41       	pop	r10		
    6684:	3b 41       	pop	r11		
    6686:	30 41       	ret			

00006688 <VirtualizeAlarmC__0__Alarm__start>:
    6688:	0b 12       	push	r11		
    668a:	0a 12       	push	r10		
    668c:	09 12       	push	r9		
    668e:	08 12       	push	r8		
    6690:	48 4f       	mov.b	r15,	r8	
    6692:	0a 4d       	mov	r13,	r10	
    6694:	0b 4e       	mov	r14,	r11	
    6696:	b0 12 fa 4c 	call	#0x4cfa	
    669a:	09 42       	mov	r2,	r9	
    669c:	39 f2       	and	#8,	r9	;r2 As==11
    669e:	32 c2       	dint			
    66a0:	03 43       	nop			
    66a2:	4d 48       	mov.b	r8,	r13	
    66a4:	0c 4d       	mov	r13,	r12	
    66a6:	0c 5c       	rla	r12		
    66a8:	0c 5c       	rla	r12		
    66aa:	0c 5c       	rla	r12		
    66ac:	3c 50 c0 16 	add	#5824,	r12	;#0x16c0
    66b0:	8c 4e 00 00 	mov	r14,	0(r12)	;0x0000(r12)
    66b4:	8c 4f 02 00 	mov	r15,	2(r12)	;0x0002(r12)
    66b8:	8c 4a 04 00 	mov	r10,	4(r12)	;0x0004(r12)
    66bc:	8c 4b 06 00 	mov	r11,	6(r12)	;0x0006(r12)
    66c0:	dd 43 40 17 	mov.b	#1,	5952(r13);r3 As==01, 0x1740(r13)
    66c4:	c2 93 50 17 	tst.b	&0x1750	
    66c8:	02 20       	jnz	$+6      	;abs 0x66ce
    66ca:	b0 12 84 65 	call	#0x6584	
    66ce:	09 93       	tst	r9		
    66d0:	01 24       	jz	$+4      	;abs 0x66d4
    66d2:	32 d2       	eint			
    66d4:	38 41       	pop	r8		
    66d6:	39 41       	pop	r9		
    66d8:	3a 41       	pop	r10		
    66da:	3b 41       	pop	r11		
    66dc:	30 41       	ret			

000066de <Alarm32khzTo62500hzTransformC__AlarmFrom__start>:
    66de:	7f 90 10 00 	cmp.b	#16,	r15	;#0x0010
    66e2:	32 2c       	jc	$+102    	;abs 0x6748
    66e4:	4f 4f       	mov.b	r15,	r15	
    66e6:	0f 5f       	rla	r15		
    66e8:	10 4f 3a be 	br	-16838(r15)	;0xbe3a(r15)
    66ec:	4f 43       	clr.b	r15		
    66ee:	25 3c       	jmp	$+76     	;abs 0x673a
    66f0:	5f 43       	mov.b	#1,	r15	;r3 As==01
    66f2:	23 3c       	jmp	$+72     	;abs 0x673a
    66f4:	6f 43       	mov.b	#2,	r15	;r3 As==10
    66f6:	21 3c       	jmp	$+68     	;abs 0x673a
    66f8:	7f 40 03 00 	mov.b	#3,	r15	;#0x0003
    66fc:	1e 3c       	jmp	$+62     	;abs 0x673a
    66fe:	6f 42       	mov.b	#4,	r15	;r2 As==10
    6700:	1c 3c       	jmp	$+58     	;abs 0x673a
    6702:	7f 40 05 00 	mov.b	#5,	r15	;#0x0005
    6706:	19 3c       	jmp	$+52     	;abs 0x673a
    6708:	7f 40 06 00 	mov.b	#6,	r15	;#0x0006
    670c:	16 3c       	jmp	$+46     	;abs 0x673a
    670e:	7f 40 07 00 	mov.b	#7,	r15	;#0x0007
    6712:	13 3c       	jmp	$+40     	;abs 0x673a
    6714:	7f 42       	mov.b	#8,	r15	;r2 As==11
    6716:	11 3c       	jmp	$+36     	;abs 0x673a
    6718:	7f 40 09 00 	mov.b	#9,	r15	;#0x0009
    671c:	0e 3c       	jmp	$+30     	;abs 0x673a
    671e:	7f 40 0a 00 	mov.b	#10,	r15	;#0x000a
    6722:	0b 3c       	jmp	$+24     	;abs 0x673a
    6724:	7f 40 0b 00 	mov.b	#11,	r15	;#0x000b
    6728:	08 3c       	jmp	$+18     	;abs 0x673a
    672a:	7f 40 0c 00 	mov.b	#12,	r15	;#0x000c
    672e:	05 3c       	jmp	$+12     	;abs 0x673a
    6730:	7f 40 0d 00 	mov.b	#13,	r15	;#0x000d
    6734:	02 3c       	jmp	$+6      	;abs 0x673a
    6736:	7f 40 0e 00 	mov.b	#14,	r15	;#0x000e
    673a:	b0 12 88 66 	call	#0x6688	
    673e:	30 41       	ret			
    6740:	7f 40 0f 00 	mov.b	#15,	r15	;#0x000f
    6744:	b0 12 88 66 	call	#0x6688	
    6748:	30 41       	ret			

0000674a <Alarm32khzTo62500hzTransformC__Alarm__startAt>:
    674a:	0b 12       	push	r11		
    674c:	0a 12       	push	r10		
    674e:	09 12       	push	r9		
    6750:	08 12       	push	r8		
    6752:	07 12       	push	r7		
    6754:	06 12       	push	r6		
    6756:	46 4f       	mov.b	r15,	r6	
    6758:	0a 4d       	mov	r13,	r10	
    675a:	0b 4e       	mov	r14,	r11	
    675c:	17 41 0e 00 	mov	14(r1),	r7	;0x000e(r1)
    6760:	18 41 10 00 	mov	16(r1),	r8	;0x0010(r1)
    6764:	09 42       	mov	r2,	r9	
    6766:	39 f2       	and	#8,	r9	;r2 As==11
    6768:	32 c2       	dint			
    676a:	03 43       	nop			
    676c:	b0 12 3e 4d 	call	#0x4d3e	
    6770:	0e 5e       	rla	r14		
    6772:	0f 6f       	rlc	r15		
    6774:	0e 8a       	sub	r10,	r14	
    6776:	0f 7b       	subc	r11,	r15	
    6778:	0c 4e       	mov	r14,	r12	
    677a:	0d 4f       	mov	r15,	r13	
    677c:	0f 98       	cmp	r8,	r15	
    677e:	04 28       	jnc	$+10     	;abs 0x6788
    6780:	08 9f       	cmp	r15,	r8	
    6782:	04 28       	jnc	$+10     	;abs 0x678c
    6784:	0e 97       	cmp	r7,	r14	
    6786:	02 2c       	jc	$+6      	;abs 0x678c
    6788:	0c 47       	mov	r7,	r12	
    678a:	0d 48       	mov	r8,	r13	
    678c:	0a 4c       	mov	r12,	r10	
    678e:	0b 4d       	mov	r13,	r11	
    6790:	0a 8e       	sub	r14,	r10	
    6792:	0b 7f       	subc	r15,	r11	
    6794:	0d 4a       	mov	r10,	r13	
    6796:	0e 4b       	mov	r11,	r14	
    6798:	12 c3       	clrc			
    679a:	0e 10       	rrc	r14		
    679c:	0d 10       	rrc	r13		
    679e:	4f 46       	mov.b	r6,	r15	
    67a0:	b0 12 de 66 	call	#0x66de	
    67a4:	09 93       	tst	r9		
    67a6:	01 24       	jz	$+4      	;abs 0x67aa
    67a8:	32 d2       	eint			
    67aa:	36 41       	pop	r6		
    67ac:	37 41       	pop	r7		
    67ae:	38 41       	pop	r8		
    67b0:	39 41       	pop	r9		
    67b2:	3a 41       	pop	r10		
    67b4:	3b 41       	pop	r11		
    67b6:	30 41       	ret			

000067b8 <CC2420TKN154P__ReliableWait__waitBackoff.part.178>:
    67b8:	0b 12       	push	r11		
    67ba:	0a 12       	push	r10		
    67bc:	0a 4e       	mov	r14,	r10	
    67be:	0b 4f       	mov	r15,	r11	
    67c0:	f2 40 03 00 0e 11 	mov.b	#3,	&0x110e	;#0x0003
    67c6:	b0 12 fa 4c 	call	#0x4cfa	
    67ca:	82 4e f2 14 	mov	r14,	&0x14f2	
    67ce:	82 4f f4 14 	mov	r15,	&0x14f4	
    67d2:	82 4a 1c 18 	mov	r10,	&0x181c	
    67d6:	82 4b 1e 18 	mov	r11,	&0x181e	
    67da:	12 c3       	clrc			
    67dc:	12 10 1e 18 	rrc	&0x181e	
    67e0:	12 10 1c 18 	rrc	&0x181c	
    67e4:	b0 12 d4 4e 	call	#0x4ed4	
    67e8:	3a 41       	pop	r10		
    67ea:	3b 41       	pop	r11		
    67ec:	30 41       	ret			

000067ee <CC2420TKN154P__nextIterationUnslottedCsma>:
    67ee:	0b 12       	push	r11		
    67f0:	1f 42 c2 11 	mov	&0x11c2,r15	
    67f4:	6b 4f       	mov.b	@r15,	r11	
    67f6:	b0 12 d8 53 	call	#0x53d8	
    67fa:	b2 40 0d 00 18 11 	mov	#13,	&0x1118	;#0x000d
    6800:	c2 93 0e 11 	tst.b	&0x110e	
    6804:	13 20       	jnz	$+40     	;abs 0x682c
    6806:	3f 43       	mov	#-1,	r15	;r3 As==11
    6808:	4d 4b       	mov.b	r11,	r13	
    680a:	7d f0 0f 00 	and.b	#15,	r13	;#0x000f
    680e:	4d 93       	tst.b	r13		
    6810:	03 24       	jz	$+8      	;abs 0x6818
    6812:	0f 5f       	rla	r15		
    6814:	7d 53       	add.b	#-1,	r13	;r3 As==11
    6816:	fb 3f       	jmp	$-8      	;abs 0x680e
    6818:	0e cf       	bic	r15,	r14	
    681a:	0e 5e       	rla	r14		
    681c:	0e 5e       	rla	r14		
    681e:	0f 4e       	mov	r14,	r15	
    6820:	0f 5f       	rla	r15		
    6822:	0f 5f       	rla	r15		
    6824:	0e 5f       	add	r15,	r14	
    6826:	0f 43       	clr	r15		
    6828:	b0 12 b8 67 	call	#0x67b8	
    682c:	3b 41       	pop	r11		
    682e:	30 41       	ret			

00006830 <RadioControlImplP__MacRadioOff__off>:
    6830:	0b 12       	push	r11		
    6832:	4b 4f       	mov.b	r15,	r11	
    6834:	b0 12 32 4c 	call	#0x4c32	
    6838:	4b 9f       	cmp.b	r15,	r11	
    683a:	20 20       	jnz	$+66     	;abs 0x687c
    683c:	0f 42       	mov	r2,	r15	
    683e:	3f f2       	and	#8,	r15	;r2 As==11
    6840:	32 c2       	dint			
    6842:	03 43       	nop			
    6844:	1e 42 18 11 	mov	&0x1118,r14	
    6848:	2e 92       	cmp	#4,	r14	;r2 As==10
    684a:	04 20       	jnz	$+10     	;abs 0x6854
    684c:	0f 93       	tst	r15		
    684e:	11 24       	jz	$+36     	;abs 0x6872
    6850:	32 d2       	eint			
    6852:	0f 3c       	jmp	$+32     	;abs 0x6872
    6854:	3e 90 07 00 	cmp	#7,	r14	;#0x0007
    6858:	04 24       	jz	$+10     	;abs 0x6862
    685a:	0f 93       	tst	r15		
    685c:	0d 24       	jz	$+28     	;abs 0x6878
    685e:	32 d2       	eint			
    6860:	0b 3c       	jmp	$+24     	;abs 0x6878
    6862:	b2 42 18 11 	mov	#8,	&0x1118	;r2 As==11
    6866:	0f 93       	tst	r15		
    6868:	01 24       	jz	$+4      	;abs 0x686c
    686a:	32 d2       	eint			
    686c:	b0 12 dc 63 	call	#0x63dc	
    6870:	07 3c       	jmp	$+16     	;abs 0x6880
    6872:	3f 40 09 00 	mov	#9,	r15	;#0x0009
    6876:	04 3c       	jmp	$+10     	;abs 0x6880
    6878:	1f 43       	mov	#1,	r15	;r3 As==01
    687a:	02 3c       	jmp	$+6      	;abs 0x6880
    687c:	3f 40 05 00 	mov	#5,	r15	;#0x0005
    6880:	3b 41       	pop	r11		
    6882:	30 41       	ret			

00006884 <BeaconTransmitP__PIBUpdate__notify.isra.233>:
    6884:	7f 90 41 00 	cmp.b	#65,	r15	;#0x0041
    6888:	04 24       	jz	$+10     	;abs 0x6892
    688a:	7f 90 4d 00 	cmp.b	#77,	r15	;#0x004d
    688e:	12 20       	jnz	$+38     	;abs 0x68b4
    6890:	09 3c       	jmp	$+20     	;abs 0x68a4
    6892:	0f 42       	mov	r2,	r15	
    6894:	32 c2       	dint			
    6896:	03 43       	nop			
    6898:	d2 d3 1a 14 	bis.b	#1,	&0x141a	;r3 As==01
    689c:	3f f2       	and	#8,	r15	;r2 As==11
    689e:	0a 24       	jz	$+22     	;abs 0x68b4
    68a0:	32 d2       	eint			
    68a2:	30 41       	ret			
    68a4:	0f 42       	mov	r2,	r15	
    68a6:	32 c2       	dint			
    68a8:	03 43       	nop			
    68aa:	e2 d3 1a 14 	bis.b	#2,	&0x141a	;r3 As==10
    68ae:	3f f2       	and	#8,	r15	;r2 As==11
    68b0:	01 24       	jz	$+4      	;abs 0x68b4
    68b2:	32 d2       	eint			
    68b4:	30 41       	ret			

000068b6 <IndirectTxP__PendingAddrSpecUpdated__notify.isra.253>:
    68b6:	0f 42       	mov	r2,	r15	
    68b8:	32 c2       	dint			
    68ba:	03 43       	nop			
    68bc:	e2 d2 1a 14 	bis.b	#4,	&0x141a	;r2 As==10
    68c0:	3f f2       	and	#8,	r15	;r2 As==11
    68c2:	01 24       	jz	$+4      	;abs 0x68c6
    68c4:	32 d2       	eint			
    68c6:	30 41       	ret			

000068c8 <IndirectTxP__FrameTx__transmit.part.254>:
    68c8:	0b 12       	push	r11		
    68ca:	0a 12       	push	r10		
    68cc:	0a 4e       	mov	r14,	r10	
    68ce:	ce 4f 08 00 	mov.b	r15,	8(r14)	;0x0008(r14)
    68d2:	7f 40 0f 00 	mov.b	#15,	r15	;#0x000f
    68d6:	b0 12 3e 4d 	call	#0x4d3e	
    68da:	0c 4e       	mov	r14,	r12	
    68dc:	0d 4f       	mov	r15,	r13	
    68de:	0c 5c       	rla	r12		
    68e0:	0d 6d       	rlc	r13		
    68e2:	1b 4a 04 00 	mov	4(r10),	r11	;0x0004(r10)
    68e6:	cb 4c 03 00 	mov.b	r12,	3(r11)	;0x0003(r11)
    68ea:	0f 4c       	mov	r12,	r15	
    68ec:	0c 4d       	mov	r13,	r12	
    68ee:	8f 10       	swpb	r15		
    68f0:	8c 10       	swpb	r12		
    68f2:	4f ec       	xor.b	r12,	r15	
    68f4:	0f ec       	xor	r12,	r15	
    68f6:	cb 4f 02 00 	mov.b	r15,	2(r11)	;0x0002(r11)
    68fa:	0f 4d       	mov	r13,	r15	
    68fc:	cb 4d 01 00 	mov.b	r13,	1(r11)	;0x0001(r11)
    6900:	8f 10       	swpb	r15		
    6902:	cb 4f 00 00 	mov.b	r15,	0(r11)	;0x0000(r11)
    6906:	3e 40 7c 11 	mov	#4476,	r14	;#0x117c
    690a:	4f 43       	clr.b	r15		
    690c:	8e 93 00 00 	tst	0(r14)		;0x0000(r14)
    6910:	05 24       	jz	$+12     	;abs 0x691c
    6912:	5f 53       	inc.b	r15		
    6914:	2e 53       	incd	r14		
    6916:	7f 90 07 00 	cmp.b	#7,	r15	;#0x0007
    691a:	f8 23       	jnz	$-14     	;abs 0x690c
    691c:	4f 4f       	mov.b	r15,	r15	
    691e:	0f 5f       	rla	r15		
    6920:	8f 4a 7c 11 	mov	r10,	4476(r15);0x117c(r15)
    6924:	d2 53 1a 15 	inc.b	&0x151a	
    6928:	2f 4a       	mov	@r10,	r15	
    692a:	5f 4f 02 00 	mov.b	2(r15),	r15	;0x0002(r15)
    692e:	3f f0 0c 00 	and	#12,	r15	;#0x000c
    6932:	3f 92       	cmp	#8,	r15	;r2 As==11
    6934:	03 20       	jnz	$+8      	;abs 0x693c
    6936:	d2 53 b6 16 	inc.b	&0x16b6	
    693a:	05 3c       	jmp	$+12     	;abs 0x6946
    693c:	3f 90 0c 00 	cmp	#12,	r15	;#0x000c
    6940:	02 20       	jnz	$+6      	;abs 0x6946
    6942:	d2 53 c2 17 	inc.b	&0x17c2	
    6946:	e2 b3 76 15 	bit.b	#2,	&0x1576	;r3 As==10
    694a:	0f 43       	clr	r15		
    694c:	0f 6f       	rlc	r15		
    694e:	4f 93       	tst.b	r15		
    6950:	29 20       	jnz	$+84     	;abs 0x69a4
    6952:	5e 42 e5 13 	mov.b	&0x13e5,r14	
    6956:	7e 90 0f 00 	cmp.b	#15,	r14	;#0x000f
    695a:	16 2c       	jc	$+46     	;abs 0x6988
    695c:	1f 43       	mov	#1,	r15	;r3 As==01
    695e:	7e f0 0f 00 	and.b	#15,	r14	;#0x000f
    6962:	4e 93       	tst.b	r14		
    6964:	03 24       	jz	$+8      	;abs 0x696c
    6966:	0f 5f       	rla	r15		
    6968:	7e 53       	add.b	#-1,	r14	;r3 As==11
    696a:	fb 3f       	jmp	$-8      	;abs 0x6962
    696c:	02 12       	push	r2		
    696e:	32 c2       	dint			
    6970:	03 43       	nop			
    6972:	82 4f 30 01 	mov	r15,	&0x0130	
    6976:	b2 40 c0 03 38 01 	mov	#960,	&0x0138	;#0x03c0
    697c:	1e 42 3a 01 	mov	&0x013a,r14	
    6980:	1f 42 3c 01 	mov	&0x013c,r15	
    6984:	32 41       	pop	r2		
    6986:	03 3c       	jmp	$+8      	;abs 0x698e
    6988:	3e 40 c0 03 	mov	#960,	r14	;#0x03c0
    698c:	0f 43       	clr	r15		
    698e:	1c 42 f4 13 	mov	&0x13f4,r12	
    6992:	0d 43       	clr	r13		
    6994:	b0 12 00 bb 	call	#0xbb00	
    6998:	0d 4e       	mov	r14,	r13	
    699a:	0e 4f       	mov	r15,	r14	
    699c:	7f 40 03 00 	mov.b	#3,	r15	;#0x0003
    69a0:	b0 12 9c 4d 	call	#0x4d9c	
    69a4:	b0 12 b6 68 	call	#0x68b6	
    69a8:	0f 43       	clr	r15		
    69aa:	3a 41       	pop	r10		
    69ac:	3b 41       	pop	r11		
    69ae:	30 41       	ret			

000069b0 <NWKP__MLME_COMM_STATUS__indication.isra.257.part.258>:
    69b0:	0f 42       	mov	r2,	r15	
    69b2:	32 c2       	dint			
    69b4:	03 43       	nop			
    69b6:	f2 f0 ef ff 31 00 	and.b	#-17,	&0x0031	;#0xffef
    69bc:	3f f2       	and	#8,	r15	;r2 As==11
    69be:	01 24       	jz	$+4      	;abs 0x69c2
    69c0:	32 d2       	eint			
    69c2:	30 41       	ret			

000069c4 <HplMsp430Usart0P__Usart__setModeSpi.constprop.271>:
    69c4:	0b 12       	push	r11		
    69c6:	0b 42       	mov	r2,	r11	
    69c8:	32 c2       	dint			
    69ca:	03 43       	nop			
    69cc:	5f 43       	mov.b	#1,	r15	;r3 As==01
    69ce:	b0 12 8e 5c 	call	#0x5c8e	
    69d2:	f2 f0 da ff 70 00 	and.b	#-38,	&0x0070	;#0xffda
    69d8:	5f 43       	mov.b	#1,	r15	;r3 As==01
    69da:	b0 12 8e 5c 	call	#0x5c8e	
    69de:	f2 f0 3f 00 04 00 	and.b	#63,	&0x0004	;#0x003f
    69e4:	f2 f0 ef ff 1b 00 	and.b	#-17,	&0x001b	;#0xffef
    69ea:	f2 f0 df ff 1b 00 	and.b	#-33,	&0x001b	;#0xffdf
    69f0:	5f 42 bc bf 	mov.b	&0xbfbc,r15	
    69f4:	7f d0 05 00 	bis.b	#5,	r15	;#0x0005
    69f8:	c2 4f 70 00 	mov.b	r15,	&0x0070	
    69fc:	d2 42 bd bf 71 00 	mov.b	&0xbfbd,&0x0071	
    6a02:	e2 43 74 00 	mov.b	#2,	&0x0074	;r3 As==10
    6a06:	c2 43 75 00 	mov.b	#0,	&0x0075	;r3 As==00
    6a0a:	c2 43 73 00 	mov.b	#0,	&0x0073	;r3 As==00
    6a0e:	e2 d3 1b 00 	bis.b	#2,	&0x001b	;r3 As==10
    6a12:	e2 d2 1b 00 	bis.b	#4,	&0x001b	;r2 As==10
    6a16:	f2 d2 1b 00 	bis.b	#8,	&0x001b	;r2 As==11
    6a1a:	f2 d0 40 00 04 00 	bis.b	#64,	&0x0004	;#0x0040
    6a20:	4f 43       	clr.b	r15		
    6a22:	b0 12 8e 5c 	call	#0x5c8e	
    6a26:	f2 f0 3f 00 02 00 	and.b	#63,	&0x0002	;#0x003f
    6a2c:	f2 f0 3f 00 00 00 	and.b	#63,	&0x0000	;#0x003f
    6a32:	3b b2       	bit	#8,	r11	;r2 As==11
    6a34:	01 24       	jz	$+4      	;abs 0x6a38
    6a36:	32 d2       	eint			
    6a38:	3b 41       	pop	r11		
    6a3a:	30 41       	ret			

00006a3c <CC2420SpiP__Resource__immediateRequest>:
    6a3c:	0b 12       	push	r11		
    6a3e:	0a 12       	push	r10		
    6a40:	4a 4f       	mov.b	r15,	r10	
    6a42:	0b 42       	mov	r2,	r11	
    6a44:	3b f2       	and	#8,	r11	;r2 As==11
    6a46:	32 c2       	dint			
    6a48:	03 43       	nop			
    6a4a:	c2 93 b7 16 	tst.b	&0x16b7	
    6a4e:	06 20       	jnz	$+14     	;abs 0x6a5c
    6a50:	d2 43 b7 16 	mov.b	#1,	&0x16b7	;r3 As==01
    6a54:	c2 93 01 11 	tst.b	&0x1101	
    6a58:	05 24       	jz	$+12     	;abs 0x6a64
    6a5a:	08 3c       	jmp	$+18     	;abs 0x6a6c
    6a5c:	0b 93       	tst	r11		
    6a5e:	23 24       	jz	$+72     	;abs 0x6aa6
    6a60:	32 d2       	eint			
    6a62:	21 3c       	jmp	$+68     	;abs 0x6aa6
    6a64:	1f 43       	mov	#1,	r15	;r3 As==01
    6a66:	e2 92 b3 12 	cmp.b	#4,	&0x12b3	;r2 As==10
    6a6a:	01 24       	jz	$+4      	;abs 0x6a6e
    6a6c:	0f 43       	clr	r15		
    6a6e:	4f 93       	tst.b	r15		
    6a70:	0f 20       	jnz	$+32     	;abs 0x6a90
    6a72:	c2 93 b3 12 	tst.b	&0x12b3	
    6a76:	1c 20       	jnz	$+58     	;abs 0x6ab0
    6a78:	f2 40 03 00 b3 12 	mov.b	#3,	&0x12b3	;#0x0003
    6a7e:	c2 43 00 11 	mov.b	#0,	&0x1100	;r3 As==00
    6a82:	b0 12 4c 62 	call	#0x624c	
    6a86:	c2 93 01 11 	tst.b	&0x1101	
    6a8a:	06 20       	jnz	$+14     	;abs 0x6a98
    6a8c:	b0 12 c4 69 	call	#0x69c4	
    6a90:	c2 4a 04 11 	mov.b	r10,	&0x1104	
    6a94:	0f 43       	clr	r15		
    6a96:	03 3c       	jmp	$+8      	;abs 0x6a9e
    6a98:	c2 43 b3 12 	mov.b	#0,	&0x12b3	;r3 As==00
    6a9c:	09 3c       	jmp	$+20     	;abs 0x6ab0
    6a9e:	0b 93       	tst	r11		
    6aa0:	04 24       	jz	$+10     	;abs 0x6aaa
    6aa2:	32 d2       	eint			
    6aa4:	02 3c       	jmp	$+6      	;abs 0x6aaa
    6aa6:	3f 40 05 00 	mov	#5,	r15	;#0x0005
    6aaa:	3a 41       	pop	r10		
    6aac:	3b 41       	pop	r11		
    6aae:	30 41       	ret			
    6ab0:	c2 43 b7 16 	mov.b	#0,	&0x16b7	;r3 As==00
    6ab4:	1f 43       	mov	#1,	r15	;r3 As==01
    6ab6:	f3 3f       	jmp	$-24     	;abs 0x6a9e

00006ab8 <CC2420TKN154P__loadTxFrame.isra.182>:
    6ab8:	b0 12 44 4b 	call	#0x4b44	
    6abc:	4f 93       	tst.b	r15		
    6abe:	04 20       	jnz	$+10     	;abs 0x6ac8
    6ac0:	b0 12 3c 6a 	call	#0x6a3c	
    6ac4:	0f 93       	tst	r15		
    6ac6:	03 20       	jnz	$+8      	;abs 0x6ace
    6ac8:	b0 12 d0 60 	call	#0x60d0	
    6acc:	30 41       	ret			
    6ace:	b0 12 38 63 	call	#0x6338	
    6ad2:	30 41       	ret			

00006ad4 <RadioControlImplP__MacTx__transmit.part.183>:
    6ad4:	0b 12       	push	r11		
    6ad6:	0f 93       	tst	r15		
    6ad8:	35 24       	jz	$+108    	;abs 0x6b44
    6ada:	8f 93 00 00 	tst	0(r15)		;0x0000(r15)
    6ade:	32 24       	jz	$+102    	;abs 0x6b44
    6ae0:	8f 93 02 00 	tst	2(r15)		;0x0002(r15)
    6ae4:	03 20       	jnz	$+8      	;abs 0x6aec
    6ae6:	cf 93 07 00 	tst.b	7(r15)		;0x0007(r15)
    6aea:	2c 20       	jnz	$+90     	;abs 0x6b44
    6aec:	8f 93 04 00 	tst	4(r15)		;0x0004(r15)
    6af0:	29 24       	jz	$+84     	;abs 0x6b44
    6af2:	5c 4f 06 00 	mov.b	6(r15),	r12	;0x0006(r15)
    6af6:	5b 4f 07 00 	mov.b	7(r15),	r11	;0x0007(r15)
    6afa:	0c 5b       	add	r11,	r12	
    6afc:	3c 90 7e 00 	cmp	#126,	r12	;#0x007e
    6b00:	21 34       	jge	$+68     	;abs 0x6b44
    6b02:	0c 42       	mov	r2,	r12	
    6b04:	3c f2       	and	#8,	r12	;r2 As==11
    6b06:	32 c2       	dint			
    6b08:	03 43       	nop			
    6b0a:	a2 92 18 11 	cmp	#4,	&0x1118	;r2 As==10
    6b0e:	04 24       	jz	$+10     	;abs 0x6b18
    6b10:	0c 93       	tst	r12		
    6b12:	1b 24       	jz	$+56     	;abs 0x6b4a
    6b14:	32 d2       	eint			
    6b16:	19 3c       	jmp	$+52     	;abs 0x6b4a
    6b18:	b2 40 09 00 18 11 	mov	#9,	&0x1118	;#0x0009
    6b1e:	0c 93       	tst	r12		
    6b20:	01 24       	jz	$+4      	;abs 0x6b24
    6b22:	32 d2       	eint			
    6b24:	82 4f b4 16 	mov	r15,	&0x16b4	
    6b28:	82 4d bc 12 	mov	r13,	&0x12bc	
    6b2c:	82 4e be 12 	mov	r14,	&0x12be	
    6b30:	92 41 04 00 8c 11 	mov	4(r1),	&0x118c	;0x0004(r1)
    6b36:	92 41 06 00 8e 11 	mov	6(r1),	&0x118e	;0x0006(r1)
    6b3c:	b0 12 b8 6a 	call	#0x6ab8	
    6b40:	0f 43       	clr	r15		
    6b42:	04 3c       	jmp	$+10     	;abs 0x6b4c
    6b44:	3f 40 06 00 	mov	#6,	r15	;#0x0006
    6b48:	01 3c       	jmp	$+4      	;abs 0x6b4c
    6b4a:	1f 43       	mov	#1,	r15	;r3 As==01
    6b4c:	3b 41       	pop	r11		
    6b4e:	30 41       	ret			

00006b50 <BeaconTransmitP__BeaconSendAlarm__fired>:
    6b50:	0b 12       	push	r11		
    6b52:	0a 12       	push	r10		
    6b54:	09 12       	push	r9		
    6b56:	08 12       	push	r8		
    6b58:	d2 43 38 18 	mov.b	#1,	&0x1838	;r3 As==01
    6b5c:	1f 42 46 15 	mov	&0x1546,r15	
    6b60:	c2 93 1b 15 	tst.b	&0x151b	
    6b64:	0e 20       	jnz	$+30     	;abs 0x6b82
    6b66:	1e 43       	mov	#1,	r14	;r3 As==01
    6b68:	82 93 18 14 	tst	&0x1418	
    6b6c:	04 20       	jnz	$+10     	;abs 0x6b76
    6b6e:	82 93 54 11 	tst	&0x1154	
    6b72:	01 20       	jnz	$+4      	;abs 0x6b76
    6b74:	0e 43       	clr	r14		
    6b76:	0e 93       	tst	r14		
    6b78:	04 24       	jz	$+10     	;abs 0x6b82
    6b7a:	ff d0 10 00 01 00 	bis.b	#16,	1(r15)	;#0x0010, 0x0001(r15)
    6b80:	03 3c       	jmp	$+8      	;abs 0x6b88
    6b82:	ff f0 ef ff 01 00 	and.b	#-17,	1(r15)	;#0xffef, 0x0001(r15)
    6b88:	c2 93 fa 17 	tst.b	&0x17fa	
    6b8c:	06 24       	jz	$+14     	;abs 0x6b9a
    6b8e:	c2 43 fa 17 	mov.b	#0,	&0x17fa	;r3 As==00
    6b92:	82 43 12 12 	mov	#0,	&0x1212	;r3 As==00
    6b96:	82 43 14 12 	mov	#0,	&0x1214	;r3 As==00
    6b9a:	18 42 12 12 	mov	&0x1212,r8	
    6b9e:	19 42 14 12 	mov	&0x1214,r9	
    6ba2:	1a 42 12 15 	mov	&0x1512,r10	
    6ba6:	1b 42 14 15 	mov	&0x1514,r11	
    6baa:	b0 12 32 4c 	call	#0x4c32	
    6bae:	7f 90 03 00 	cmp.b	#3,	r15	;#0x0003
    6bb2:	09 20       	jnz	$+20     	;abs 0x6bc6
    6bb4:	09 12       	push	r9		
    6bb6:	08 12       	push	r8		
    6bb8:	0d 4a       	mov	r10,	r13	
    6bba:	0e 4b       	mov	r11,	r14	
    6bbc:	3f 40 46 15 	mov	#5446,	r15	;#0x1546
    6bc0:	b0 12 d4 6a 	call	#0x6ad4	
    6bc4:	21 52       	add	#4,	r1	;r2 As==10
    6bc6:	38 41       	pop	r8		
    6bc8:	39 41       	pop	r9		
    6bca:	3a 41       	pop	r10		
    6bcc:	3b 41       	pop	r11		
    6bce:	30 41       	ret			

00006bd0 <BeaconTransmitP__prepareBeaconTransmission>:
    6bd0:	0b 12       	push	r11		
    6bd2:	0a 12       	push	r10		
    6bd4:	09 12       	push	r9		
    6bd6:	08 12       	push	r8		
    6bd8:	07 12       	push	r7		
    6bda:	d2 93 38 18 	cmp.b	#1,	&0x1838	;r3 As==01
    6bde:	05 20       	jnz	$+12     	;abs 0x6bea
    6be0:	7f 40 12 00 	mov.b	#18,	r15	;#0x0012
    6be4:	b0 12 fa 4a 	call	#0x4afa	
    6be8:	a0 3c       	jmp	$+322    	;abs 0x6d2a
    6bea:	f2 90 0f 00 cc 17 	cmp.b	#15,	&0x17cc	;#0x000f
    6bf0:	05 20       	jnz	$+12     	;abs 0x6bfc
    6bf2:	7f 40 03 00 	mov.b	#3,	r15	;#0x0003
    6bf6:	b0 12 80 52 	call	#0x5280	
    6bfa:	97 3c       	jmp	$+304    	;abs 0x6d2a
    6bfc:	07 42       	mov	r2,	r7	
    6bfe:	37 f2       	and	#8,	r7	;r2 As==11
    6c00:	32 c2       	dint			
    6c02:	03 43       	nop			
    6c04:	e2 43 38 18 	mov.b	#2,	&0x1838	;r3 As==10
    6c08:	c2 93 fa 17 	tst.b	&0x17fa	
    6c0c:	89 20       	jnz	$+276    	;abs 0x6d20
    6c0e:	1e 42 9a 11 	mov	&0x119a,r14	
    6c12:	1f 42 9c 11 	mov	&0x119c,r15	
    6c16:	0e 93       	tst	r14		
    6c18:	02 20       	jnz	$+6      	;abs 0x6c1e
    6c1a:	0f 93       	tst	r15		
    6c1c:	33 24       	jz	$+104    	;abs 0x6c84
    6c1e:	5d 42 50 11 	mov.b	&0x1150,r13	
    6c22:	7d f0 0c 00 	and.b	#12,	r13	;#0x000c
    6c26:	7d 92       	cmp.b	#8,	r13	;r2 As==11
    6c28:	50 20       	jnz	$+162    	;abs 0x6cca
    6c2a:	1e 52 20 18 	add	&0x1820,r14	
    6c2e:	1f 62 22 18 	addc	&0x1822,r15	
    6c32:	1e 82 ee 14 	sub	&0x14ee,r14	
    6c36:	1f 72 f0 14 	subc	&0x14f0,r15	
    6c3a:	f2 90 0a 00 cc 17 	cmp.b	#10,	&0x17cc	;#0x000a
    6c40:	04 28       	jnc	$+10     	;abs 0x6c4a
    6c42:	3c 40 d0 05 	mov	#1488,	r12	;#0x05d0
    6c46:	0d 43       	clr	r13		
    6c48:	03 3c       	jmp	$+8      	;abs 0x6c50
    6c4a:	3c 40 3e 00 	mov	#62,	r12	;#0x003e
    6c4e:	0d 43       	clr	r13		
    6c50:	1a 42 12 15 	mov	&0x1512,r10	
    6c54:	1b 42 14 15 	mov	&0x1514,r11	
    6c58:	08 4e       	mov	r14,	r8	
    6c5a:	09 4f       	mov	r15,	r9	
    6c5c:	08 8a       	sub	r10,	r8	
    6c5e:	09 7b       	subc	r11,	r9	
    6c60:	09 9d       	cmp	r13,	r9	
    6c62:	0b 28       	jnc	$+24     	;abs 0x6c7a
    6c64:	02 20       	jnz	$+6      	;abs 0x6c6a
    6c66:	08 9c       	cmp	r12,	r8	
    6c68:	08 28       	jnc	$+18     	;abs 0x6c7a
    6c6a:	0a 8e       	sub	r14,	r10	
    6c6c:	0b 7f       	subc	r15,	r11	
    6c6e:	0b 9d       	cmp	r13,	r11	
    6c70:	04 28       	jnc	$+10     	;abs 0x6c7a
    6c72:	0d 9b       	cmp	r11,	r13	
    6c74:	2a 28       	jnc	$+86     	;abs 0x6cca
    6c76:	0a 9c       	cmp	r12,	r10	
    6c78:	28 2c       	jc	$+82     	;abs 0x6cca
    6c7a:	82 4e 12 15 	mov	r14,	&0x1512	
    6c7e:	82 4f 14 15 	mov	r15,	&0x1514	
    6c82:	23 3c       	jmp	$+72     	;abs 0x6cca
    6c84:	1e 42 76 11 	mov	&0x1176,r14	
    6c88:	1f 42 78 11 	mov	&0x1178,r15	
    6c8c:	0e 93       	tst	r14		
    6c8e:	02 20       	jnz	$+6      	;abs 0x6c94
    6c90:	0f 93       	tst	r15		
    6c92:	1b 24       	jz	$+56     	;abs 0x6cca
    6c94:	82 4e 12 12 	mov	r14,	&0x1212	
    6c98:	82 4f 14 12 	mov	r15,	&0x1214	
    6c9c:	82 43 76 11 	mov	#0,	&0x1176	;r3 As==00
    6ca0:	82 43 78 11 	mov	#0,	&0x1178	;r3 As==00
    6ca4:	5f 42 8a 11 	mov.b	&0x118a,r15	
    6ca8:	2f b2       	bit	#4,	r15	;r2 As==10
    6caa:	0f 24       	jz	$+32     	;abs 0x6cca
    6cac:	7f f0 fb ff 	and.b	#-5,	r15	;#0xfffb
    6cb0:	c2 4f 8a 11 	mov.b	r15,	&0x118a	
    6cb4:	7f 40 11 00 	mov.b	#17,	r15	;#0x0011
    6cb8:	b0 12 fa 4a 	call	#0x4afa	
    6cbc:	06 3c       	jmp	$+14     	;abs 0x6cca
    6cbe:	92 52 ee 14 12 12 	add	&0x14ee,&0x1212	
    6cc4:	92 62 f0 14 14 12 	addc	&0x14f0,&0x1214	
    6cca:	1c 42 12 12 	mov	&0x1212,r12	
    6cce:	1d 42 14 12 	mov	&0x1214,r13	
    6cd2:	1e 42 12 15 	mov	&0x1512,r14	
    6cd6:	1f 42 14 15 	mov	&0x1514,r15	
    6cda:	b0 12 58 4d 	call	#0x4d58	
    6cde:	4f 93       	tst.b	r15		
    6ce0:	ee 23       	jnz	$-34     	;abs 0x6cbe
    6ce2:	1c 42 12 12 	mov	&0x1212,r12	
    6ce6:	1d 42 14 12 	mov	&0x1214,r13	
    6cea:	1e 42 12 15 	mov	&0x1512,r14	
    6cee:	1f 42 14 15 	mov	&0x1514,r15	
    6cf2:	3e 50 70 fe 	add	#-400,	r14	;#0xfe70
    6cf6:	3f 63       	addc	#-1,	r15	;r3 As==11
    6cf8:	b0 12 58 4d 	call	#0x4d58	
    6cfc:	4f 93       	tst.b	r15		
    6cfe:	10 20       	jnz	$+34     	;abs 0x6d20
    6d00:	12 12 14 12 	push	&0x1214	
    6d04:	12 12 12 12 	push	&0x1212	
    6d08:	1d 42 12 15 	mov	&0x1512,r13	
    6d0c:	1e 42 14 15 	mov	&0x1514,r14	
    6d10:	3d 50 70 fe 	add	#-400,	r13	;#0xfe70
    6d14:	3e 63       	addc	#-1,	r14	;r3 As==11
    6d16:	6f 43       	mov.b	#2,	r15	;r3 As==10
    6d18:	b0 12 4a 67 	call	#0x674a	
    6d1c:	21 52       	add	#4,	r1	;r2 As==10
    6d1e:	02 3c       	jmp	$+6      	;abs 0x6d24
    6d20:	b0 12 50 6b 	call	#0x6b50	
    6d24:	07 93       	tst	r7		
    6d26:	01 24       	jz	$+4      	;abs 0x6d2a
    6d28:	32 d2       	eint			
    6d2a:	37 41       	pop	r7		
    6d2c:	38 41       	pop	r8		
    6d2e:	39 41       	pop	r9		
    6d30:	3a 41       	pop	r10		
    6d32:	3b 41       	pop	r11		
    6d34:	30 41       	ret			

00006d36 <BeaconTransmitP__nextRound>:
    6d36:	7f 40 03 00 	mov.b	#3,	r15	;#0x0003
    6d3a:	b0 12 44 4c 	call	#0x4c44	
    6d3e:	4f 93       	tst.b	r15		
    6d40:	03 24       	jz	$+8      	;abs 0x6d48
    6d42:	b0 12 d0 6b 	call	#0x6bd0	
    6d46:	30 41       	ret			
    6d48:	7f 40 03 00 	mov.b	#3,	r15	;#0x0003
    6d4c:	b0 12 30 68 	call	#0x6830	
    6d50:	30 41       	ret			

00006d52 <CC2420TKN154P__SlottedCsmaCa__transmit>:
    6d52:	0b 12       	push	r11		
    6d54:	0a 12       	push	r10		
    6d56:	0f 93       	tst	r15		
    6d58:	3d 24       	jz	$+124    	;abs 0x6dd4
    6d5a:	8f 93 00 00 	tst	0(r15)		;0x0000(r15)
    6d5e:	3a 24       	jz	$+118    	;abs 0x6dd4
    6d60:	8f 93 02 00 	tst	2(r15)		;0x0002(r15)
    6d64:	03 20       	jnz	$+8      	;abs 0x6d6c
    6d66:	cf 93 07 00 	tst.b	7(r15)		;0x0007(r15)
    6d6a:	34 20       	jnz	$+106    	;abs 0x6dd4
    6d6c:	8f 93 04 00 	tst	4(r15)		;0x0004(r15)
    6d70:	31 24       	jz	$+100    	;abs 0x6dd4
    6d72:	5b 4f 06 00 	mov.b	6(r15),	r11	;0x0006(r15)
    6d76:	5a 4f 07 00 	mov.b	7(r15),	r10	;0x0007(r15)
    6d7a:	0b 5a       	add	r10,	r11	
    6d7c:	3b 90 7e 00 	cmp	#126,	r11	;#0x007e
    6d80:	29 34       	jge	$+84     	;abs 0x6dd4
    6d82:	0b 42       	mov	r2,	r11	
    6d84:	3b f2       	and	#8,	r11	;r2 As==11
    6d86:	32 c2       	dint			
    6d88:	03 43       	nop			
    6d8a:	a2 92 18 11 	cmp	#4,	&0x1118	;r2 As==10
    6d8e:	04 24       	jz	$+10     	;abs 0x6d98
    6d90:	0b 93       	tst	r11		
    6d92:	23 24       	jz	$+72     	;abs 0x6dda
    6d94:	32 d2       	eint			
    6d96:	21 3c       	jmp	$+68     	;abs 0x6dda
    6d98:	b2 40 0b 00 18 11 	mov	#11,	&0x1118	;#0x000b
    6d9e:	0b 93       	tst	r11		
    6da0:	01 24       	jz	$+4      	;abs 0x6da4
    6da2:	32 d2       	eint			
    6da4:	82 4f b4 16 	mov	r15,	&0x16b4	
    6da8:	82 4e c2 11 	mov	r14,	&0x11c2	
    6dac:	82 4c bc 12 	mov	r12,	&0x12bc	
    6db0:	82 4d be 12 	mov	r13,	&0x12be	
    6db4:	92 41 06 00 8c 11 	mov	6(r1),	&0x118c	;0x0006(r1)
    6dba:	92 41 08 00 8e 11 	mov	8(r1),	&0x118e	;0x0008(r1)
    6dc0:	d2 41 0a 00 26 18 	mov.b	10(r1),	&0x1826	;0x000a(r1)
    6dc6:	92 41 0c 00 be 17 	mov	12(r1),	&0x17be	;0x000c(r1)
    6dcc:	b0 12 b8 6a 	call	#0x6ab8	
    6dd0:	0f 43       	clr	r15		
    6dd2:	04 3c       	jmp	$+10     	;abs 0x6ddc
    6dd4:	3f 40 06 00 	mov	#6,	r15	;#0x0006
    6dd8:	01 3c       	jmp	$+4      	;abs 0x6ddc
    6dda:	1f 43       	mov	#1,	r15	;r3 As==01
    6ddc:	3a 41       	pop	r10		
    6dde:	3b 41       	pop	r11		
    6de0:	30 41       	ret			

00006de2 <DispatchSlottedCsmaP__1__tryTransmit>:
    6de2:	0b 12       	push	r11		
    6de4:	0a 12       	push	r10		
    6de6:	09 12       	push	r9		
    6de8:	08 12       	push	r8		
    6dea:	07 12       	push	r7		
    6dec:	06 12       	push	r6		
    6dee:	05 12       	push	r5		
    6df0:	58 42 cc 11 	mov.b	&0x11cc,r8	
    6df4:	1a 42 bc 16 	mov	&0x16bc,r10	
    6df8:	1b 42 be 16 	mov	&0x16be,r11	
    6dfc:	7f 40 05 00 	mov.b	#5,	r15	;#0x0005
    6e00:	b0 12 44 4c 	call	#0x4c44	
    6e04:	4f 93       	tst.b	r15		
    6e06:	54 24       	jz	$+170    	;abs 0x6eb0
    6e08:	0c 4a       	mov	r10,	r12	
    6e0a:	0d 4b       	mov	r11,	r13	
    6e0c:	4e 48       	mov.b	r8,	r14	
    6e0e:	0f 43       	clr	r15		
    6e10:	b0 12 00 bb 	call	#0xbb00	
    6e14:	08 4e       	mov	r14,	r8	
    6e16:	09 4f       	mov	r15,	r9	
    6e18:	0a 4e       	mov	r14,	r10	
    6e1a:	0b 4f       	mov	r15,	r11	
    6e1c:	1a 82 3a 18 	sub	&0x183a,r10	
    6e20:	1b 72 3c 18 	subc	&0x183c,r11	
    6e24:	3a 50 5c fe 	add	#-420,	r10	;#0xfe5c
    6e28:	3b 63       	addc	#-1,	r11	;r3 As==11
    6e2a:	3c 40 14 00 	mov	#20,	r12	;#0x0014
    6e2e:	0d 43       	clr	r13		
    6e30:	0e 4a       	mov	r10,	r14	
    6e32:	0f 4b       	mov	r11,	r15	
    6e34:	b0 12 6a bc 	call	#0xbc6a	
    6e38:	3a 50 14 00 	add	#20,	r10	;#0x0014
    6e3c:	0b 63       	adc	r11		
    6e3e:	0a 8e       	sub	r14,	r10	
    6e40:	0b 7f       	subc	r15,	r11	
    6e42:	09 9b       	cmp	r11,	r9	
    6e44:	03 28       	jnc	$+8      	;abs 0x6e4c
    6e46:	04 20       	jnz	$+10     	;abs 0x6e50
    6e48:	08 9a       	cmp	r10,	r8	
    6e4a:	02 2c       	jc	$+6      	;abs 0x6e50
    6e4c:	0a 43       	clr	r10		
    6e4e:	0b 43       	clr	r11		
    6e50:	1f 42 ca 11 	mov	&0x11ca,r15	
    6e54:	0f 93       	tst	r15		
    6e56:	06 24       	jz	$+14     	;abs 0x6e64
    6e58:	0b 93       	tst	r11		
    6e5a:	02 20       	jnz	$+6      	;abs 0x6e60
    6e5c:	0f 9a       	cmp	r10,	r15	
    6e5e:	02 2c       	jc	$+6      	;abs 0x6e64
    6e60:	0a 4f       	mov	r15,	r10	
    6e62:	0b 43       	clr	r11		
    6e64:	0c 4a       	mov	r10,	r12	
    6e66:	0d 4b       	mov	r11,	r13	
    6e68:	1e 42 12 15 	mov	&0x1512,r14	
    6e6c:	1f 42 14 15 	mov	&0x1514,r15	
    6e70:	b0 12 58 4d 	call	#0x4d58	
    6e74:	4f 93       	tst.b	r15		
    6e76:	1e 20       	jnz	$+62     	;abs 0x6eb4
    6e78:	15 42 b2 16 	mov	&0x16b2,r5	
    6e7c:	56 42 6a 16 	mov.b	&0x166a,r6	
    6e80:	18 42 12 15 	mov	&0x1512,r8	
    6e84:	19 42 14 15 	mov	&0x1514,r9	
    6e88:	17 42 1a 18 	mov	&0x181a,r7	
    6e8c:	b0 12 32 4c 	call	#0x4c32	
    6e90:	7f 90 05 00 	cmp.b	#5,	r15	;#0x0005
    6e94:	12 20       	jnz	$+38     	;abs 0x6eba
    6e96:	05 12       	push	r5		
    6e98:	46 12       	push.b	r6		
    6e9a:	0b 12       	push	r11		
    6e9c:	0a 12       	push	r10		
    6e9e:	0c 48       	mov	r8,	r12	
    6ea0:	0d 49       	mov	r9,	r13	
    6ea2:	3e 40 04 12 	mov	#4612,	r14	;#0x1204
    6ea6:	0f 47       	mov	r7,	r15	
    6ea8:	b0 12 52 6d 	call	#0x6d52	
    6eac:	31 52       	add	#8,	r1	;r2 As==11
    6eae:	05 3c       	jmp	$+12     	;abs 0x6eba
    6eb0:	0f 43       	clr	r15		
    6eb2:	04 3c       	jmp	$+10     	;abs 0x6ebc
    6eb4:	3f 40 03 00 	mov	#3,	r15	;#0x0003
    6eb8:	01 3c       	jmp	$+4      	;abs 0x6ebc
    6eba:	2f 43       	mov	#2,	r15	;r3 As==10
    6ebc:	35 41       	pop	r5		
    6ebe:	36 41       	pop	r6		
    6ec0:	37 41       	pop	r7		
    6ec2:	38 41       	pop	r8		
    6ec4:	39 41       	pop	r9		
    6ec6:	3a 41       	pop	r10		
    6ec8:	3b 41       	pop	r11		
    6eca:	30 41       	ret			

00006ecc <RadioControlImplP__MacRx__enableRx.part.193>:
    6ecc:	0b 12       	push	r11		
    6ece:	0b 42       	mov	r2,	r11	
    6ed0:	3b f2       	and	#8,	r11	;r2 As==11
    6ed2:	32 c2       	dint			
    6ed4:	03 43       	nop			
    6ed6:	a2 92 18 11 	cmp	#4,	&0x1118	;r2 As==10
    6eda:	04 24       	jz	$+10     	;abs 0x6ee4
    6edc:	0b 93       	tst	r11		
    6ede:	20 24       	jz	$+66     	;abs 0x6f20
    6ee0:	32 d2       	eint			
    6ee2:	1e 3c       	jmp	$+62     	;abs 0x6f20
    6ee4:	b2 40 05 00 18 11 	mov	#5,	&0x1118	;#0x0005
    6eea:	0b 93       	tst	r11		
    6eec:	01 24       	jz	$+4      	;abs 0x6ef0
    6eee:	32 d2       	eint			
    6ef0:	82 4e bc 12 	mov	r14,	&0x12bc	
    6ef4:	82 4f be 12 	mov	r15,	&0x12be	
    6ef8:	82 4c 8c 11 	mov	r12,	&0x118c	
    6efc:	82 4d 8e 11 	mov	r13,	&0x118e	
    6f00:	b0 12 64 4c 	call	#0x4c64	
    6f04:	0b 4f       	mov	r15,	r11	
    6f06:	0f 93       	tst	r15		
    6f08:	0c 20       	jnz	$+26     	;abs 0x6f22
    6f0a:	4f 43       	clr.b	r15		
    6f0c:	b0 12 3c 6a 	call	#0x6a3c	
    6f10:	0f 93       	tst	r15		
    6f12:	03 20       	jnz	$+8      	;abs 0x6f1a
    6f14:	b0 12 9e 78 	call	#0x789e	
    6f18:	04 3c       	jmp	$+10     	;abs 0x6f22
    6f1a:	b0 12 38 63 	call	#0x6338	
    6f1e:	01 3c       	jmp	$+4      	;abs 0x6f22
    6f20:	1b 43       	mov	#1,	r11	;r3 As==01
    6f22:	0f 4b       	mov	r11,	r15	
    6f24:	3b 41       	pop	r11		
    6f26:	30 41       	ret			

00006f28 <DispatchSlottedCsmaP__0__tryReceive>:
    6f28:	b0 12 32 4c 	call	#0x4c32	
    6f2c:	7f 90 09 00 	cmp.b	#9,	r15	;#0x0009
    6f30:	15 20       	jnz	$+44     	;abs 0x6f5c
    6f32:	b2 90 07 00 18 11 	cmp	#7,	&0x1118	;#0x0007
    6f38:	11 24       	jz	$+36     	;abs 0x6f5c
    6f3a:	b0 12 44 4c 	call	#0x4c44	
    6f3e:	4f 93       	tst.b	r15		
    6f40:	10 24       	jz	$+34     	;abs 0x6f62
    6f42:	b0 12 32 4c 	call	#0x4c32	
    6f46:	7f 90 09 00 	cmp.b	#9,	r15	;#0x0009
    6f4a:	0d 20       	jnz	$+28     	;abs 0x6f66
    6f4c:	0c 43       	clr	r12		
    6f4e:	0d 43       	clr	r13		
    6f50:	0e 43       	clr	r14		
    6f52:	0f 43       	clr	r15		
    6f54:	b0 12 cc 6e 	call	#0x6ecc	
    6f58:	1f 43       	mov	#1,	r15	;r3 As==01
    6f5a:	30 41       	ret			
    6f5c:	3f 40 03 00 	mov	#3,	r15	;#0x0003
    6f60:	30 41       	ret			
    6f62:	0f 43       	clr	r15		
    6f64:	30 41       	ret			
    6f66:	1f 43       	mov	#1,	r15	;r3 As==01
    6f68:	30 41       	ret			

00006f6a <BeaconSynchronizeP__TrackAlarm__fired>:
    6f6a:	0b 12       	push	r11		
    6f6c:	0a 12       	push	r10		
    6f6e:	09 12       	push	r9		
    6f70:	08 12       	push	r8		
    6f72:	07 12       	push	r7		
    6f74:	06 12       	push	r6		
    6f76:	f2 b0 03 00 50 11 	bit.b	#3,	&0x1150	;#0x0003
    6f7c:	20 20       	jnz	$+66     	;abs 0x6fbe
    6f7e:	1a 42 4a 11 	mov	&0x114a,r10	
    6f82:	1b 42 4c 11 	mov	&0x114c,r11	
    6f86:	1b 93       	cmp	#1,	r11	;r3 As==01
    6f88:	06 2c       	jc	$+14     	;abs 0x6f96
    6f8a:	3a 90 14 00 	cmp	#20,	r10	;#0x0014
    6f8e:	03 2c       	jc	$+8      	;abs 0x6f96
    6f90:	08 4a       	mov	r10,	r8	
    6f92:	09 4b       	mov	r11,	r9	
    6f94:	03 3c       	jmp	$+8      	;abs 0x6f9c
    6f96:	38 40 14 00 	mov	#20,	r8	;#0x0014
    6f9a:	09 43       	clr	r9		
    6f9c:	16 42 20 18 	mov	&0x1820,r6	
    6fa0:	17 42 22 18 	mov	&0x1822,r7	
    6fa4:	b0 12 32 4c 	call	#0x4c32	
    6fa8:	7f 92       	cmp.b	#8,	r15	;r2 As==11
    6faa:	0c 20       	jnz	$+26     	;abs 0x6fc4
    6fac:	0c 4a       	mov	r10,	r12	
    6fae:	0d 4b       	mov	r11,	r13	
    6fb0:	0c 88       	sub	r8,	r12	
    6fb2:	0d 79       	subc	r9,	r13	
    6fb4:	0e 46       	mov	r6,	r14	
    6fb6:	0f 47       	mov	r7,	r15	
    6fb8:	b0 12 cc 6e 	call	#0x6ecc	
    6fbc:	03 3c       	jmp	$+8      	;abs 0x6fc4
    6fbe:	7f 42       	mov.b	#8,	r15	;r2 As==11
    6fc0:	b0 12 30 68 	call	#0x6830	
    6fc4:	36 41       	pop	r6		
    6fc6:	37 41       	pop	r7		
    6fc8:	38 41       	pop	r8		
    6fca:	39 41       	pop	r9		
    6fcc:	3a 41       	pop	r10		
    6fce:	3b 41       	pop	r11		
    6fd0:	30 41       	ret			

00006fd2 <BeaconSynchronizeP__RadioOff__offDone>:
    6fd2:	5f 42 50 11 	mov.b	&0x1150,r15	
    6fd6:	7f f0 03 00 	and.b	#3,	r15	;#0x0003
    6fda:	7f 90 03 00 	cmp.b	#3,	r15	;#0x0003
    6fde:	0b 20       	jnz	$+24     	;abs 0x6ff6
    6fe0:	b0 12 32 4c 	call	#0x4c32	
    6fe4:	7f 92       	cmp.b	#8,	r15	;r2 As==11
    6fe6:	30 20       	jnz	$+98     	;abs 0x7048
    6fe8:	0c 43       	clr	r12		
    6fea:	0d 43       	clr	r13		
    6fec:	0e 43       	clr	r14		
    6fee:	0f 43       	clr	r15		
    6ff0:	b0 12 cc 6e 	call	#0x6ecc	
    6ff4:	30 41       	ret			
    6ff6:	4f 93       	tst.b	r15		
    6ff8:	23 20       	jnz	$+72     	;abs 0x7040
    6ffa:	1c 42 4a 11 	mov	&0x114a,r12	
    6ffe:	1d 42 4c 11 	mov	&0x114c,r13	
    7002:	1e 42 20 18 	mov	&0x1820,r14	
    7006:	1f 42 22 18 	mov	&0x1822,r15	
    700a:	3e 50 5c fe 	add	#-420,	r14	;#0xfe5c
    700e:	3f 63       	addc	#-1,	r15	;r3 As==11
    7010:	b0 12 58 4d 	call	#0x4d58	
    7014:	4f 93       	tst.b	r15		
    7016:	11 20       	jnz	$+36     	;abs 0x703a
    7018:	12 12 4c 11 	push	&0x114c	
    701c:	12 12 4a 11 	push	&0x114a	
    7020:	1d 42 20 18 	mov	&0x1820,r13	
    7024:	1e 42 22 18 	mov	&0x1822,r14	
    7028:	3d 50 5c fe 	add	#-420,	r13	;#0xfe5c
    702c:	3e 63       	addc	#-1,	r14	;r3 As==11
    702e:	7f 40 03 00 	mov.b	#3,	r15	;#0x0003
    7032:	b0 12 4a 67 	call	#0x674a	
    7036:	21 52       	add	#4,	r1	;r2 As==10
    7038:	30 41       	ret			
    703a:	b0 12 6a 6f 	call	#0x6f6a	
    703e:	30 41       	ret			
    7040:	7f 40 0a 00 	mov.b	#10,	r15	;#0x000a
    7044:	b0 12 fa 4a 	call	#0x4afa	
    7048:	30 41       	ret			

0000704a <DispatchSlottedCsmaP__1__updateState>:
    704a:	0b 12       	push	r11		
    704c:	0b 42       	mov	r2,	r11	
    704e:	3b f2       	and	#8,	r11	;r2 As==11
    7050:	32 c2       	dint			
    7052:	03 43       	nop			
    7054:	c2 93 44 14 	tst.b	&0x1444	
    7058:	64 20       	jnz	$+202    	;abs 0x7122
    705a:	7f 40 05 00 	mov.b	#5,	r15	;#0x0005
    705e:	b0 12 d2 51 	call	#0x51d2	
    7062:	4f 93       	tst.b	r15		
    7064:	5e 24       	jz	$+190    	;abs 0x7122
    7066:	d2 43 44 14 	mov.b	#1,	&0x1444	;r3 As==01
    706a:	1c 42 bc 16 	mov	&0x16bc,r12	
    706e:	1d 42 be 16 	mov	&0x16be,r13	
    7072:	5e 42 cc 11 	mov.b	&0x11cc,r14	
    7076:	0f 43       	clr	r15		
    7078:	b0 12 00 bb 	call	#0xbb00	
    707c:	0c 4e       	mov	r14,	r12	
    707e:	0d 4f       	mov	r15,	r13	
    7080:	3c 50 5c fe 	add	#-420,	r12	;#0xfe5c
    7084:	3d 63       	addc	#-1,	r13	;r3 As==11
    7086:	1e 42 12 15 	mov	&0x1512,r14	
    708a:	1f 42 14 15 	mov	&0x1514,r15	
    708e:	b0 12 58 4d 	call	#0x4d58	
    7092:	4f 93       	tst.b	r15		
    7094:	06 20       	jnz	$+14     	;abs 0x70a2
    7096:	7f 40 07 00 	mov.b	#7,	r15	;#0x0007
    709a:	b0 12 14 52 	call	#0x5214	
    709e:	4f 93       	tst.b	r15		
    70a0:	24 20       	jnz	$+74     	;abs 0x70ea
    70a2:	7f 40 05 00 	mov.b	#5,	r15	;#0x0005
    70a6:	b0 12 44 4c 	call	#0x4c44	
    70aa:	4f 93       	tst.b	r15		
    70ac:	8c 24       	jz	$+282    	;abs 0x71c6
    70ae:	b0 12 c8 53 	call	#0x53c8	
    70b2:	c2 43 b0 12 	mov.b	#0,	&0x12b0	;r3 As==00
    70b6:	82 93 b4 12 	tst	&0x12b4	
    70ba:	0e 24       	jz	$+30     	;abs 0x70d8
    70bc:	b0 12 f4 46 	call	#0x46f4	
    70c0:	92 42 b4 12 7a 11 	mov	&0x12b4,&0x117a	
    70c6:	b2 40 e1 00 56 17 	mov	#225,	&0x1756	;#0x00e1
    70cc:	7f 40 1b 00 	mov.b	#27,	r15	;#0x001b
    70d0:	b0 12 fa 4a 	call	#0x4afa	
    70d4:	82 43 b4 12 	mov	#0,	&0x12b4	;r3 As==00
    70d8:	c2 43 44 14 	mov.b	#0,	&0x1444	;r3 As==00
    70dc:	7e 40 06 00 	mov.b	#6,	r14	;#0x0006
    70e0:	7f 40 05 00 	mov.b	#5,	r15	;#0x0005
    70e4:	b0 12 d2 71 	call	#0x71d2	
    70e8:	1c 3c       	jmp	$+58     	;abs 0x7122
    70ea:	82 93 b4 12 	tst	&0x12b4	
    70ee:	3a 20       	jnz	$+118    	;abs 0x7164
    70f0:	5e 42 32 11 	mov.b	&0x1132,r14	
    70f4:	1f 43       	mov	#1,	r15	;r3 As==01
    70f6:	c2 93 3f 18 	tst.b	&0x183f	
    70fa:	03 20       	jnz	$+8      	;abs 0x7102
    70fc:	4e 93       	tst.b	r14		
    70fe:	01 20       	jnz	$+4      	;abs 0x7102
    7100:	0f 43       	clr	r15		
    7102:	0f 93       	tst	r15		
    7104:	12 24       	jz	$+38     	;abs 0x712a
    7106:	7f 40 05 00 	mov.b	#5,	r15	;#0x0005
    710a:	b0 12 44 4c 	call	#0x4c44	
    710e:	4f 93       	tst.b	r15		
    7110:	5a 24       	jz	$+182    	;abs 0x71c6
    7112:	b0 12 c8 53 	call	#0x53c8	
    7116:	c2 43 44 14 	mov.b	#0,	&0x1444	;r3 As==00
    711a:	7f 40 05 00 	mov.b	#5,	r15	;#0x0005
    711e:	b0 12 80 52 	call	#0x5280	
    7122:	0b 93       	tst	r11		
    7124:	54 24       	jz	$+170    	;abs 0x71ce
    7126:	32 d2       	eint			
    7128:	52 3c       	jmp	$+166    	;abs 0x71ce
    712a:	1c 42 ca 11 	mov	&0x11ca,r12	
    712e:	0c 93       	tst	r12		
    7130:	16 24       	jz	$+46     	;abs 0x715e
    7132:	0d 43       	clr	r13		
    7134:	1e 42 12 15 	mov	&0x1512,r14	
    7138:	1f 42 14 15 	mov	&0x1514,r15	
    713c:	b0 12 58 4d 	call	#0x4d58	
    7140:	4f 93       	tst.b	r15		
    7142:	0d 24       	jz	$+28     	;abs 0x715e
    7144:	c2 93 ac 12 	tst.b	&0x12ac	
    7148:	0a 20       	jnz	$+22     	;abs 0x715e
    714a:	c2 93 3e 18 	tst.b	&0x183e	
    714e:	07 20       	jnz	$+16     	;abs 0x715e
    7150:	7f 40 05 00 	mov.b	#5,	r15	;#0x0005
    7154:	b0 12 44 4c 	call	#0x4c44	
    7158:	4f 93       	tst.b	r15		
    715a:	27 20       	jnz	$+80     	;abs 0x71aa
    715c:	34 3c       	jmp	$+106    	;abs 0x71c6
    715e:	82 93 1a 18 	tst	&0x181a	
    7162:	06 24       	jz	$+14     	;abs 0x7170
    7164:	b0 12 e2 6d 	call	#0x6de2	
    7168:	3f 90 03 00 	cmp	#3,	r15	;#0x0003
    716c:	1e 24       	jz	$+62     	;abs 0x71aa
    716e:	21 3c       	jmp	$+68     	;abs 0x71b2
    7170:	b0 12 32 4c 	call	#0x4c32	
    7174:	7f 90 05 00 	cmp.b	#5,	r15	;#0x0005
    7178:	14 20       	jnz	$+42     	;abs 0x71a2
    717a:	b2 90 07 00 18 11 	cmp	#7,	&0x1118	;#0x0007
    7180:	10 24       	jz	$+34     	;abs 0x71a2
    7182:	b0 12 44 4c 	call	#0x4c44	
    7186:	4f 93       	tst.b	r15		
    7188:	1e 24       	jz	$+62     	;abs 0x71c6
    718a:	b0 12 32 4c 	call	#0x4c32	
    718e:	7f 90 05 00 	cmp.b	#5,	r15	;#0x0005
    7192:	1b 20       	jnz	$+56     	;abs 0x71ca
    7194:	0c 43       	clr	r12		
    7196:	0d 43       	clr	r13		
    7198:	0e 43       	clr	r14		
    719a:	0f 43       	clr	r15		
    719c:	b0 12 cc 6e 	call	#0x6ecc	
    71a0:	14 3c       	jmp	$+42     	;abs 0x71ca
    71a2:	7f 40 16 00 	mov.b	#22,	r15	;#0x0016
    71a6:	b0 12 fa 4a 	call	#0x4afa	
    71aa:	c2 43 44 14 	mov.b	#0,	&0x1444	;r3 As==00
    71ae:	3f 40 03 00 	mov	#3,	r15	;#0x0003
    71b2:	0b 93       	tst	r11		
    71b4:	01 24       	jz	$+4      	;abs 0x71b8
    71b6:	32 d2       	eint			
    71b8:	0f 93       	tst	r15		
    71ba:	09 20       	jnz	$+20     	;abs 0x71ce
    71bc:	7f 40 05 00 	mov.b	#5,	r15	;#0x0005
    71c0:	b0 12 30 68 	call	#0x6830	
    71c4:	04 3c       	jmp	$+10     	;abs 0x71ce
    71c6:	0f 43       	clr	r15		
    71c8:	f4 3f       	jmp	$-22     	;abs 0x71b2
    71ca:	1f 43       	mov	#1,	r15	;r3 As==01
    71cc:	f2 3f       	jmp	$-26     	;abs 0x71b2
    71ce:	3b 41       	pop	r11		
    71d0:	30 41       	ret			

000071d2 <SimpleTransferArbiterP__0__Resource__transferTo>:
    71d2:	0b 12       	push	r11		
    71d4:	0a 12       	push	r10		
    71d6:	09 12       	push	r9		
    71d8:	09 42       	mov	r2,	r9	
    71da:	39 f2       	and	#8,	r9	;r2 As==11
    71dc:	32 c2       	dint			
    71de:	03 43       	nop			
    71e0:	0d 42       	mov	r2,	r13	
    71e2:	32 c2       	dint			
    71e4:	03 43       	nop			
    71e6:	5c 42 09 11 	mov.b	&0x1109,r12	
    71ea:	3d f2       	and	#8,	r13	;r2 As==11
    71ec:	01 24       	jz	$+4      	;abs 0x71f0
    71ee:	32 d2       	eint			
    71f0:	4c 9f       	cmp.b	r15,	r12	
    71f2:	ed 20       	jnz	$+476    	;abs 0x73ce
    71f4:	c2 4e 09 11 	mov.b	r14,	&0x1109	
    71f8:	7e 50 fd ff 	add.b	#-3,	r14	;#0xfffd
    71fc:	7e 90 09 00 	cmp.b	#9,	r14	;#0x0009
    7200:	e2 2c       	jc	$+454    	;abs 0x73c6
    7202:	4e 4e       	mov.b	r14,	r14	
    7204:	0e 5e       	rla	r14		
    7206:	10 4e 5a be 	br	-16806(r14)	;0xbe5a(r14)
    720a:	5f 42 8a 11 	mov.b	&0x118a,r15	
    720e:	3f b0 09 00 	bit	#9,	r15	;#0x0009
    7212:	03 24       	jz	$+8      	;abs 0x721a
    7214:	7f 40 12 00 	mov.b	#18,	r15	;#0x0012
    7218:	cf 3c       	jmp	$+416    	;abs 0x73b8
    721a:	b0 12 36 6d 	call	#0x6d36	
    721e:	d3 3c       	jmp	$+424    	;abs 0x73c6
    7220:	c2 93 12 14 	tst.b	&0x1412	
    7224:	13 24       	jz	$+40     	;abs 0x724c
    7226:	1a 42 18 14 	mov	&0x1418,r10	
    722a:	0a 93       	tst	r10		
    722c:	02 20       	jnz	$+6      	;abs 0x7232
    722e:	1a 42 54 11 	mov	&0x1154,r10	
    7232:	d2 43 1b 15 	mov.b	#1,	&0x151b	;r3 As==01
    7236:	7f 40 05 00 	mov.b	#5,	r15	;#0x0005
    723a:	b0 12 d2 51 	call	#0x51d2	
    723e:	4f 93       	tst.b	r15		
    7240:	05 20       	jnz	$+12     	;abs 0x724c
    7242:	82 93 b4 12 	tst	&0x12b4	
    7246:	02 20       	jnz	$+6      	;abs 0x724c
    7248:	82 4a b4 12 	mov	r10,	&0x12b4	
    724c:	7e 40 05 00 	mov.b	#5,	r14	;#0x0005
    7250:	6f 42       	mov.b	#4,	r15	;r2 As==10
    7252:	a2 3c       	jmp	$+326    	;abs 0x7398
    7254:	1c 42 bc 16 	mov	&0x16bc,r12	
    7258:	1d 42 be 16 	mov	&0x16be,r13	
    725c:	5e 42 cc 11 	mov.b	&0x11cc,r14	
    7260:	0f 43       	clr	r15		
    7262:	b0 12 00 bb 	call	#0xbb00	
    7266:	1f 93       	cmp	#1,	r15	;r3 As==01
    7268:	08 2c       	jc	$+18     	;abs 0x727a
    726a:	3e 90 a4 01 	cmp	#420,	r14	;#0x01a4
    726e:	05 2c       	jc	$+12     	;abs 0x727a
    7270:	7e 40 06 00 	mov.b	#6,	r14	;#0x0006
    7274:	7f 40 05 00 	mov.b	#5,	r15	;#0x0005
    7278:	8f 3c       	jmp	$+288    	;abs 0x7398
    727a:	0a 4e       	mov	r14,	r10	
    727c:	0b 4f       	mov	r15,	r11	
    727e:	3a 50 5c fe 	add	#-420,	r10	;#0xfe5c
    7282:	3b 63       	addc	#-1,	r11	;r3 As==11
    7284:	82 93 b4 12 	tst	&0x12b4	
    7288:	06 24       	jz	$+14     	;abs 0x7296
    728a:	d2 43 44 14 	mov.b	#1,	&0x1444	;r3 As==01
    728e:	7f 40 15 00 	mov.b	#21,	r15	;#0x0015
    7292:	b0 12 fa 4a 	call	#0x4afa	
    7296:	0b 12       	push	r11		
    7298:	0a 12       	push	r10		
    729a:	1d 42 12 15 	mov	&0x1512,r13	
    729e:	1e 42 14 15 	mov	&0x1514,r14	
    72a2:	7f 40 07 00 	mov.b	#7,	r15	;#0x0007
    72a6:	b0 12 4a 67 	call	#0x674a	
    72aa:	21 52       	add	#4,	r1	;r2 As==10
    72ac:	1d 42 ca 11 	mov	&0x11ca,r13	
    72b0:	0d 93       	tst	r13		
    72b2:	0c 24       	jz	$+26     	;abs 0x72cc
    72b4:	0e 4d       	mov	r13,	r14	
    72b6:	0f 43       	clr	r15		
    72b8:	0f 12       	push	r15		
    72ba:	0e 12       	push	r14		
    72bc:	1d 42 12 15 	mov	&0x1512,r13	
    72c0:	1e 42 14 15 	mov	&0x1514,r14	
    72c4:	7f 42       	mov.b	#8,	r15	;r2 As==11
    72c6:	b0 12 4a 67 	call	#0x674a	
    72ca:	21 52       	add	#4,	r1	;r2 As==10
    72cc:	b0 12 4a 70 	call	#0x704a	
    72d0:	7a 3c       	jmp	$+246    	;abs 0x73c6
    72d2:	7e 42       	mov.b	#8,	r14	;r2 As==11
    72d4:	7f 40 06 00 	mov.b	#6,	r15	;#0x0006
    72d8:	5f 3c       	jmp	$+192    	;abs 0x7398
    72da:	5f 42 50 11 	mov.b	&0x1150,r15	
    72de:	7f f0 0c 00 	and.b	#12,	r15	;#0x000c
    72e2:	7f 92       	cmp.b	#8,	r15	;r2 As==11
    72e4:	10 24       	jz	$+34     	;abs 0x7306
    72e6:	b0 12 f4 64 	call	#0x64f4	
    72ea:	4f 93       	tst.b	r15		
    72ec:	0c 20       	jnz	$+26     	;abs 0x7306
    72ee:	7f 40 07 00 	mov.b	#7,	r15	;#0x0007
    72f2:	b0 12 30 68 	call	#0x6830	
    72f6:	3f 90 09 00 	cmp	#9,	r15	;#0x0009
    72fa:	03 20       	jnz	$+8      	;abs 0x7302
    72fc:	7f 40 19 00 	mov.b	#25,	r15	;#0x0019
    7300:	5b 3c       	jmp	$+184    	;abs 0x73b8
    7302:	0f 93       	tst	r15		
    7304:	60 24       	jz	$+194    	;abs 0x73c6
    7306:	b0 12 e4 73 	call	#0x73e4	
    730a:	5d 3c       	jmp	$+188    	;abs 0x73c6
    730c:	5f 42 50 11 	mov.b	&0x1150,r15	
    7310:	3f f0 20 00 	and	#32,	r15	;#0x0020
    7314:	03 24       	jz	$+8      	;abs 0x731c
    7316:	7f 40 0b 00 	mov.b	#11,	r15	;#0x000b
    731a:	4e 3c       	jmp	$+158    	;abs 0x73b8
    731c:	b0 12 b4 76 	call	#0x76b4	
    7320:	52 3c       	jmp	$+166    	;abs 0x73c6
    7322:	1c 42 fc 11 	mov	&0x11fc,r12	
    7326:	1d 42 fe 11 	mov	&0x11fe,r13	
    732a:	5e 42 c0 17 	mov.b	&0x17c0,r14	
    732e:	0f 43       	clr	r15		
    7330:	b0 12 00 bb 	call	#0xbb00	
    7334:	1f 93       	cmp	#1,	r15	;r3 As==01
    7336:	08 2c       	jc	$+18     	;abs 0x7348
    7338:	3e 90 a4 01 	cmp	#420,	r14	;#0x01a4
    733c:	05 2c       	jc	$+12     	;abs 0x7348
    733e:	7e 40 0a 00 	mov.b	#10,	r14	;#0x000a
    7342:	7f 40 09 00 	mov.b	#9,	r15	;#0x0009
    7346:	28 3c       	jmp	$+82     	;abs 0x7398
    7348:	d2 42 0d 18 2a 14 	mov.b	&0x180d,&0x142a	
    734e:	3e 50 5c fe 	add	#-420,	r14	;#0xfe5c
    7352:	3f 63       	addc	#-1,	r15	;r3 As==11
    7354:	0f 12       	push	r15		
    7356:	0e 12       	push	r14		
    7358:	1d 42 20 18 	mov	&0x1820,r13	
    735c:	1e 42 22 18 	mov	&0x1822,r14	
    7360:	6f 42       	mov.b	#4,	r15	;r2 As==10
    7362:	b0 12 4a 67 	call	#0x674a	
    7366:	21 52       	add	#4,	r1	;r2 As==10
    7368:	1d 42 ca 17 	mov	&0x17ca,r13	
    736c:	0d 93       	tst	r13		
    736e:	0d 24       	jz	$+28     	;abs 0x738a
    7370:	0e 4d       	mov	r13,	r14	
    7372:	0f 43       	clr	r15		
    7374:	0f 12       	push	r15		
    7376:	0e 12       	push	r14		
    7378:	1d 42 20 18 	mov	&0x1820,r13	
    737c:	1e 42 22 18 	mov	&0x1822,r14	
    7380:	7f 40 05 00 	mov.b	#5,	r15	;#0x0005
    7384:	b0 12 4a 67 	call	#0x674a	
    7388:	21 52       	add	#4,	r1	;r2 As==10
    738a:	b0 12 f0 73 	call	#0x73f0	
    738e:	1b 3c       	jmp	$+56     	;abs 0x73c6
    7390:	7e 40 03 00 	mov.b	#3,	r14	;#0x0003
    7394:	7f 40 0a 00 	mov.b	#10,	r15	;#0x000a
    7398:	b0 12 d2 71 	call	#0x71d2	
    739c:	14 3c       	jmp	$+42     	;abs 0x73c6
    739e:	b0 12 22 65 	call	#0x6522	
    73a2:	4f 93       	tst.b	r15		
    73a4:	0e 20       	jnz	$+30     	;abs 0x73c2
    73a6:	7f 40 0b 00 	mov.b	#11,	r15	;#0x000b
    73aa:	b0 12 30 68 	call	#0x6830	
    73ae:	3f 90 09 00 	cmp	#9,	r15	;#0x0009
    73b2:	05 20       	jnz	$+12     	;abs 0x73be
    73b4:	7f 40 17 00 	mov.b	#23,	r15	;#0x0017
    73b8:	b0 12 fa 4a 	call	#0x4afa	
    73bc:	04 3c       	jmp	$+10     	;abs 0x73c6
    73be:	0f 93       	tst	r15		
    73c0:	02 24       	jz	$+6      	;abs 0x73c6
    73c2:	b0 12 9c 77 	call	#0x779c	
    73c6:	09 93       	tst	r9		
    73c8:	06 24       	jz	$+14     	;abs 0x73d6
    73ca:	32 d2       	eint			
    73cc:	04 3c       	jmp	$+10     	;abs 0x73d6
    73ce:	09 93       	tst	r9		
    73d0:	04 24       	jz	$+10     	;abs 0x73da
    73d2:	32 d2       	eint			
    73d4:	02 3c       	jmp	$+6      	;abs 0x73da
    73d6:	0f 43       	clr	r15		
    73d8:	01 3c       	jmp	$+4      	;abs 0x73dc
    73da:	1f 43       	mov	#1,	r15	;r3 As==01
    73dc:	39 41       	pop	r9		
    73de:	3a 41       	pop	r10		
    73e0:	3b 41       	pop	r11		
    73e2:	30 41       	ret			

000073e4 <InactivePeriodP__1__transferToken>:
    73e4:	7e 42       	mov.b	#8,	r14	;r2 As==11
    73e6:	7f 40 07 00 	mov.b	#7,	r15	;#0x0007
    73ea:	b0 12 d2 71 	call	#0x71d2	
    73ee:	30 41       	ret			

000073f0 <DispatchSlottedCsmaP__0__updateState>:
    73f0:	0b 12       	push	r11		
    73f2:	0a 12       	push	r10		
    73f4:	09 12       	push	r9		
    73f6:	08 12       	push	r8		
    73f8:	07 12       	push	r7		
    73fa:	06 12       	push	r6		
    73fc:	05 12       	push	r5		
    73fe:	04 12       	push	r4		
    7400:	07 42       	mov	r2,	r7	
    7402:	37 f2       	and	#8,	r7	;r2 As==11
    7404:	32 c2       	dint			
    7406:	03 43       	nop			
    7408:	c2 93 2b 18 	tst.b	&0x182b	
    740c:	60 20       	jnz	$+194    	;abs 0x74ce
    740e:	7f 40 09 00 	mov.b	#9,	r15	;#0x0009
    7412:	b0 12 d2 51 	call	#0x51d2	
    7416:	4f 93       	tst.b	r15		
    7418:	5a 24       	jz	$+182    	;abs 0x74ce
    741a:	d2 43 2b 18 	mov.b	#1,	&0x182b	;r3 As==01
    741e:	1c 42 fc 11 	mov	&0x11fc,r12	
    7422:	1d 42 fe 11 	mov	&0x11fe,r13	
    7426:	5e 42 c0 17 	mov.b	&0x17c0,r14	
    742a:	0f 43       	clr	r15		
    742c:	b0 12 00 bb 	call	#0xbb00	
    7430:	0c 4e       	mov	r14,	r12	
    7432:	0d 4f       	mov	r15,	r13	
    7434:	3c 50 5c fe 	add	#-420,	r12	;#0xfe5c
    7438:	3d 63       	addc	#-1,	r13	;r3 As==11
    743a:	1e 42 20 18 	mov	&0x1820,r14	
    743e:	1f 42 22 18 	mov	&0x1822,r15	
    7442:	b0 12 58 4d 	call	#0x4d58	
    7446:	4f 93       	tst.b	r15		
    7448:	05 20       	jnz	$+12     	;abs 0x7454
    744a:	6f 42       	mov.b	#4,	r15	;r2 As==10
    744c:	b0 12 14 52 	call	#0x5214	
    7450:	4f 93       	tst.b	r15		
    7452:	18 20       	jnz	$+50     	;abs 0x7484
    7454:	7f 40 09 00 	mov.b	#9,	r15	;#0x0009
    7458:	b0 12 44 4c 	call	#0x4c44	
    745c:	4f 93       	tst.b	r15		
    745e:	d6 24       	jz	$+430    	;abs 0x760c
    7460:	b0 12 b0 53 	call	#0x53b0	
    7464:	c2 93 30 11 	tst.b	&0x1130	
    7468:	02 24       	jz	$+6      	;abs 0x746e
    746a:	b0 12 76 77 	call	#0x7776	
    746e:	c2 43 2a 14 	mov.b	#0,	&0x142a	;r3 As==00
    7472:	c2 43 2b 18 	mov.b	#0,	&0x182b	;r3 As==00
    7476:	7e 40 0a 00 	mov.b	#10,	r14	;#0x000a
    747a:	7f 40 09 00 	mov.b	#9,	r15	;#0x0009
    747e:	b0 12 d2 71 	call	#0x71d2	
    7482:	25 3c       	jmp	$+76     	;abs 0x74ce
    7484:	c2 93 2a 14 	tst.b	&0x142a	
    7488:	03 20       	jnz	$+8      	;abs 0x7490
    748a:	c2 93 30 11 	tst.b	&0x1130	
    748e:	06 24       	jz	$+14     	;abs 0x749c
    7490:	b0 12 28 6f 	call	#0x6f28	
    7494:	3f 90 03 00 	cmp	#3,	r15	;#0x0003
    7498:	ab 24       	jz	$+344    	;abs 0x75f0
    749a:	ae 3c       	jmp	$+350    	;abs 0x75f8
    749c:	5e 42 32 11 	mov.b	&0x1132,r14	
    74a0:	1f 43       	mov	#1,	r15	;r3 As==01
    74a2:	c2 93 3f 18 	tst.b	&0x183f	
    74a6:	03 20       	jnz	$+8      	;abs 0x74ae
    74a8:	4e 93       	tst.b	r14		
    74aa:	01 20       	jnz	$+4      	;abs 0x74ae
    74ac:	0f 43       	clr	r15		
    74ae:	0f 93       	tst	r15		
    74b0:	12 24       	jz	$+38     	;abs 0x74d6
    74b2:	7f 40 09 00 	mov.b	#9,	r15	;#0x0009
    74b6:	b0 12 44 4c 	call	#0x4c44	
    74ba:	4f 93       	tst.b	r15		
    74bc:	a7 24       	jz	$+336    	;abs 0x760c
    74be:	b0 12 b0 53 	call	#0x53b0	
    74c2:	c2 43 2b 18 	mov.b	#0,	&0x182b	;r3 As==00
    74c6:	7f 40 09 00 	mov.b	#9,	r15	;#0x0009
    74ca:	b0 12 80 52 	call	#0x5280	
    74ce:	07 93       	tst	r7		
    74d0:	9f 24       	jz	$+320    	;abs 0x7610
    74d2:	32 d2       	eint			
    74d4:	9d 3c       	jmp	$+316    	;abs 0x7610
    74d6:	1c 42 ca 17 	mov	&0x17ca,r12	
    74da:	0c 93       	tst	r12		
    74dc:	0f 24       	jz	$+32     	;abs 0x74fc
    74de:	0d 43       	clr	r13		
    74e0:	1e 42 20 18 	mov	&0x1820,r14	
    74e4:	1f 42 22 18 	mov	&0x1822,r15	
    74e8:	b0 12 58 4d 	call	#0x4d58	
    74ec:	4f 93       	tst.b	r15		
    74ee:	06 24       	jz	$+14     	;abs 0x74fc
    74f0:	c2 93 ac 12 	tst.b	&0x12ac	
    74f4:	03 20       	jnz	$+8      	;abs 0x74fc
    74f6:	c2 93 f9 11 	tst.b	&0x11f9	
    74fa:	74 24       	jz	$+234    	;abs 0x75e4
    74fc:	82 93 f8 14 	tst	&0x14f8	
    7500:	61 24       	jz	$+196    	;abs 0x75c4
    7502:	58 42 c0 17 	mov.b	&0x17c0,r8	
    7506:	1a 42 fc 11 	mov	&0x11fc,r10	
    750a:	1b 42 fe 11 	mov	&0x11fe,r11	
    750e:	7f 40 09 00 	mov.b	#9,	r15	;#0x0009
    7512:	b0 12 44 4c 	call	#0x4c44	
    7516:	4f 93       	tst.b	r15		
    7518:	79 24       	jz	$+244    	;abs 0x760c
    751a:	0c 4a       	mov	r10,	r12	
    751c:	0d 4b       	mov	r11,	r13	
    751e:	4e 48       	mov.b	r8,	r14	
    7520:	0f 43       	clr	r15		
    7522:	b0 12 00 bb 	call	#0xbb00	
    7526:	08 4e       	mov	r14,	r8	
    7528:	09 4f       	mov	r15,	r9	
    752a:	0a 4e       	mov	r14,	r10	
    752c:	0b 4f       	mov	r15,	r11	
    752e:	1a 82 6c 16 	sub	&0x166c,r10	
    7532:	1b 72 6e 16 	subc	&0x166e,r11	
    7536:	3a 50 5c fe 	add	#-420,	r10	;#0xfe5c
    753a:	3b 63       	addc	#-1,	r11	;r3 As==11
    753c:	3c 40 14 00 	mov	#20,	r12	;#0x0014
    7540:	0d 43       	clr	r13		
    7542:	0e 4a       	mov	r10,	r14	
    7544:	0f 4b       	mov	r11,	r15	
    7546:	b0 12 6a bc 	call	#0xbc6a	
    754a:	3a 50 14 00 	add	#20,	r10	;#0x0014
    754e:	0b 63       	adc	r11		
    7550:	0a 8e       	sub	r14,	r10	
    7552:	0b 7f       	subc	r15,	r11	
    7554:	09 9b       	cmp	r11,	r9	
    7556:	03 28       	jnc	$+8      	;abs 0x755e
    7558:	04 20       	jnz	$+10     	;abs 0x7562
    755a:	08 9a       	cmp	r10,	r8	
    755c:	02 2c       	jc	$+6      	;abs 0x7562
    755e:	0a 43       	clr	r10		
    7560:	0b 43       	clr	r11		
    7562:	1f 42 ca 17 	mov	&0x17ca,r15	
    7566:	0f 93       	tst	r15		
    7568:	06 24       	jz	$+14     	;abs 0x7576
    756a:	0b 93       	tst	r11		
    756c:	02 20       	jnz	$+6      	;abs 0x7572
    756e:	0f 9a       	cmp	r10,	r15	
    7570:	02 2c       	jc	$+6      	;abs 0x7576
    7572:	0a 4f       	mov	r15,	r10	
    7574:	0b 43       	clr	r11		
    7576:	0c 4a       	mov	r10,	r12	
    7578:	0d 4b       	mov	r11,	r13	
    757a:	1e 42 20 18 	mov	&0x1820,r14	
    757e:	1f 42 22 18 	mov	&0x1822,r15	
    7582:	b0 12 58 4d 	call	#0x4d58	
    7586:	4f 93       	tst.b	r15		
    7588:	33 20       	jnz	$+104    	;abs 0x75f0
    758a:	14 42 ba 11 	mov	&0x11ba,r4	
    758e:	55 42 02 12 	mov.b	&0x1202,r5	
    7592:	18 42 20 18 	mov	&0x1820,r8	
    7596:	19 42 22 18 	mov	&0x1822,r9	
    759a:	16 42 f8 14 	mov	&0x14f8,r6	
    759e:	b0 12 32 4c 	call	#0x4c32	
    75a2:	7f 90 09 00 	cmp.b	#9,	r15	;#0x0009
    75a6:	0c 20       	jnz	$+26     	;abs 0x75c0
    75a8:	04 12       	push	r4		
    75aa:	45 12       	push.b	r5		
    75ac:	0b 12       	push	r11		
    75ae:	0a 12       	push	r10		
    75b0:	0c 48       	mov	r8,	r12	
    75b2:	0d 49       	mov	r9,	r13	
    75b4:	3e 40 e8 14 	mov	#5352,	r14	;#0x14e8
    75b8:	0f 46       	mov	r6,	r15	
    75ba:	b0 12 52 6d 	call	#0x6d52	
    75be:	31 52       	add	#8,	r1	;r2 As==11
    75c0:	2f 43       	mov	#2,	r15	;r3 As==10
    75c2:	1a 3c       	jmp	$+54     	;abs 0x75f8
    75c4:	c2 93 ac 12 	tst.b	&0x12ac	
    75c8:	03 20       	jnz	$+8      	;abs 0x75d0
    75ca:	c2 93 f9 11 	tst.b	&0x11f9	
    75ce:	0a 24       	jz	$+22     	;abs 0x75e4
    75d0:	b0 12 28 6f 	call	#0x6f28	
    75d4:	3f 90 03 00 	cmp	#3,	r15	;#0x0003
    75d8:	0f 20       	jnz	$+32     	;abs 0x75f8
    75da:	7f 40 0f 00 	mov.b	#15,	r15	;#0x000f
    75de:	b0 12 fa 4a 	call	#0x4afa	
    75e2:	06 3c       	jmp	$+14     	;abs 0x75f0
    75e4:	7f 40 09 00 	mov.b	#9,	r15	;#0x0009
    75e8:	b0 12 44 4c 	call	#0x4c44	
    75ec:	4f 93       	tst.b	r15		
    75ee:	0e 24       	jz	$+30     	;abs 0x760c
    75f0:	c2 43 2b 18 	mov.b	#0,	&0x182b	;r3 As==00
    75f4:	3f 40 03 00 	mov	#3,	r15	;#0x0003
    75f8:	07 93       	tst	r7		
    75fa:	01 24       	jz	$+4      	;abs 0x75fe
    75fc:	32 d2       	eint			
    75fe:	0f 93       	tst	r15		
    7600:	07 20       	jnz	$+16     	;abs 0x7610
    7602:	7f 40 09 00 	mov.b	#9,	r15	;#0x0009
    7606:	b0 12 30 68 	call	#0x6830	
    760a:	02 3c       	jmp	$+6      	;abs 0x7610
    760c:	0f 43       	clr	r15		
    760e:	f4 3f       	jmp	$-22     	;abs 0x75f8
    7610:	34 41       	pop	r4		
    7612:	35 41       	pop	r5		
    7614:	36 41       	pop	r6		
    7616:	37 41       	pop	r7		
    7618:	38 41       	pop	r8		
    761a:	39 41       	pop	r9		
    761c:	3a 41       	pop	r10		
    761e:	3b 41       	pop	r11		
    7620:	30 41       	ret			

00007622 <SimpleTransferArbiterP__0__Resource__request>:
    7622:	0b 12       	push	r11		
    7624:	0a 12       	push	r10		
    7626:	4a 4f       	mov.b	r15,	r10	
    7628:	5f 42 09 11 	mov.b	&0x1109,r15	
    762c:	7f 90 05 00 	cmp.b	#5,	r15	;#0x0005
    7630:	04 24       	jz	$+10     	;abs 0x763a
    7632:	7f 90 09 00 	cmp.b	#9,	r15	;#0x0009
    7636:	06 20       	jnz	$+14     	;abs 0x7644
    7638:	03 3c       	jmp	$+8      	;abs 0x7640
    763a:	b0 12 4a 70 	call	#0x704a	
    763e:	02 3c       	jmp	$+6      	;abs 0x7644
    7640:	b0 12 f0 73 	call	#0x73f0	
    7644:	0b 42       	mov	r2,	r11	
    7646:	3b f2       	and	#8,	r11	;r2 As==11
    7648:	32 c2       	dint			
    764a:	03 43       	nop			
    764c:	c2 93 36 11 	tst.b	&0x1136	
    7650:	0c 20       	jnz	$+26     	;abs 0x766a
    7652:	d2 43 36 11 	mov.b	#1,	&0x1136	;r3 As==01
    7656:	c2 4a fa 11 	mov.b	r10,	&0x11fa	
    765a:	7f 40 05 00 	mov.b	#5,	r15	;#0x0005
    765e:	b0 12 fa 4a 	call	#0x4afa	
    7662:	0b 93       	tst	r11		
    7664:	23 24       	jz	$+72     	;abs 0x76ac
    7666:	32 d2       	eint			
    7668:	21 3c       	jmp	$+68     	;abs 0x76ac
    766a:	4e 4a       	mov.b	r10,	r14	
    766c:	12 c3       	clrc			
    766e:	4e 10       	rrc.b	r14		
    7670:	12 c3       	clrc			
    7672:	4e 10       	rrc.b	r14		
    7674:	12 c3       	clrc			
    7676:	4e 10       	rrc.b	r14		
    7678:	4e 4e       	mov.b	r14,	r14	
    767a:	5c 4e 2c 15 	mov.b	5420(r14),r12	;0x152c(r14)
    767e:	1d 43       	mov	#1,	r13	;r3 As==01
    7680:	4f 4a       	mov.b	r10,	r15	
    7682:	7f f0 07 00 	and.b	#7,	r15	;#0x0007
    7686:	4f 93       	tst.b	r15		
    7688:	03 24       	jz	$+8      	;abs 0x7690
    768a:	0d 5d       	rla	r13		
    768c:	7f 53       	add.b	#-1,	r15	;r3 As==11
    768e:	fb 3f       	jmp	$-8      	;abs 0x7686
    7690:	4d 4d       	mov.b	r13,	r13	
    7692:	4d bc       	bit.b	r12,	r13	
    7694:	05 20       	jnz	$+12     	;abs 0x76a0
    7696:	4d dc       	bis.b	r12,	r13	
    7698:	ce 4d 2c 15 	mov.b	r13,	5420(r14);0x152c(r14)
    769c:	0f 43       	clr	r15		
    769e:	02 3c       	jmp	$+6      	;abs 0x76a4
    76a0:	3f 40 05 00 	mov	#5,	r15	;#0x0005
    76a4:	0b 93       	tst	r11		
    76a6:	03 24       	jz	$+8      	;abs 0x76ae
    76a8:	32 d2       	eint			
    76aa:	01 3c       	jmp	$+4      	;abs 0x76ae
    76ac:	0f 43       	clr	r15		
    76ae:	3a 41       	pop	r10		
    76b0:	3b 41       	pop	r11		
    76b2:	30 41       	ret			

000076b4 <BeaconSynchronizeP__trackNextBeacon>:
    76b4:	0b 12       	push	r11		
    76b6:	5f 42 50 11 	mov.b	&0x1150,r15	
    76ba:	7f b0 0c 00 	bit.b	#12,	r15	;#0x000c
    76be:	3c 24       	jz	$+122    	;abs 0x7738
    76c0:	7f f0 03 00 	and.b	#3,	r15	;#0x0003
    76c4:	7f 90 03 00 	cmp.b	#3,	r15	;#0x0003
    76c8:	3b 24       	jz	$+120    	;abs 0x7740
    76ca:	4f 43       	clr.b	r15		
    76cc:	b0 12 52 46 	call	#0x4652	
    76d0:	4b 43       	clr.b	r11		
    76d2:	19 3c       	jmp	$+52     	;abs 0x7706
    76d4:	5d 42 bd 11 	mov.b	&0x11bd,r13	
    76d8:	7d 90 0f 00 	cmp.b	#15,	r13	;#0x000f
    76dc:	02 28       	jnc	$+6      	;abs 0x76e2
    76de:	7d 40 0e 00 	mov.b	#14,	r13	;#0x000e
    76e2:	3e 40 c0 03 	mov	#960,	r14	;#0x03c0
    76e6:	0f 43       	clr	r15		
    76e8:	7d f0 1f 00 	and.b	#31,	r13	;#0x001f
    76ec:	4d 93       	tst.b	r13		
    76ee:	04 24       	jz	$+10     	;abs 0x76f8
    76f0:	0e 5e       	rla	r14		
    76f2:	0f 6f       	rlc	r15		
    76f4:	7d 53       	add.b	#-1,	r13	;r3 As==11
    76f6:	fa 3f       	jmp	$-10     	;abs 0x76ec
    76f8:	82 5e 4a 11 	add	r14,	&0x114a	
    76fc:	82 6f 4c 11 	addc	r15,	&0x114c	
    7700:	d2 53 f6 14 	inc.b	&0x14f6	
    7704:	5b 43       	mov.b	#1,	r11	;r3 As==01
    7706:	1c 42 4a 11 	mov	&0x114a,r12	
    770a:	1d 42 4c 11 	mov	&0x114c,r13	
    770e:	1e 42 20 18 	mov	&0x1820,r14	
    7712:	1f 42 22 18 	mov	&0x1822,r15	
    7716:	b0 12 58 4d 	call	#0x4d58	
    771a:	4f 93       	tst.b	r15		
    771c:	db 23       	jnz	$-72     	;abs 0x76d4
    771e:	e2 92 f6 14 	cmp.b	#4,	&0x14f6	;r2 As==10
    7722:	05 28       	jnc	$+12     	;abs 0x772e
    7724:	7f 40 0a 00 	mov.b	#10,	r15	;#0x000a
    7728:	b0 12 fa 4a 	call	#0x4afa	
    772c:	14 3c       	jmp	$+42     	;abs 0x7756
    772e:	4b 93       	tst.b	r11		
    7730:	07 24       	jz	$+16     	;abs 0x7740
    7732:	7f 42       	mov.b	#8,	r15	;r2 As==11
    7734:	b0 12 22 76 	call	#0x7622	
    7738:	7f 42       	mov.b	#8,	r15	;r2 As==11
    773a:	b0 12 80 52 	call	#0x5280	
    773e:	0b 3c       	jmp	$+24     	;abs 0x7756
    7740:	7f 42       	mov.b	#8,	r15	;r2 As==11
    7742:	b0 12 44 4c 	call	#0x4c44	
    7746:	4f 93       	tst.b	r15		
    7748:	03 24       	jz	$+8      	;abs 0x7750
    774a:	b0 12 d2 6f 	call	#0x6fd2	
    774e:	03 3c       	jmp	$+8      	;abs 0x7756
    7750:	7f 42       	mov.b	#8,	r15	;r2 As==11
    7752:	b0 12 30 68 	call	#0x6830	
    7756:	3b 41       	pop	r11		
    7758:	30 41       	ret			

0000775a <BeaconTransmitP__MLME_START__confirm>:
    775a:	0f 93       	tst	r15		
    775c:	09 24       	jz	$+20     	;abs 0x7770
    775e:	d2 43 84 15 	mov.b	#1,	&0x1584	;r3 As==01
    7762:	f2 40 05 00 3f 18 	mov.b	#5,	&0x183f	;#0x0005
    7768:	5f 43       	mov.b	#1,	r15	;r3 As==01
    776a:	b0 12 22 76 	call	#0x7622	
    776e:	30 41       	ret			
    7770:	d2 43 d8 17 	mov.b	#1,	&0x17d8	;r3 As==01
    7774:	30 41       	ret			

00007776 <DispatchSlottedCsmaP__0__RxWaitAlarm__fired>:
    7776:	c2 93 30 11 	tst.b	&0x1130	
    777a:	04 20       	jnz	$+10     	;abs 0x7784
    777c:	c2 93 2a 14 	tst.b	&0x142a	
    7780:	08 20       	jnz	$+18     	;abs 0x7792
    7782:	30 41       	ret			
    7784:	c2 43 30 11 	mov.b	#0,	&0x1130	;r3 As==00
    7788:	7f 40 0d 00 	mov.b	#13,	r15	;#0x000d
    778c:	b0 12 fa 4a 	call	#0x4afa	
    7790:	30 41       	ret			
    7792:	c2 43 2a 14 	mov.b	#0,	&0x142a	;r3 As==00
    7796:	b0 12 f0 73 	call	#0x73f0	
    779a:	30 41       	ret			

0000779c <InactivePeriodP__0__transferToken>:
    779c:	7e 40 03 00 	mov.b	#3,	r14	;#0x0003
    77a0:	7f 40 0b 00 	mov.b	#11,	r15	;#0x000b
    77a4:	b0 12 d2 71 	call	#0x71d2	
    77a8:	30 41       	ret			

000077aa <CC2420TKN154P__ReliableWait__waitRxDone>:
    77aa:	0b 12       	push	r11		
    77ac:	b2 40 07 00 18 11 	mov	#7,	&0x1118	;#0x0007
    77b2:	b0 12 8a 51 	call	#0x518a	
    77b6:	d2 43 c4 11 	mov.b	#1,	&0x11c4	;r3 As==01
    77ba:	b0 12 34 62 	call	#0x6234	
    77be:	b0 12 32 4c 	call	#0x4c32	
    77c2:	7f 90 05 00 	cmp.b	#5,	r15	;#0x0005
    77c6:	11 24       	jz	$+36     	;abs 0x77ea
    77c8:	7f 90 06 00 	cmp.b	#6,	r15	;#0x0006
    77cc:	03 2c       	jc	$+8      	;abs 0x77d4
    77ce:	4f 93       	tst.b	r15		
    77d0:	07 24       	jz	$+16     	;abs 0x77e0
    77d2:	63 3c       	jmp	$+200    	;abs 0x789a
    77d4:	7f 92       	cmp.b	#8,	r15	;r2 As==11
    77d6:	0e 24       	jz	$+30     	;abs 0x77f4
    77d8:	7f 90 09 00 	cmp.b	#9,	r15	;#0x0009
    77dc:	5e 20       	jnz	$+190    	;abs 0x789a
    77de:	46 3c       	jmp	$+142    	;abs 0x786c
    77e0:	7f 40 07 00 	mov.b	#7,	r15	;#0x0007
    77e4:	b0 12 fa 4a 	call	#0x4afa	
    77e8:	58 3c       	jmp	$+178    	;abs 0x789a
    77ea:	c2 43 44 14 	mov.b	#0,	&0x1444	;r3 As==00
    77ee:	b0 12 4a 70 	call	#0x704a	
    77f2:	53 3c       	jmp	$+168    	;abs 0x789a
    77f4:	5b 42 50 11 	mov.b	&0x1150,r11	
    77f8:	7b f0 03 00 	and.b	#3,	r11	;#0x0003
    77fc:	5f 43       	mov.b	#1,	r15	;r3 As==01
    77fe:	b0 12 52 46 	call	#0x4652	
    7802:	4b 93       	tst.b	r11		
    7804:	20 24       	jz	$+66     	;abs 0x7846
    7806:	7b 90 03 00 	cmp.b	#3,	r11	;#0x0003
    780a:	47 20       	jnz	$+144    	;abs 0x789a
    780c:	3e 40 c0 03 	mov	#960,	r14	;#0x03c0
    7810:	0f 43       	clr	r15		
    7812:	5d 42 bd 11 	mov.b	&0x11bd,r13	
    7816:	7d f0 1f 00 	and.b	#31,	r13	;#0x001f
    781a:	4d 93       	tst.b	r13		
    781c:	04 24       	jz	$+10     	;abs 0x7826
    781e:	0e 5e       	rla	r14		
    7820:	0f 6f       	rlc	r15		
    7822:	7d 53       	add.b	#-1,	r13	;r3 As==11
    7824:	fa 3f       	jmp	$-10     	;abs 0x781a
    7826:	3e 50 c0 03 	add	#960,	r14	;#0x03c0
    782a:	0f 63       	adc	r15		
    782c:	0e 5e       	rla	r14		
    782e:	0f 6f       	rlc	r15		
    7830:	0d 4e       	mov	r14,	r13	
    7832:	0e 4f       	mov	r15,	r14	
    7834:	3d f0 fe ff 	and	#-2,	r13	;#0xfffe
    7838:	3e f0 ff 7f 	and	#32767,	r14	;#0x7fff
    783c:	7f 40 03 00 	mov.b	#3,	r15	;#0x0003
    7840:	b0 12 de 66 	call	#0x66de	
    7844:	2a 3c       	jmp	$+86     	;abs 0x789a
    7846:	1e 42 4a 11 	mov	&0x114a,r14	
    784a:	1f 42 4c 11 	mov	&0x114c,r15	
    784e:	3e 50 14 01 	add	#276,	r14	;#0x0114
    7852:	0f 63       	adc	r15		
    7854:	0f 12       	push	r15		
    7856:	0e 12       	push	r14		
    7858:	1d 42 20 18 	mov	&0x1820,r13	
    785c:	1e 42 22 18 	mov	&0x1822,r14	
    7860:	7f 40 03 00 	mov.b	#3,	r15	;#0x0003
    7864:	b0 12 4a 67 	call	#0x674a	
    7868:	21 52       	add	#4,	r1	;r2 As==10
    786a:	17 3c       	jmp	$+48     	;abs 0x789a
    786c:	c2 93 30 11 	tst.b	&0x1130	
    7870:	03 20       	jnz	$+8      	;abs 0x7878
    7872:	c2 93 2a 14 	tst.b	&0x142a	
    7876:	0d 24       	jz	$+28     	;abs 0x7892
    7878:	1e 42 94 11 	mov	&0x1194,r14	
    787c:	1f 42 96 11 	mov	&0x1196,r15	
    7880:	12 c3       	clrc			
    7882:	0f 10       	rrc	r15		
    7884:	0e 10       	rrc	r14		
    7886:	0d 4e       	mov	r14,	r13	
    7888:	0e 4f       	mov	r15,	r14	
    788a:	7f 40 06 00 	mov.b	#6,	r15	;#0x0006
    788e:	b0 12 de 66 	call	#0x66de	
    7892:	c2 43 2b 18 	mov.b	#0,	&0x182b	;r3 As==00
    7896:	b0 12 f0 73 	call	#0x73f0	
    789a:	3b 41       	pop	r11		
    789c:	30 41       	ret			

0000789e <CC2420TKN154P__rxSpiReserved>:
    789e:	0b 12       	push	r11		
    78a0:	b2 40 06 00 18 11 	mov	#6,	&0x1118	;#0x0006
    78a6:	b0 12 80 5e 	call	#0x5e80	
    78aa:	b0 12 04 4c 	call	#0x4c04	
    78ae:	b0 12 c0 4c 	call	#0x4cc0	
    78b2:	0b 42       	mov	r2,	r11	
    78b4:	3b f2       	and	#8,	r11	;r2 As==11
    78b6:	32 c2       	dint			
    78b8:	03 43       	nop			
    78ba:	1c 42 8c 11 	mov	&0x118c,r12	
    78be:	1d 42 8e 11 	mov	&0x118e,r13	
    78c2:	1e 42 bc 12 	mov	&0x12bc,r14	
    78c6:	1f 42 be 12 	mov	&0x12be,r15	
    78ca:	b0 12 58 4d 	call	#0x4d58	
    78ce:	4f 93       	tst.b	r15		
    78d0:	03 24       	jz	$+8      	;abs 0x78d8
    78d2:	b0 12 aa 77 	call	#0x77aa	
    78d6:	12 3c       	jmp	$+38     	;abs 0x78fc
    78d8:	1c 42 8c 11 	mov	&0x118c,r12	
    78dc:	1d 42 8e 11 	mov	&0x118e,r13	
    78e0:	1e 42 bc 12 	mov	&0x12bc,r14	
    78e4:	1f 42 be 12 	mov	&0x12be,r15	
    78e8:	c2 93 0e 11 	tst.b	&0x110e	
    78ec:	07 20       	jnz	$+16     	;abs 0x78fc
    78ee:	d2 43 0e 11 	mov.b	#1,	&0x110e	;r3 As==01
    78f2:	3e 50 f0 ff 	add	#-16,	r14	;#0xfff0
    78f6:	3f 63       	addc	#-1,	r15	;r3 As==11
    78f8:	b0 12 b8 4f 	call	#0x4fb8	
    78fc:	0b 93       	tst	r11		
    78fe:	01 24       	jz	$+4      	;abs 0x7902
    7900:	32 d2       	eint			
    7902:	3b 41       	pop	r11		
    7904:	30 41       	ret			

00007906 <CC2420TKN154P__offSpiReserved>:
    7906:	b0 12 04 4c 	call	#0x4c04	
    790a:	b0 12 5c 4b 	call	#0x4b5c	
    790e:	b0 12 9c 4b 	call	#0x4b9c	
    7912:	c2 43 c4 11 	mov.b	#0,	&0x11c4	;r3 As==00
    7916:	b0 12 34 62 	call	#0x6234	
    791a:	a2 42 18 11 	mov	#4,	&0x1118	;r2 As==10
    791e:	b0 12 32 4c 	call	#0x4c32	
    7922:	7f 90 0c 00 	cmp.b	#12,	r15	;#0x000c
    7926:	23 2c       	jc	$+72     	;abs 0x796e
    7928:	4f 4f       	mov.b	r15,	r15	
    792a:	0f 5f       	rla	r15		
    792c:	10 4f 6c be 	br	-16788(r15)	;0xbe6c(r15)
    7930:	b0 12 be 64 	call	#0x64be	
    7934:	30 41       	ret			
    7936:	7f 40 03 00 	mov.b	#3,	r15	;#0x0003
    793a:	0a 3c       	jmp	$+22     	;abs 0x7950
    793c:	b0 12 d0 6b 	call	#0x6bd0	
    7940:	30 41       	ret			
    7942:	c2 43 44 14 	mov.b	#0,	&0x1444	;r3 As==00
    7946:	b0 12 4a 70 	call	#0x704a	
    794a:	30 41       	ret			
    794c:	7f 40 19 00 	mov.b	#25,	r15	;#0x0019
    7950:	b0 12 fa 4a 	call	#0x4afa	
    7954:	30 41       	ret			
    7956:	b0 12 d2 6f 	call	#0x6fd2	
    795a:	30 41       	ret			
    795c:	c2 43 2b 18 	mov.b	#0,	&0x182b	;r3 As==00
    7960:	b0 12 f0 73 	call	#0x73f0	
    7964:	30 41       	ret			
    7966:	7f 40 17 00 	mov.b	#23,	r15	;#0x0017
    796a:	b0 12 fa 4a 	call	#0x4afa	
    796e:	30 41       	ret			

00007970 <PibP__PIBUpdate__notify>:
    7970:	0b 12       	push	r11		
    7972:	0b 4e       	mov	r14,	r11	
    7974:	7f 90 4d 00 	cmp.b	#77,	r15	;#0x004d
    7978:	23 24       	jz	$+72     	;abs 0x79c0
    797a:	7f 90 4e 00 	cmp.b	#78,	r15	;#0x004e
    797e:	0f 2c       	jc	$+32     	;abs 0x799e
    7980:	6f 93       	cmp.b	#2,	r15	;r3 As==10
    7982:	36 24       	jz	$+110    	;abs 0x79f0
    7984:	7f 90 03 00 	cmp.b	#3,	r15	;#0x0003
    7988:	03 2c       	jc	$+8      	;abs 0x7990
    798a:	4f 93       	tst.b	r15		
    798c:	31 24       	jz	$+100    	;abs 0x79f0
    798e:	32 3c       	jmp	$+102    	;abs 0x79f4
    7990:	7f 90 03 00 	cmp.b	#3,	r15	;#0x0003
    7994:	2d 24       	jz	$+92     	;abs 0x79f0
    7996:	7f 90 41 00 	cmp.b	#65,	r15	;#0x0041
    799a:	2c 20       	jnz	$+90     	;abs 0x79f4
    799c:	11 3c       	jmp	$+36     	;abs 0x79c0
    799e:	7f 90 52 00 	cmp.b	#82,	r15	;#0x0052
    79a2:	11 24       	jz	$+36     	;abs 0x79c6
    79a4:	7f 90 53 00 	cmp.b	#83,	r15	;#0x0053
    79a8:	04 2c       	jc	$+10     	;abs 0x79b2
    79aa:	7f 90 50 00 	cmp.b	#80,	r15	;#0x0050
    79ae:	22 20       	jnz	$+70     	;abs 0x79f4
    79b0:	1f 3c       	jmp	$+64     	;abs 0x79f0
    79b2:	7f 90 53 00 	cmp.b	#83,	r15	;#0x0053
    79b6:	1c 24       	jz	$+58     	;abs 0x79f0
    79b8:	7f 90 f0 ff 	cmp.b	#-16,	r15	;#0xfff0
    79bc:	1b 20       	jnz	$+56     	;abs 0x79f4
    79be:	18 3c       	jmp	$+50     	;abs 0x79f0
    79c0:	b0 12 84 68 	call	#0x6884	
    79c4:	17 3c       	jmp	$+48     	;abs 0x79f4
    79c6:	0f 42       	mov	r2,	r15	
    79c8:	32 c2       	dint			
    79ca:	03 43       	nop			
    79cc:	e2 4e f9 11 	mov.b	@r14,	&0x11f9	
    79d0:	3f f2       	and	#8,	r15	;r2 As==11
    79d2:	01 24       	jz	$+4      	;abs 0x79d6
    79d4:	32 d2       	eint			
    79d6:	b0 12 f0 73 	call	#0x73f0	
    79da:	0f 42       	mov	r2,	r15	
    79dc:	32 c2       	dint			
    79de:	03 43       	nop			
    79e0:	e2 4b 3e 18 	mov.b	@r11,	&0x183e	
    79e4:	3f f2       	and	#8,	r15	;r2 As==11
    79e6:	01 24       	jz	$+4      	;abs 0x79ea
    79e8:	32 d2       	eint			
    79ea:	b0 12 4a 70 	call	#0x704a	
    79ee:	02 3c       	jmp	$+6      	;abs 0x79f4
    79f0:	b0 12 20 57 	call	#0x5720	
    79f4:	3b 41       	pop	r11		
    79f6:	30 41       	ret			

000079f8 <VirtualizeTimerC__0__fireTimers>:
    79f8:	0b 12       	push	r11		
    79fa:	0a 12       	push	r10		
    79fc:	09 12       	push	r9		
    79fe:	59 42 36 15 	mov.b	&0x1536,r9	
    7a02:	69 b3       	bit.b	#2,	r9	;r3 As==10
    7a04:	9c 24       	jz	$+314    	;abs 0x7b3e
    7a06:	1a 42 2e 15 	mov	&0x152e,r10	
    7a0a:	1b 42 30 15 	mov	&0x1530,r11	
    7a0e:	1c 42 32 15 	mov	&0x1532,r12	
    7a12:	1d 42 34 15 	mov	&0x1534,r13	
    7a16:	0e 8a       	sub	r10,	r14	
    7a18:	0f 7b       	subc	r11,	r15	
    7a1a:	0f 9d       	cmp	r13,	r15	
    7a1c:	90 28       	jnc	$+290    	;abs 0x7b3e
    7a1e:	02 20       	jnz	$+6      	;abs 0x7a24
    7a20:	0e 9c       	cmp	r12,	r14	
    7a22:	8d 28       	jnc	$+284    	;abs 0x7b3e
    7a24:	59 b3       	bit.b	#1,	r9	;r3 As==01
    7a26:	05 24       	jz	$+12     	;abs 0x7a32
    7a28:	79 f0 fd ff 	and.b	#-3,	r9	;#0xfffd
    7a2c:	c2 49 36 15 	mov.b	r9,	&0x1536	
    7a30:	08 3c       	jmp	$+18     	;abs 0x7a42
    7a32:	0e 4c       	mov	r12,	r14	
    7a34:	0f 4d       	mov	r13,	r15	
    7a36:	0e 5a       	add	r10,	r14	
    7a38:	0f 6b       	addc	r11,	r15	
    7a3a:	82 4e 2e 15 	mov	r14,	&0x152e	
    7a3e:	82 4f 30 15 	mov	r15,	&0x1530	
    7a42:	d2 43 6a 17 	mov.b	#1,	&0x176a	;r3 As==01
    7a46:	d2 43 11 14 	mov.b	#1,	&0x1411	;r3 As==01
    7a4a:	b2 40 06 00 b4 11 	mov	#6,	&0x11b4	;#0x0006
    7a50:	92 43 b6 11 	mov	#1,	&0x11b6	;r3 As==01
    7a54:	f2 40 06 00 a7 11 	mov.b	#6,	&0x11a7	;#0x0006
    7a5a:	f2 40 03 00 a8 11 	mov.b	#3,	&0x11a8	;#0x0003
    7a60:	e2 42 a9 11 	mov.b	#4,	&0x11a9	;r2 As==10
    7a64:	5f 42 52 11 	mov.b	&0x1152,r15	
    7a68:	b0 12 66 56 	call	#0x5666	
    7a6c:	82 4f 42 11 	mov	r15,	&0x1142	
    7a70:	5f 42 52 11 	mov.b	&0x1152,r15	
    7a74:	7f 53       	add.b	#-1,	r15	;r3 As==11
    7a76:	b0 12 66 56 	call	#0x5666	
    7a7a:	82 4f 0a 18 	mov	r15,	&0x180a	
    7a7e:	1e 42 20 15 	mov	&0x1520,r14	
    7a82:	1c 42 42 11 	mov	&0x1142,r12	
    7a86:	0d 4e       	mov	r14,	r13	
    7a88:	1d 52 b6 11 	add	&0x11b6,r13	
    7a8c:	5f 42 a9 11 	mov.b	&0x11a9,r15	
    7a90:	02 12       	push	r2		
    7a92:	32 c2       	dint			
    7a94:	03 43       	nop			
    7a96:	82 4f 32 01 	mov	r15,	&0x0132	
    7a9a:	82 4c 38 01 	mov	r12,	&0x0138	
    7a9e:	1f 42 3a 01 	mov	&0x013a,r15	
    7aa2:	32 41       	pop	r2		
    7aa4:	0d 5f       	add	r15,	r13	
    7aa6:	82 4d b2 11 	mov	r13,	&0x11b2	
    7aaa:	5d 42 6a 17 	mov.b	&0x176a,r13	
    7aae:	1e 53       	inc	r14		
    7ab0:	4f 4d       	mov.b	r13,	r15	
    7ab2:	3f 53       	add	#-1,	r15	;r3 As==11
    7ab4:	02 12       	push	r2		
    7ab6:	32 c2       	dint			
    7ab8:	03 43       	nop			
    7aba:	82 4f 32 01 	mov	r15,	&0x0132	
    7abe:	82 4c 38 01 	mov	r12,	&0x0138	
    7ac2:	1f 42 3a 01 	mov	&0x013a,r15	
    7ac6:	32 41       	pop	r2		
    7ac8:	0e 5f       	add	r15,	r14	
    7aca:	82 4e 24 18 	mov	r14,	&0x1824	
    7ace:	5d 53       	inc.b	r13		
    7ad0:	c2 4d 6a 17 	mov.b	r13,	&0x176a	
    7ad4:	82 43 f2 13 	mov	#0,	&0x13f2	;r3 As==00
    7ad8:	3e 40 f2 13 	mov	#5106,	r14	;#0x13f2
    7adc:	7f 40 53 00 	mov.b	#83,	r15	;#0x0053
    7ae0:	b0 12 70 79 	call	#0x7970	
    7ae4:	d2 43 d6 13 	mov.b	#1,	&0x13d6	;r3 As==01
    7ae8:	3e 40 d6 13 	mov	#5078,	r14	;#0x13d6
    7aec:	7f 40 41 00 	mov.b	#65,	r15	;#0x0041
    7af0:	b0 12 70 79 	call	#0x7970	
    7af4:	b2 93 f2 13 	cmp	#-1,	&0x13f2	;r3 As==11
    7af8:	22 24       	jz	$+70     	;abs 0x7b3e
    7afa:	5f 42 8a 11 	mov.b	&0x118a,r15	
    7afe:	3f b0 05 00 	bit	#5,	r15	;#0x0005
    7b02:	1d 20       	jnz	$+60     	;abs 0x7b3e
    7b04:	b2 40 3f 12 0c 15 	mov	#4671,	&0x150c	;#0x123f
    7b0a:	f2 40 1a 00 44 11 	mov.b	#26,	&0x1144	;#0x001a
    7b10:	82 43 72 11 	mov	#0,	&0x1172	;r3 As==00
    7b14:	82 43 74 11 	mov	#0,	&0x1174	;r3 As==00
    7b18:	f2 42 70 16 	mov.b	#8,	&0x1670	;r2 As==11
    7b1c:	e2 42 d9 17 	mov.b	#4,	&0x17d9	;r2 As==10
    7b20:	d2 43 08 14 	mov.b	#1,	&0x1408	;r3 As==01
    7b24:	c2 43 08 12 	mov.b	#0,	&0x1208	;r3 As==00
    7b28:	f2 40 05 00 8a 11 	mov.b	#5,	&0x118a	;#0x0005
    7b2e:	f2 90 0f 00 cc 17 	cmp.b	#15,	&0x17cc	;#0x000f
    7b34:	04 20       	jnz	$+10     	;abs 0x7b3e
    7b36:	7f 40 03 00 	mov.b	#3,	r15	;#0x0003
    7b3a:	b0 12 22 76 	call	#0x7622	
    7b3e:	5f 43       	mov.b	#1,	r15	;r3 As==01
    7b40:	b0 12 fa 4a 	call	#0x4afa	
    7b44:	39 41       	pop	r9		
    7b46:	3a 41       	pop	r10		
    7b48:	3b 41       	pop	r11		
    7b4a:	30 41       	ret			

00007b4c <AssociateP__DataRequest__pollDone.part.237>:
    7b4c:	f2 f0 fd ff 6c 15 	and.b	#-3,	&0x156c	;#0xfffd
    7b52:	c2 43 ba 12 	mov.b	#0,	&0x12ba	;r3 As==00
    7b56:	3e 40 f0 13 	mov	#5104,	r14	;#0x13f0
    7b5a:	be 43 00 00 	mov	#-1,	0(r14)	;r3 As==11, 0x0000(r14)
    7b5e:	7f 40 50 00 	mov.b	#80,	r15	;#0x0050
    7b62:	b0 12 70 79 	call	#0x7970	
    7b66:	30 41       	ret			

00007b68 <PollP__DataRequest__pollDone>:
    7b68:	5f 93       	cmp.b	#1,	r15	;r3 As==01
    7b6a:	05 20       	jnz	$+12     	;abs 0x7b76
    7b6c:	c2 93 ba 12 	tst.b	&0x12ba	
    7b70:	02 24       	jz	$+6      	;abs 0x7b76
    7b72:	b0 12 4c 7b 	call	#0x7b4c	
    7b76:	30 41       	ret			

00007b78 <PollP__DataRequest__poll>:
    7b78:	0b 12       	push	r11		
    7b7a:	0a 12       	push	r10		
    7b7c:	09 12       	push	r9		
    7b7e:	08 12       	push	r8		
    7b80:	07 12       	push	r7		
    7b82:	06 12       	push	r6		
    7b84:	05 12       	push	r5		
    7b86:	04 12       	push	r4		
    7b88:	31 50 ee ff 	add	#-18,	r1	;#0xffee
    7b8c:	46 4f       	mov.b	r15,	r6	
    7b8e:	47 4e       	mov.b	r14,	r7	
    7b90:	04 4d       	mov	r13,	r4	
    7b92:	0a 4c       	mov	r12,	r10	
    7b94:	55 41 24 00 	mov.b	36(r1),	r5	;0x0024(r1)
    7b98:	6f 93       	cmp.b	#2,	r15	;r3 As==10
    7b9a:	06 20       	jnz	$+14     	;abs 0x7ba8
    7b9c:	82 93 82 15 	tst	&0x1582	
    7ba0:	03 24       	jz	$+8      	;abs 0x7ba8
    7ba2:	b0 12 68 7b 	call	#0x7b68	
    7ba6:	7c 3c       	jmp	$+250    	;abs 0x7ca0
    7ba8:	b0 12 8c 48 	call	#0x488c	
    7bac:	0b 4f       	mov	r15,	r11	
    7bae:	0f 93       	tst	r15		
    7bb0:	7c 24       	jz	$+250    	;abs 0x7caa
    7bb2:	b0 12 c4 48 	call	#0x48c4	
    7bb6:	08 4f       	mov	r15,	r8	
    7bb8:	0f 93       	tst	r15		
    7bba:	74 24       	jz	$+234    	;abs 0x7ca4
    7bbc:	8b 4f 00 00 	mov	r15,	0(r11)	;0x0000(r11)
    7bc0:	3f 50 18 00 	add	#24,	r15	;#0x0018
    7bc4:	8b 4f 04 00 	mov	r15,	4(r11)	;0x0004(r11)
    7bc8:	cb 46 09 00 	mov.b	r6,	9(r11)	;0x0009(r11)
    7bcc:	91 42 f0 13 10 00 	mov	&0x13f0,16(r1)	;0x0010(r1)
    7bd2:	67 93       	cmp.b	#2,	r7	;r3 As==10
    7bd4:	02 20       	jnz	$+6      	;abs 0x7bda
    7bd6:	2f 43       	mov	#2,	r15	;r3 As==10
    7bd8:	01 3c       	jmp	$+4      	;abs 0x7bdc
    7bda:	3f 42       	mov	#8,	r15	;r2 As==11
    7bdc:	0d 4f       	mov	r15,	r13	
    7bde:	0e 4a       	mov	r10,	r14	
    7be0:	0f 41       	mov	r1,	r15	
    7be2:	b0 12 74 bc 	call	#0xbc74	
    7be6:	2a 4b       	mov	@r11,	r10	
    7be8:	fa 40 23 00 01 00 	mov.b	#35,	1(r10)	;#0x0023, 0x0001(r10)
    7bee:	67 93       	cmp.b	#2,	r7	;r3 As==10
    7bf0:	08 28       	jnc	$+18     	;abs 0x7c02
    7bf2:	65 93       	cmp.b	#2,	r5	;r3 As==10
    7bf4:	06 28       	jnc	$+14     	;abs 0x7c02
    7bf6:	14 91 10 00 	cmp	16(r1),	r4	;0x0010(r1)
    7bfa:	03 20       	jnz	$+8      	;abs 0x7c02
    7bfc:	fa 40 63 00 01 00 	mov.b	#99,	1(r10)	;#0x0063, 0x0001(r10)
    7c02:	49 45       	mov.b	r5,	r9	
    7c04:	7f 40 06 00 	mov.b	#6,	r15	;#0x0006
    7c08:	09 59       	rla	r9		
    7c0a:	7f 53       	add.b	#-1,	r15	;r3 As==11
    7c0c:	fd 23       	jnz	$-4      	;abs 0x7c08
    7c0e:	4c 47       	mov.b	r7,	r12	
    7c10:	4c 5c       	rla.b	r12		
    7c12:	4c 5c       	rla.b	r12		
    7c14:	4c d9       	bis.b	r9,	r12	
    7c16:	ca 4c 02 00 	mov.b	r12,	2(r10)	;0x0002(r10)
    7c1a:	65 93       	cmp.b	#2,	r5	;r3 As==10
    7c1c:	04 20       	jnz	$+10     	;abs 0x7c26
    7c1e:	91 42 f2 13 08 00 	mov	&0x13f2,8(r1)	;0x0008(r1)
    7c24:	0c 3c       	jmp	$+26     	;abs 0x7c3e
    7c26:	91 42 24 15 08 00 	mov	&0x1524,8(r1)	;0x0008(r1)
    7c2c:	91 42 26 15 0a 00 	mov	&0x1526,10(r1)	;0x000a(r1)
    7c32:	91 42 28 15 0c 00 	mov	&0x1528,12(r1)	;0x000c(r1)
    7c38:	91 42 2a 15 0e 00 	mov	&0x152a,14(r1)	;0x000e(r1)
    7c3e:	2f 4b       	mov	@r11,	r15	
    7c40:	1f 53       	inc	r15		
    7c42:	5d 4a 01 00 	mov.b	1(r10),	r13	;0x0001(r10)
    7c46:	3d f0 40 00 	and	#64,	r13	;#0x0040
    7c4a:	5e 43       	mov.b	#1,	r14	;r3 As==01
    7c4c:	01 20       	jnz	$+4      	;abs 0x7c50
    7c4e:	4e 43       	clr.b	r14		
    7c50:	4e 12       	push.b	r14		
    7c52:	0e 41       	mov	r1,	r14	
    7c54:	3e 50 0a 00 	add	#10,	r14	;#0x000a
    7c58:	0e 12       	push	r14		
    7c5a:	11 12 16 00 	push	22(r1)		;0x0016(r1)
    7c5e:	45 12       	push.b	r5		
    7c60:	0c 41       	mov	r1,	r12	
    7c62:	3c 52       	add	#8,	r12	;r2 As==11
    7c64:	0d 44       	mov	r4,	r13	
    7c66:	4e 47       	mov.b	r7,	r14	
    7c68:	b0 12 fe 48 	call	#0x48fe	
    7c6c:	31 52       	add	#8,	r1	;r2 As==11
    7c6e:	cb 4f 06 00 	mov.b	r15,	6(r11)	;0x0006(r11)
    7c72:	bb 40 08 11 02 00 	mov	#4360,	2(r11)	;#0x1108, 0x0002(r11)
    7c78:	db 43 07 00 	mov.b	#1,	7(r11)	;r3 As==01, 0x0007(r11)
    7c7c:	0e 4b       	mov	r11,	r14	
    7c7e:	7f 40 06 00 	mov.b	#6,	r15	;#0x0006
    7c82:	b0 12 22 64 	call	#0x6422	
    7c86:	0a 4f       	mov	r15,	r10	
    7c88:	0f 93       	tst	r15		
    7c8a:	08 24       	jz	$+18     	;abs 0x7c9c
    7c8c:	0f 48       	mov	r8,	r15	
    7c8e:	b0 12 f6 5e 	call	#0x5ef6	
    7c92:	0f 4b       	mov	r11,	r15	
    7c94:	b0 12 26 5f 	call	#0x5f26	
    7c98:	0b 4a       	mov	r10,	r11	
    7c9a:	09 3c       	jmp	$+20     	;abs 0x7cae
    7c9c:	92 53 82 15 	inc	&0x1582	
    7ca0:	0b 43       	clr	r11		
    7ca2:	08 3c       	jmp	$+18     	;abs 0x7cb4
    7ca4:	0f 4b       	mov	r11,	r15	
    7ca6:	b0 12 26 5f 	call	#0x5f26	
    7caa:	3b 40 f1 00 	mov	#241,	r11	;#0x00f1
    7cae:	4f 46       	mov.b	r6,	r15	
    7cb0:	b0 12 68 7b 	call	#0x7b68	
    7cb4:	0f 4b       	mov	r11,	r15	
    7cb6:	31 50 12 00 	add	#18,	r1	;#0x0012
    7cba:	34 41       	pop	r4		
    7cbc:	35 41       	pop	r5		
    7cbe:	36 41       	pop	r6		
    7cc0:	37 41       	pop	r7		
    7cc2:	38 41       	pop	r8		
    7cc4:	39 41       	pop	r9		
    7cc6:	3a 41       	pop	r10		
    7cc8:	3b 41       	pop	r11		
    7cca:	30 41       	ret			

00007ccc <DisassociateP__resetPanValuesInPib>:
    7ccc:	0b 12       	push	r11		
    7cce:	3b 40 f0 13 	mov	#5104,	r11	;#0x13f0
    7cd2:	bb 43 00 00 	mov	#-1,	0(r11)	;r3 As==11, 0x0000(r11)
    7cd6:	0e 4b       	mov	r11,	r14	
    7cd8:	7f 40 50 00 	mov.b	#80,	r15	;#0x0050
    7cdc:	b0 12 70 79 	call	#0x7970	
    7ce0:	0e 4b       	mov	r11,	r14	
    7ce2:	2e 53       	incd	r14		
    7ce4:	be 43 00 00 	mov	#-1,	0(r14)	;r3 As==11, 0x0000(r14)
    7ce8:	7f 40 53 00 	mov.b	#83,	r15	;#0x0053
    7cec:	b0 12 70 79 	call	#0x7970	
    7cf0:	0e 4b       	mov	r11,	r14	
    7cf2:	3e 50 ec ff 	add	#-20,	r14	;#0xffec
    7cf6:	ce 43 00 00 	mov.b	#0,	0(r14)	;r3 As==00, 0x0000(r14)
    7cfa:	7f 40 56 00 	mov.b	#86,	r15	;#0x0056
    7cfe:	b0 12 70 79 	call	#0x7970	
    7d02:	0e 4b       	mov	r11,	r14	
    7d04:	2e 83       	decd	r14		
    7d06:	be 43 00 00 	mov	#-1,	0(r14)	;r3 As==11, 0x0000(r14)
    7d0a:	7f 40 4b 00 	mov.b	#75,	r15	;#0x004b
    7d0e:	b0 12 70 79 	call	#0x7970	
    7d12:	0e 4b       	mov	r11,	r14	
    7d14:	3e 50 0e 00 	add	#14,	r14	;#0x000e
    7d18:	8e 43 00 00 	mov	#0,	0(r14)	;r3 As==00, 0x0000(r14)
    7d1c:	8e 43 02 00 	mov	#0,	2(r14)	;r3 As==00, 0x0002(r14)
    7d20:	8e 43 04 00 	mov	#0,	4(r14)	;r3 As==00, 0x0004(r14)
    7d24:	8e 43 06 00 	mov	#0,	6(r14)	;r3 As==00, 0x0006(r14)
    7d28:	7f 40 4a 00 	mov.b	#74,	r15	;#0x004a
    7d2c:	b0 12 70 79 	call	#0x7970	
    7d30:	3b 41       	pop	r11		
    7d32:	30 41       	ret			

00007d34 <DispatchQueueP__0__FrameTx__transmitDone>:
    7d34:	0b 12       	push	r11		
    7d36:	0a 12       	push	r10		
    7d38:	31 82       	sub	#8,	r1	;r2 As==11
    7d3a:	0b 4e       	mov	r14,	r11	
    7d3c:	0a 4d       	mov	r13,	r10	
    7d3e:	7f 90 03 00 	cmp.b	#3,	r15	;#0x0003
    7d42:	2c 24       	jz	$+90     	;abs 0x7d9c
    7d44:	6f 92       	cmp.b	#4,	r15	;r2 As==10
    7d46:	03 2c       	jc	$+8      	;abs 0x7d4e
    7d48:	5f 93       	cmp.b	#1,	r15	;r3 As==01
    7d4a:	5c 20       	jnz	$+186    	;abs 0x7e04
    7d4c:	06 3c       	jmp	$+14     	;abs 0x7d5a
    7d4e:	6f 92       	cmp.b	#4,	r15	;r2 As==10
    7d50:	56 24       	jz	$+174    	;abs 0x7dfe
    7d52:	7f 90 06 00 	cmp.b	#6,	r15	;#0x0006
    7d56:	56 20       	jnz	$+174    	;abs 0x7e04
    7d58:	44 3c       	jmp	$+138    	;abs 0x7de2
    7d5a:	2f 4e       	mov	@r14,	r15	
    7d5c:	b0 12 f6 5e 	call	#0x5ef6	
    7d60:	0f 4b       	mov	r11,	r15	
    7d62:	b0 12 26 5f 	call	#0x5f26	
    7d66:	0a 93       	tst	r10		
    7d68:	03 24       	jz	$+8      	;abs 0x7d70
    7d6a:	c2 43 ba 12 	mov.b	#0,	&0x12ba	;r3 As==00
    7d6e:	4a 3c       	jmp	$+150    	;abs 0x7e04
    7d70:	5f 42 ed 13 	mov.b	&0x13ed,r15	
    7d74:	02 12       	push	r2		
    7d76:	32 c2       	dint			
    7d78:	03 43       	nop			
    7d7a:	82 4f 32 01 	mov	r15,	&0x0132	
    7d7e:	b2 40 c0 03 38 01 	mov	#960,	&0x0138	;#0x03c0
    7d84:	1d 42 3a 01 	mov	&0x013a,r13	
    7d88:	32 41       	pop	r2		
    7d8a:	0e 4d       	mov	r13,	r14	
    7d8c:	8e 10       	swpb	r14		
    7d8e:	8e 11       	sxt	r14		
    7d90:	8e 10       	swpb	r14		
    7d92:	8e 11       	sxt	r14		
    7d94:	6f 43       	mov.b	#2,	r15	;r3 As==10
    7d96:	b0 12 9c 4d 	call	#0x4d9c	
    7d9a:	34 3c       	jmp	$+106    	;abs 0x7e04
    7d9c:	2f 4e       	mov	@r14,	r15	
    7d9e:	5e 4f 02 00 	mov.b	2(r15),	r14	;0x0002(r15)
    7da2:	3e f0 0c 00 	and	#12,	r14	;#0x000c
    7da6:	3e 90 0c 00 	cmp	#12,	r14	;#0x000c
    7daa:	03 24       	jz	$+8      	;abs 0x7db2
    7dac:	7e 40 07 00 	mov.b	#7,	r14	;#0x0007
    7db0:	02 3c       	jmp	$+6      	;abs 0x7db6
    7db2:	7e 40 0d 00 	mov.b	#13,	r14	;#0x000d
    7db6:	4e 4e       	mov.b	r14,	r14	
    7db8:	0e 5f       	add	r15,	r14	
    7dba:	1e 53       	inc	r14		
    7dbc:	0f 41       	mov	r1,	r15	
    7dbe:	b0 12 aa 47 	call	#0x47aa	
    7dc2:	2f 4b       	mov	@r11,	r15	
    7dc4:	b0 12 f6 5e 	call	#0x5ef6	
    7dc8:	0f 4b       	mov	r11,	r15	
    7dca:	b0 12 26 5f 	call	#0x5f26	
    7dce:	c2 43 28 14 	mov.b	#0,	&0x1428	;r3 As==00
    7dd2:	0a 93       	tst	r10		
    7dd4:	03 24       	jz	$+8      	;abs 0x7ddc
    7dd6:	3a 90 e9 00 	cmp	#233,	r10	;#0x00e9
    7dda:	14 20       	jnz	$+42     	;abs 0x7e04
    7ddc:	b0 12 cc 7c 	call	#0x7ccc	
    7de0:	11 3c       	jmp	$+36     	;abs 0x7e04
    7de2:	b2 53 82 15 	add	#-1,	&0x1582	;r3 As==11
    7de6:	5f 4e 09 00 	mov.b	9(r14),	r15	;0x0009(r14)
    7dea:	7f 90 fe ff 	cmp.b	#-2,	r15	;#0xfffe
    7dee:	04 24       	jz	$+10     	;abs 0x7df8
    7df0:	7f 93       	cmp.b	#-1,	r15	;r3 As==11
    7df2:	02 24       	jz	$+6      	;abs 0x7df8
    7df4:	b0 12 68 7b 	call	#0x7b68	
    7df8:	2f 4b       	mov	@r11,	r15	
    7dfa:	b0 12 f6 5e 	call	#0x5ef6	
    7dfe:	0f 4b       	mov	r11,	r15	
    7e00:	b0 12 26 5f 	call	#0x5f26	
    7e04:	31 52       	add	#8,	r1	;r2 As==11
    7e06:	3a 41       	pop	r10		
    7e08:	3b 41       	pop	r11		
    7e0a:	30 41       	ret			

00007e0c <DispatchSlottedCsmaP__0__FrameTx__transmitDone>:
    7e0c:	0b 12       	push	r11		
    7e0e:	0a 12       	push	r10		
    7e10:	0a 4f       	mov	r15,	r10	
    7e12:	0b 4e       	mov	r14,	r11	
    7e14:	f2 f0 fe ff b9 16 	and.b	#-2,	&0x16b9	;#0xfffe
    7e1a:	c2 93 26 11 	tst.b	&0x1126	
    7e1e:	1c 24       	jz	$+58     	;abs 0x7e58
    7e20:	b0 12 a4 5f 	call	#0x5fa4	
    7e24:	0d 4b       	mov	r11,	r13	
    7e26:	0e 4a       	mov	r10,	r14	
    7e28:	5f 4a 08 00 	mov.b	8(r10),	r15	;0x0008(r10)
    7e2c:	b0 12 34 7d 	call	#0x7d34	
    7e30:	3b 90 ea 00 	cmp	#234,	r11	;#0x00ea
    7e34:	0d 20       	jnz	$+28     	;abs 0x7e50
    7e36:	09 3c       	jmp	$+20     	;abs 0x7e4a
    7e38:	b0 12 a4 5f 	call	#0x5fa4	
    7e3c:	3d 40 ea 00 	mov	#234,	r13	;#0x00ea
    7e40:	0e 4f       	mov	r15,	r14	
    7e42:	5f 4f 08 00 	mov.b	8(r15),	r15	;0x0008(r15)
    7e46:	b0 12 34 7d 	call	#0x7d34	
    7e4a:	c2 93 26 11 	tst.b	&0x1126	
    7e4e:	f4 23       	jnz	$-22     	;abs 0x7e38
    7e50:	7f 40 0c 00 	mov.b	#12,	r15	;#0x000c
    7e54:	b0 12 fa 4a 	call	#0x4afa	
    7e58:	3a 41       	pop	r10		
    7e5a:	3b 41       	pop	r11		
    7e5c:	30 41       	ret			

00007e5e <DispatchSlottedCsmaP__0__reset>:
    7e5e:	0b 12       	push	r11		
    7e60:	0b 4f       	mov	r15,	r11	
    7e62:	7f 40 09 00 	mov.b	#9,	r15	;#0x0009
    7e66:	b0 12 d2 51 	call	#0x51d2	
    7e6a:	4f 93       	tst.b	r15		
    7e6c:	1e 20       	jnz	$+62     	;abs 0x7eaa
    7e6e:	1f 42 f8 14 	mov	&0x14f8,r15	
    7e72:	0f 93       	tst	r15		
    7e74:	03 24       	jz	$+8      	;abs 0x7e7c
    7e76:	0e 4b       	mov	r11,	r14	
    7e78:	b0 12 0c 7e 	call	#0x7e0c	
    7e7c:	1f 42 08 15 	mov	&0x1508,r15	
    7e80:	0f 93       	tst	r15		
    7e82:	03 24       	jz	$+8      	;abs 0x7e8a
    7e84:	0e 4b       	mov	r11,	r14	
    7e86:	b0 12 0c 7e 	call	#0x7e0c	
    7e8a:	82 43 60 17 	mov	#0,	&0x1760	;r3 As==00
    7e8e:	82 43 08 15 	mov	#0,	&0x1508	;r3 As==00
    7e92:	82 43 f8 14 	mov	#0,	&0x14f8	;r3 As==00
    7e96:	92 42 f6 13 94 11 	mov	&0x13f6,&0x1194	
    7e9c:	92 42 f8 13 96 11 	mov	&0x13f8,&0x1196	
    7ea2:	b0 12 b0 53 	call	#0x53b0	
    7ea6:	0f 43       	clr	r15		
    7ea8:	01 3c       	jmp	$+4      	;abs 0x7eac
    7eaa:	1f 43       	mov	#1,	r15	;r3 As==01
    7eac:	3b 41       	pop	r11		
    7eae:	30 41       	ret			

00007eb0 <DisassociateP__DisassociationDirectTx__transmitDone>:
    7eb0:	0b 12       	push	r11		
    7eb2:	0a 12       	push	r10		
    7eb4:	31 82       	sub	#8,	r1	;r2 As==11
    7eb6:	0b 4f       	mov	r15,	r11	
    7eb8:	0a 4e       	mov	r14,	r10	
    7eba:	2e 4f       	mov	@r15,	r14	
    7ebc:	3e 50 06 00 	add	#6,	r14	;#0x0006
    7ec0:	0f 41       	mov	r1,	r15	
    7ec2:	b0 12 aa 47 	call	#0x47aa	
    7ec6:	2f 4b       	mov	@r11,	r15	
    7ec8:	b0 12 f6 5e 	call	#0x5ef6	
    7ecc:	0f 4b       	mov	r11,	r15	
    7ece:	b0 12 26 5f 	call	#0x5f26	
    7ed2:	c2 43 28 14 	mov.b	#0,	&0x1428	;r3 As==00
    7ed6:	0a 93       	tst	r10		
    7ed8:	03 24       	jz	$+8      	;abs 0x7ee0
    7eda:	3a 90 e9 00 	cmp	#233,	r10	;#0x00e9
    7ede:	02 20       	jnz	$+6      	;abs 0x7ee4
    7ee0:	b0 12 cc 7c 	call	#0x7ccc	
    7ee4:	31 52       	add	#8,	r1	;r2 As==11
    7ee6:	3a 41       	pop	r10		
    7ee8:	3b 41       	pop	r11		
    7eea:	30 41       	ret			

00007eec <IndirectTxP__FrameTx__transmitDone>:
    7eec:	0b 12       	push	r11		
    7eee:	0a 12       	push	r10		
    7ef0:	31 82       	sub	#8,	r1	;r2 As==11
    7ef2:	0b 4e       	mov	r14,	r11	
    7ef4:	0a 4d       	mov	r13,	r10	
    7ef6:	5f 93       	cmp.b	#1,	r15	;r3 As==01
    7ef8:	2c 24       	jz	$+90     	;abs 0x7f52
    7efa:	03 28       	jnc	$+8      	;abs 0x7f02
    7efc:	6f 93       	cmp.b	#2,	r15	;r3 As==10
    7efe:	31 20       	jnz	$+100    	;abs 0x7f62
    7f00:	2d 3c       	jmp	$+92     	;abs 0x7f5c
    7f02:	2f 4e       	mov	@r14,	r15	
    7f04:	5e 4f 02 00 	mov.b	2(r15),	r14	;0x0002(r15)
    7f08:	3e f0 0c 00 	and	#12,	r14	;#0x000c
    7f0c:	3e 92       	cmp	#8,	r14	;r2 As==11
    7f0e:	09 20       	jnz	$+20     	;abs 0x7f22
    7f10:	5c 4f 07 00 	mov.b	7(r15),	r12	;0x0007(r15)
    7f14:	8c 10       	swpb	r12		
    7f16:	5f 4f 06 00 	mov.b	6(r15),	r15	;0x0006(r15)
    7f1a:	0c df       	bis	r15,	r12	
    7f1c:	81 4c 00 00 	mov	r12,	0(r1)	;0x0000(r1)
    7f20:	06 3c       	jmp	$+14     	;abs 0x7f2e
    7f22:	0e 4f       	mov	r15,	r14	
    7f24:	3e 50 06 00 	add	#6,	r14	;#0x0006
    7f28:	0f 41       	mov	r1,	r15	
    7f2a:	b0 12 aa 47 	call	#0x47aa	
    7f2e:	1f 4b 02 00 	mov	2(r11),	r15	;0x0002(r11)
    7f32:	ff 43 00 00 	mov.b	#-1,	0(r15)	;r3 As==11, 0x0000(r15)
    7f36:	2f 4b       	mov	@r11,	r15	
    7f38:	b0 12 f6 5e 	call	#0x5ef6	
    7f3c:	0f 4b       	mov	r11,	r15	
    7f3e:	b0 12 26 5f 	call	#0x5f26	
    7f42:	0a 93       	tst	r10		
    7f44:	03 20       	jnz	$+8      	;abs 0x7f4c
    7f46:	b0 12 ee 54 	call	#0x54ee	
    7f4a:	0b 3c       	jmp	$+24     	;abs 0x7f62
    7f4c:	b0 12 b0 69 	call	#0x69b0	
    7f50:	08 3c       	jmp	$+18     	;abs 0x7f62
    7f52:	0e 4d       	mov	r13,	r14	
    7f54:	0f 4b       	mov	r11,	r15	
    7f56:	b0 12 b0 7e 	call	#0x7eb0	
    7f5a:	03 3c       	jmp	$+8      	;abs 0x7f62
    7f5c:	0f 4e       	mov	r14,	r15	
    7f5e:	b0 12 26 5f 	call	#0x5f26	
    7f62:	31 52       	add	#8,	r1	;r2 As==11
    7f64:	3a 41       	pop	r10		
    7f66:	3b 41       	pop	r11		
    7f68:	30 41       	ret			

00007f6a <PibP__MLME_SET__phyCurrentChannel>:
    7f6a:	0b 12       	push	r11		
    7f6c:	4d 4f       	mov.b	r15,	r13	
    7f6e:	4b 4f       	mov.b	r15,	r11	
    7f70:	7b 50 e0 ff 	add.b	#-32,	r11	;#0xffe0
    7f74:	4c 4f       	mov.b	r15,	r12	
    7f76:	1e 43       	mov	#1,	r14	;r3 As==01
    7f78:	0f 43       	clr	r15		
    7f7a:	05 3c       	jmp	$+12     	;abs 0x7f86
    7f7c:	0e 5e       	rla	r14		
    7f7e:	0f 6f       	rlc	r15		
    7f80:	7c 53       	add.b	#-1,	r12	;r3 As==11
    7f82:	4c 9b       	cmp.b	r11,	r12	
    7f84:	03 24       	jz	$+8      	;abs 0x7f8c
    7f86:	4c 93       	tst.b	r12		
    7f88:	f9 23       	jnz	$-12     	;abs 0x7f7c
    7f8a:	02 3c       	jmp	$+6      	;abs 0x7f90
    7f8c:	0e 43       	clr	r14		
    7f8e:	0f 43       	clr	r15		
    7f90:	3e f0 00 f8 	and	#-2048,	r14	;#0xf800
    7f94:	3f f0 ff 07 	and	#2047,	r15	;#0x07ff
    7f98:	0e 93       	tst	r14		
    7f9a:	02 20       	jnz	$+6      	;abs 0x7fa0
    7f9c:	0f 93       	tst	r15		
    7f9e:	09 24       	jz	$+20     	;abs 0x7fb2
    7fa0:	c2 4d df 13 	mov.b	r13,	&0x13df	
    7fa4:	3e 40 df 13 	mov	#5087,	r14	;#0x13df
    7fa8:	4f 43       	clr.b	r15		
    7faa:	b0 12 70 79 	call	#0x7970	
    7fae:	0f 43       	clr	r15		
    7fb0:	02 3c       	jmp	$+6      	;abs 0x7fb6
    7fb2:	3f 40 e8 00 	mov	#232,	r15	;#0x00e8
    7fb6:	3b 41       	pop	r11		
    7fb8:	30 41       	ret			

00007fba <BeaconSynchronizeP__RadioToken__granted>:
    7fba:	5f 42 50 11 	mov.b	&0x1150,r15	
    7fbe:	3f f0 20 00 	and	#32,	r15	;#0x0020
    7fc2:	2f 24       	jz	$+96     	;abs 0x8022
    7fc4:	c2 93 be 11 	tst.b	&0x11be	
    7fc8:	02 24       	jz	$+6      	;abs 0x7fce
    7fca:	7f 42       	mov.b	#8,	r15	;r2 As==11
    7fcc:	01 3c       	jmp	$+4      	;abs 0x7fd0
    7fce:	6f 42       	mov.b	#4,	r15	;r2 As==10
    7fd0:	b0 12 88 46 	call	#0x4688	
    7fd4:	5f 42 c8 17 	mov.b	&0x17c8,r15	
    7fd8:	b0 12 6a 7f 	call	#0x7f6a	
    7fdc:	5f 42 e5 13 	mov.b	&0x13e5,r15	
    7fe0:	c2 4f bd 11 	mov.b	r15,	&0x11bd	
    7fe4:	7f 90 0f 00 	cmp.b	#15,	r15	;#0x000f
    7fe8:	02 28       	jnc	$+6      	;abs 0x7fee
    7fea:	7f 40 0e 00 	mov.b	#14,	r15	;#0x000e
    7fee:	b2 40 c0 03 4a 11 	mov	#960,	&0x114a	;#0x03c0
    7ff4:	82 43 4c 11 	mov	#0,	&0x114c	;r3 As==00
    7ff8:	7f f0 1f 00 	and.b	#31,	r15	;#0x001f
    7ffc:	4f 93       	tst.b	r15		
    7ffe:	08 24       	jz	$+18     	;abs 0x8010
    8000:	92 52 4a 11 4a 11 	rla	&0x114a	
    8006:	92 62 4c 11 4c 11 	rlc	&0x114c	
    800c:	7f 53       	add.b	#-1,	r15	;r3 As==11
    800e:	f6 3f       	jmp	$-18     	;abs 0x7ffc
    8010:	e2 42 f6 14 	mov.b	#4,	&0x14f6	;r2 As==10
    8014:	f2 f0 df ff 50 11 	and.b	#-33,	&0x1150	;#0xffdf
    801a:	7f 40 03 00 	mov.b	#3,	r15	;#0x0003
    801e:	b0 12 52 46 	call	#0x4652	
    8022:	b0 12 b4 76 	call	#0x76b4	
    8026:	30 41       	ret			

00008028 <DispatchSlottedCsmaP__1__setCurrentFrame>:
    8028:	0b 12       	push	r11		
    802a:	0b 4f       	mov	r15,	r11	
    802c:	5f 42 e7 13 	mov.b	&0x13e7,r15	
    8030:	2e 4b       	mov	@r11,	r14	
    8032:	ce 4f 03 00 	mov.b	r15,	3(r14)	;0x0003(r14)
    8036:	5f 53       	inc.b	r15		
    8038:	c2 4f e7 13 	mov.b	r15,	&0x13e7	
    803c:	3e 40 e7 13 	mov	#5095,	r14	;#0x13e7
    8040:	7f 40 4c 00 	mov.b	#76,	r15	;#0x004c
    8044:	b0 12 70 79 	call	#0x7970	
    8048:	c2 43 07 12 	mov.b	#0,	&0x1207	;r3 As==00
    804c:	5f 42 e8 13 	mov.b	&0x13e8,r15	
    8050:	c2 4f bf 11 	mov.b	r15,	&0x11bf	
    8054:	c2 4f 06 12 	mov.b	r15,	&0x1206	
    8058:	5f 42 eb 13 	mov.b	&0x13eb,r15	
    805c:	c2 4f 10 14 	mov.b	r15,	&0x1410	
    8060:	c2 4f 05 12 	mov.b	r15,	&0x1205	
    8064:	5f 42 e9 13 	mov.b	&0x13e9,r15	
    8068:	c2 4f 04 12 	mov.b	r15,	&0x1204	
    806c:	c2 93 d8 13 	tst.b	&0x13d8	
    8070:	05 24       	jz	$+12     	;abs 0x807c
    8072:	7f 90 03 00 	cmp.b	#3,	r15	;#0x0003
    8076:	02 28       	jnc	$+6      	;abs 0x807c
    8078:	e2 43 04 12 	mov.b	#2,	&0x1204	;r3 As==10
    807c:	d2 42 04 12 53 17 	mov.b	&0x1204,&0x1753	
    8082:	82 9b 18 18 	cmp	r11,	&0x1818	
    8086:	03 20       	jnz	$+8      	;abs 0x808e
    8088:	c2 43 5e 17 	mov.b	#0,	&0x175e	;r3 As==00
    808c:	03 3c       	jmp	$+8      	;abs 0x8094
    808e:	d2 42 ec 13 5e 17 	mov.b	&0x13ec,&0x175e	
    8094:	5d 4b 06 00 	mov.b	6(r11),	r13	;0x0006(r11)
    8098:	5f 4b 07 00 	mov.b	7(r11),	r15	;0x0007(r11)
    809c:	0d 5f       	add	r15,	r13	
    809e:	3d 50 07 00 	add	#7,	r13	;#0x0007
    80a2:	0d 5d       	rla	r13		
    80a4:	0e 4d       	mov	r13,	r14	
    80a6:	8d 10       	swpb	r13		
    80a8:	8d 11       	sxt	r13		
    80aa:	8d 10       	swpb	r13		
    80ac:	8d 11       	sxt	r13		
    80ae:	0f 4d       	mov	r13,	r15	
    80b0:	82 4e 3a 18 	mov	r14,	&0x183a	
    80b4:	82 4f 3c 18 	mov	r15,	&0x183c	
    80b8:	2d 4b       	mov	@r11,	r13	
    80ba:	5d 4d 01 00 	mov.b	1(r13),	r13	;0x0001(r13)
    80be:	3d f0 20 00 	and	#32,	r13	;#0x0020
    80c2:	09 24       	jz	$+20     	;abs 0x80d6
    80c4:	0c 4e       	mov	r14,	r12	
    80c6:	0d 4f       	mov	r15,	r13	
    80c8:	3c 50 36 00 	add	#54,	r12	;#0x0036
    80cc:	0d 63       	adc	r13		
    80ce:	82 4c 3a 18 	mov	r12,	&0x183a	
    80d2:	82 4d 3c 18 	mov	r13,	&0x183c	
    80d6:	92 42 f6 13 12 18 	mov	&0x13f6,&0x1812	
    80dc:	92 42 f8 13 14 18 	mov	&0x13f8,&0x1814	
    80e2:	82 4b 1a 18 	mov	r11,	&0x181a	
    80e6:	3b 41       	pop	r11		
    80e8:	30 41       	ret			

000080ea <BeaconTransmitP__continueStartRequest>:
    80ea:	0b 12       	push	r11		
    80ec:	04 12       	push	r4		
    80ee:	04 41       	mov	r1,	r4	
    80f0:	24 52       	add	#4,	r4	;r2 As==10
    80f2:	31 50 f0 ff 	add	#-16,	r1	;#0xfff0
    80f6:	5b 42 8a 11 	mov.b	&0x118a,r11	
    80fa:	2b b3       	bit	#2,	r11	;r3 As==10
    80fc:	8f 24       	jz	$+288    	;abs 0x821c
    80fe:	b4 43 f4 ff 	mov	#-1,	-12(r4)	;r3 As==11, 0xfff4(r4)
    8102:	b0 12 8c 48 	call	#0x488c	
    8106:	0b 4f       	mov	r15,	r11	
    8108:	0f 93       	tst	r15		
    810a:	3e 24       	jz	$+126    	;abs 0x8188
    810c:	b0 12 c4 48 	call	#0x48c4	
    8110:	0f 93       	tst	r15		
    8112:	05 20       	jnz	$+12     	;abs 0x811e
    8114:	0f 4b       	mov	r11,	r15	
    8116:	b0 12 26 5f 	call	#0x5f26	
    811a:	0b 43       	clr	r11		
    811c:	35 3c       	jmp	$+108    	;abs 0x8188
    811e:	8b 4f 00 00 	mov	r15,	0(r11)	;0x0000(r11)
    8122:	0c 4f       	mov	r15,	r12	
    8124:	3c 50 18 00 	add	#24,	r12	;#0x0018
    8128:	8b 4c 04 00 	mov	r12,	4(r11)	;0x0004(r11)
    812c:	bb 40 fc 14 02 00 	mov	#5372,	2(r11)	;#0x14fc, 0x0002(r11)
    8132:	ff 40 03 00 01 00 	mov.b	#3,	1(r15)	;#0x0003, 0x0001(r15)
    8138:	2f 4b       	mov	@r11,	r15	
    813a:	ff 40 c0 ff 02 00 	mov.b	#-64,	2(r15)	;#0xffc0, 0x0002(r15)
    8140:	2f 4b       	mov	@r11,	r15	
    8142:	ff d2 02 00 	bis.b	#8,	2(r15)	;r2 As==11, 0x0002(r15)
    8146:	94 42 24 15 ec ff 	mov	&0x1524,-20(r4)	;0xffec(r4)
    814c:	94 42 26 15 ee ff 	mov	&0x1526,-18(r4)	;0xffee(r4)
    8152:	94 42 28 15 f0 ff 	mov	&0x1528,-16(r4)	;0xfff0(r4)
    8158:	94 42 2a 15 f2 ff 	mov	&0x152a,-14(r4)	;0xfff2(r4)
    815e:	43 12       	push.b	#0		;r3 As==00
    8160:	3e 40 ec ff 	mov	#-20,	r14	;#0xffec
    8164:	0e 54       	add	r4,	r14	
    8166:	0e 12       	push	r14		
    8168:	12 12 f0 13 	push	&0x13f0	
    816c:	70 12 03 00 	push.b	#3		;#0x0003
    8170:	0c 44       	mov	r4,	r12	
    8172:	3c 50 f4 ff 	add	#-12,	r12	;#0xfff4
    8176:	3d 43       	mov	#-1,	r13	;r3 As==11
    8178:	6e 43       	mov.b	#2,	r14	;r3 As==10
    817a:	2f 4b       	mov	@r11,	r15	
    817c:	1f 53       	inc	r15		
    817e:	b0 12 fe 48 	call	#0x48fe	
    8182:	31 52       	add	#8,	r1	;r2 As==11
    8184:	cb 4f 06 00 	mov.b	r15,	6(r11)	;0x0006(r11)
    8188:	f2 f0 fd ff 8a 11 	and.b	#-3,	&0x118a	;#0xfffd
    818e:	0b 93       	tst	r11		
    8190:	04 20       	jnz	$+10     	;abs 0x819a
    8192:	c2 43 8a 11 	mov.b	#0,	&0x118a	;r3 As==00
    8196:	30 40 c6 83 	br	#0x83c6	
    819a:	1f 4b 02 00 	mov	2(r11),	r15	;0x0002(r11)
    819e:	ff 42 00 00 	mov.b	#8,	0(r15)	;r2 As==11, 0x0000(r15)
    81a2:	1e 42 0c 15 	mov	&0x150c,r14	
    81a6:	1f 4b 02 00 	mov	2(r11),	r15	;0x0002(r11)
    81aa:	cf 4e 01 00 	mov.b	r14,	1(r15)	;0x0001(r15)
    81ae:	8e 10       	swpb	r14		
    81b0:	cf 4e 02 00 	mov.b	r14,	2(r15)	;0x0002(r15)
    81b4:	1e 42 f2 13 	mov	&0x13f2,r14	
    81b8:	1f 4b 02 00 	mov	2(r11),	r15	;0x0002(r11)
    81bc:	cf 4e 03 00 	mov.b	r14,	3(r15)	;0x0003(r15)
    81c0:	8e 10       	swpb	r14		
    81c2:	cf 4e 04 00 	mov.b	r14,	4(r15)	;0x0004(r15)
    81c6:	1f 4b 02 00 	mov	2(r11),	r15	;0x0002(r11)
    81ca:	df 42 44 11 05 00 	mov.b	&0x1144,5(r15)	;0x0005(r15)
    81d0:	1f 4b 02 00 	mov	2(r11),	r15	;0x0002(r11)
    81d4:	ff 43 06 00 	mov.b	#-1,	6(r15)	;r3 As==11, 0x0006(r15)
    81d8:	ff 43 07 00 	mov.b	#-1,	7(r15)	;r3 As==11, 0x0007(r15)
    81dc:	fb 42 07 00 	mov.b	#8,	7(r11)	;r2 As==11, 0x0007(r11)
    81e0:	f2 90 0f 00 cc 17 	cmp.b	#15,	&0x17cc	;#0x000f
    81e6:	11 2c       	jc	$+36     	;abs 0x820a
    81e8:	0f 42       	mov	r2,	r15	
    81ea:	3f f2       	and	#8,	r15	;r2 As==11
    81ec:	32 c2       	dint			
    81ee:	03 43       	nop			
    81f0:	82 93 18 14 	tst	&0x1418	
    81f4:	06 20       	jnz	$+14     	;abs 0x8202
    81f6:	82 4b 18 14 	mov	r11,	&0x1418	
    81fa:	0f 93       	tst	r15		
    81fc:	0c 24       	jz	$+26     	;abs 0x8216
    81fe:	32 d2       	eint			
    8200:	0a 3c       	jmp	$+22     	;abs 0x8216
    8202:	0f 93       	tst	r15		
    8204:	db 24       	jz	$+440    	;abs 0x83bc
    8206:	32 d2       	eint			
    8208:	d9 3c       	jmp	$+436    	;abs 0x83bc
    820a:	0e 4b       	mov	r11,	r14	
    820c:	4f 43       	clr.b	r15		
    820e:	b0 12 70 64 	call	#0x6470	
    8212:	0f 93       	tst	r15		
    8214:	d3 20       	jnz	$+424    	;abs 0x83bc
    8216:	f2 d2 8a 11 	bis.b	#8,	&0x118a	;r2 As==11
    821a:	d9 3c       	jmp	$+436    	;abs 0x83ce
    821c:	1e 42 72 11 	mov	&0x1172,r14	
    8220:	1f 42 74 11 	mov	&0x1174,r15	
    8224:	82 4e 9a 11 	mov	r14,	&0x119a	
    8228:	82 4f 9c 11 	mov	r15,	&0x119c	
    822c:	c2 43 fa 17 	mov.b	#0,	&0x17fa	;r3 As==00
    8230:	82 43 76 11 	mov	#0,	&0x1176	;r3 As==00
    8234:	82 43 78 11 	mov	#0,	&0x1178	;r3 As==00
    8238:	5d 42 70 16 	mov.b	&0x1670,r13	
    823c:	c2 4d cc 17 	mov.b	r13,	&0x17cc	
    8240:	7d 90 0f 00 	cmp.b	#15,	r13	;#0x000f
    8244:	12 2c       	jc	$+38     	;abs 0x826a
    8246:	b2 40 c0 03 ee 14 	mov	#960,	&0x14ee	;#0x03c0
    824c:	82 43 f0 14 	mov	#0,	&0x14f0	;r3 As==00
    8250:	4c 4d       	mov.b	r13,	r12	
    8252:	7c f0 1f 00 	and.b	#31,	r12	;#0x001f
    8256:	4c 93       	tst.b	r12		
    8258:	0c 24       	jz	$+26     	;abs 0x8272
    825a:	92 52 ee 14 ee 14 	rla	&0x14ee	
    8260:	92 62 f0 14 f0 14 	rlc	&0x14f0	
    8266:	7c 53       	add.b	#-1,	r12	;r3 As==11
    8268:	f6 3f       	jmp	$-18     	;abs 0x8256
    826a:	82 43 ee 14 	mov	#0,	&0x14ee	;r3 As==00
    826e:	82 43 f0 14 	mov	#0,	&0x14f0	;r3 As==00
    8272:	d2 42 d9 17 86 15 	mov.b	&0x17d9,&0x1586	
    8278:	0e 93       	tst	r14		
    827a:	02 20       	jnz	$+6      	;abs 0x8280
    827c:	0f 93       	tst	r15		
    827e:	0f 24       	jz	$+32     	;abs 0x829e
    8280:	1e 52 20 18 	add	&0x1820,r14	
    8284:	1f 62 22 18 	addc	&0x1822,r15	
    8288:	0b 4e       	mov	r14,	r11	
    828a:	0c 4f       	mov	r15,	r12	
    828c:	1b 82 ee 14 	sub	&0x14ee,r11	
    8290:	1c 72 f0 14 	subc	&0x14f0,r12	
    8294:	82 4b 12 15 	mov	r11,	&0x1512	
    8298:	82 4c 14 15 	mov	r12,	&0x1514	
    829c:	0b 3c       	jmp	$+24     	;abs 0x82b4
    829e:	3b f2       	and	#8,	r11	;r2 As==11
    82a0:	07 24       	jz	$+16     	;abs 0x82b0
    82a2:	92 42 ee 14 76 11 	mov	&0x14ee,&0x1176	
    82a8:	92 42 f0 14 78 11 	mov	&0x14f0,&0x1178	
    82ae:	02 3c       	jmp	$+6      	;abs 0x82b4
    82b0:	d2 43 fa 17 	mov.b	#1,	&0x17fa	;r3 As==01
    82b4:	92 42 ee 14 12 12 	mov	&0x14ee,&0x1212	
    82ba:	92 42 f0 14 14 12 	mov	&0x14f0,&0x1214	
    82c0:	d2 42 e3 13 22 15 	mov.b	&0x13e3,&0x1522	
    82c6:	c2 43 38 18 	mov.b	#0,	&0x1838	;r3 As==00
    82ca:	7d 90 10 00 	cmp.b	#16,	r13	;#0x0010
    82ce:	08 2c       	jc	$+18     	;abs 0x82e0
    82d0:	c2 4d e5 13 	mov.b	r13,	&0x13e5	
    82d4:	3e 40 e5 13 	mov	#5093,	r14	;#0x13e5
    82d8:	7f 40 47 00 	mov.b	#71,	r15	;#0x0047
    82dc:	b0 12 70 79 	call	#0x7970	
    82e0:	d2 42 86 15 ea 13 	mov.b	&0x1586,&0x13ea	
    82e6:	3e 40 ea 13 	mov	#5098,	r14	;#0x13ea
    82ea:	7f 40 54 00 	mov.b	#84,	r15	;#0x0054
    82ee:	b0 12 70 79 	call	#0x7970	
    82f2:	92 42 0c 15 f0 13 	mov	&0x150c,&0x13f0	
    82f8:	3e 40 f0 13 	mov	#5104,	r14	;#0x13f0
    82fc:	7f 40 50 00 	mov.b	#80,	r15	;#0x0050
    8300:	b0 12 70 79 	call	#0x7970	
    8304:	5f 42 44 11 	mov.b	&0x1144,r15	
    8308:	b0 12 6a 7f 	call	#0x7f6a	
    830c:	f2 90 0f 00 cc 17 	cmp.b	#15,	&0x17cc	;#0x000f
    8312:	09 2c       	jc	$+20     	;abs 0x8326
    8314:	d2 42 08 12 d8 13 	mov.b	&0x1208,&0x13d8	
    831a:	3e 40 d8 13 	mov	#5080,	r14	;#0x13d8
    831e:	7f 40 43 00 	mov.b	#67,	r15	;#0x0043
    8322:	b0 12 70 79 	call	#0x7970	
    8326:	d2 42 08 14 de 13 	mov.b	&0x1408,&0x13de	
    832c:	3e 40 de 13 	mov	#5086,	r14	;#0x13de
    8330:	7f 40 f0 ff 	mov.b	#-16,	r15	;#0xfff0
    8334:	b0 12 70 79 	call	#0x7970	
    8338:	1e 42 f2 13 	mov	&0x13f2,r14	
    833c:	5d 43       	mov.b	#1,	r13	;r3 As==01
    833e:	3e 90 fe ff 	cmp	#-2,	r14	;#0xfffe
    8342:	01 20       	jnz	$+4      	;abs 0x8346
    8344:	4d 43       	clr.b	r13		
    8346:	1f 42 46 15 	mov	&0x1546,r15	
    834a:	cf 43 01 00 	mov.b	#0,	1(r15)	;r3 As==00, 0x0001(r15)
    834e:	4d 93       	tst.b	r13		
    8350:	03 24       	jz	$+8      	;abs 0x8358
    8352:	7c 40 80 ff 	mov.b	#-128,	r12	;#0xff80
    8356:	02 3c       	jmp	$+6      	;abs 0x835c
    8358:	7c 40 c0 ff 	mov.b	#-64,	r12	;#0xffc0
    835c:	cf 4c 02 00 	mov.b	r12,	2(r15)	;0x0002(r15)
    8360:	5c 42 e6 13 	mov.b	&0x13e6,r12	
    8364:	5c 53       	inc.b	r12		
    8366:	cf 4c 03 00 	mov.b	r12,	3(r15)	;0x0003(r15)
    836a:	1c 42 0c 15 	mov	&0x150c,r12	
    836e:	cf 4c 04 00 	mov.b	r12,	4(r15)	;0x0004(r15)
    8372:	8c 10       	swpb	r12		
    8374:	cf 4c 05 00 	mov.b	r12,	5(r15)	;0x0005(r15)
    8378:	4d 93       	tst.b	r13		
    837a:	08 24       	jz	$+18     	;abs 0x838c
    837c:	cf 4e 06 00 	mov.b	r14,	6(r15)	;0x0006(r15)
    8380:	8e 10       	swpb	r14		
    8382:	cf 4e 07 00 	mov.b	r14,	7(r15)	;0x0007(r15)
    8386:	7f 40 07 00 	mov.b	#7,	r15	;#0x0007
    838a:	06 3c       	jmp	$+14     	;abs 0x8398
    838c:	3f 50 06 00 	add	#6,	r15	;#0x0006
    8390:	b0 12 ee 45 	call	#0x45ee	
    8394:	7f 40 0d 00 	mov.b	#13,	r15	;#0x000d
    8398:	c2 4f 4c 15 	mov.b	r15,	&0x154c	
    839c:	f2 d0 0f 00 1a 14 	bis.b	#15,	&0x141a	;#0x000f
    83a2:	b0 12 68 58 	call	#0x5868	
    83a6:	f2 90 0f 00 cc 17 	cmp.b	#15,	&0x17cc	;#0x000f
    83ac:	03 2c       	jc	$+8      	;abs 0x83b4
    83ae:	e2 42 8a 11 	mov.b	#4,	&0x118a	;r2 As==10
    83b2:	0d 3c       	jmp	$+28     	;abs 0x83ce
    83b4:	c2 43 8a 11 	mov.b	#0,	&0x118a	;r3 As==00
    83b8:	0f 43       	clr	r15		
    83ba:	07 3c       	jmp	$+16     	;abs 0x83ca
    83bc:	c2 43 8a 11 	mov.b	#0,	&0x118a	;r3 As==00
    83c0:	0f 4b       	mov	r11,	r15	
    83c2:	b0 12 50 5f 	call	#0x5f50	
    83c6:	3f 40 f1 00 	mov	#241,	r15	;#0x00f1
    83ca:	b0 12 5a 77 	call	#0x775a	
    83ce:	31 50 10 00 	add	#16,	r1	;#0x0010
    83d2:	34 41       	pop	r4		
    83d4:	3b 41       	pop	r11		
    83d6:	30 41       	ret			

000083d8 <BeaconTransmitP__RadioToken__granted>:
    83d8:	5e 42 8a 11 	mov.b	&0x118a,r14	
    83dc:	4f 4e       	mov.b	r14,	r15	
    83de:	3f b2       	bit	#8,	r15	;r2 As==11
    83e0:	05 24       	jz	$+12     	;abs 0x83ec
    83e2:	7f 40 12 00 	mov.b	#18,	r15	;#0x0012
    83e6:	b0 12 fa 4a 	call	#0x4afa	
    83ea:	30 41       	ret			
    83ec:	1f f3       	and	#1,	r15	;r3 As==01
    83ee:	06 24       	jz	$+14     	;abs 0x83fc
    83f0:	7e f0 fe ff 	and.b	#-2,	r14	;#0xfffe
    83f4:	c2 4e 8a 11 	mov.b	r14,	&0x118a	
    83f8:	b0 12 ea 80 	call	#0x80ea	
    83fc:	b0 12 36 6d 	call	#0x6d36	
    8400:	30 41       	ret			

00008402 <DispatchQueueP__1__FrameTx__transmitDone>:
    8402:	0b 12       	push	r11		
    8404:	0a 12       	push	r10		
    8406:	09 12       	push	r9		
    8408:	31 50 f0 ff 	add	#-16,	r1	;#0xfff0
    840c:	0b 4e       	mov	r14,	r11	
    840e:	0a 4d       	mov	r13,	r10	
    8410:	7f 90 09 00 	cmp.b	#9,	r15	;#0x0009
    8414:	76 2c       	jc	$+238    	;abs 0x8502
    8416:	4c 4f       	mov.b	r15,	r12	
    8418:	0c 5c       	rla	r12		
    841a:	10 4c 84 be 	br	-16764(r12)	;0xbe84(r12)
    841e:	0f 4e       	mov	r14,	r15	
    8420:	b0 12 50 5f 	call	#0x5f50	
    8424:	0a 93       	tst	r10		
    8426:	06 20       	jnz	$+14     	;abs 0x8434
    8428:	b0 12 ea 80 	call	#0x80ea	
    842c:	f2 f0 f7 ff 8a 11 	and.b	#-9,	&0x118a	;#0xfff7
    8432:	67 3c       	jmp	$+208    	;abs 0x8502
    8434:	c2 43 8a 11 	mov.b	#0,	&0x118a	;r3 As==00
    8438:	0f 4a       	mov	r10,	r15	
    843a:	b0 12 5a 77 	call	#0x775a	
    843e:	61 3c       	jmp	$+196    	;abs 0x8502
    8440:	0e 4d       	mov	r13,	r14	
    8442:	0f 4b       	mov	r11,	r15	
    8444:	b0 12 b0 7e 	call	#0x7eb0	
    8448:	5c 3c       	jmp	$+186    	;abs 0x8502
    844a:	0f 4e       	mov	r14,	r15	
    844c:	b0 12 26 5f 	call	#0x5f26	
    8450:	58 3c       	jmp	$+178    	;abs 0x8502
    8452:	3e 90 38 15 	cmp	#5432,	r14	;#0x1538
    8456:	03 20       	jnz	$+8      	;abs 0x845e
    8458:	ce 43 08 00 	mov.b	#0,	8(r14)	;r3 As==00, 0x0008(r14)
    845c:	52 3c       	jmp	$+166    	;abs 0x8502
    845e:	3f 40 7c 11 	mov	#4476,	r15	;#0x117c
    8462:	0c 43       	clr	r12		
    8464:	2b 9f       	cmp	@r15,	r11	
    8466:	04 20       	jnz	$+10     	;abs 0x8470
    8468:	0c 5c       	rla	r12		
    846a:	8c 43 7c 11 	mov	#0,	4476(r12);r3 As==00, 0x117c(r12)
    846e:	05 3c       	jmp	$+12     	;abs 0x847a
    8470:	1c 53       	inc	r12		
    8472:	2f 53       	incd	r15		
    8474:	3c 90 07 00 	cmp	#7,	r12	;#0x0007
    8478:	f5 23       	jnz	$-20     	;abs 0x8464
    847a:	b0 12 b6 68 	call	#0x68b6	
    847e:	82 43 18 18 	mov	#0,	&0x1818	;r3 As==00
    8482:	5f 42 56 11 	mov.b	&0x1156,r15	
    8486:	7f f0 7f 00 	and.b	#127,	r15	;#0x007f
    848a:	cb 4f 08 00 	mov.b	r15,	8(r11)	;0x0008(r11)
    848e:	f2 53 1a 15 	add.b	#-1,	&0x151a	;r3 As==11
    8492:	2e 4b       	mov	@r11,	r14	
    8494:	5e 4e 02 00 	mov.b	2(r14),	r14	;0x0002(r14)
    8498:	3e f0 0c 00 	and	#12,	r14	;#0x000c
    849c:	3e 92       	cmp	#8,	r14	;r2 As==11
    849e:	03 20       	jnz	$+8      	;abs 0x84a6
    84a0:	f2 53 b6 16 	add.b	#-1,	&0x16b6	;r3 As==11
    84a4:	05 3c       	jmp	$+12     	;abs 0x84b0
    84a6:	3e 90 0c 00 	cmp	#12,	r14	;#0x000c
    84aa:	02 20       	jnz	$+6      	;abs 0x84b0
    84ac:	f2 53 c2 17 	add.b	#-1,	&0x17c2	;r3 As==11
    84b0:	0d 4a       	mov	r10,	r13	
    84b2:	0e 4b       	mov	r11,	r14	
    84b4:	b0 12 ec 7e 	call	#0x7eec	
    84b8:	7f 40 06 00 	mov.b	#6,	r15	;#0x0006
    84bc:	b0 12 fa 4a 	call	#0x4afa	
    84c0:	20 3c       	jmp	$+66     	;abs 0x8502
    84c2:	29 4e       	mov	@r14,	r9	
    84c4:	c2 93 2c 11 	tst.b	&0x112c	
    84c8:	1c 24       	jz	$+58     	;abs 0x8502
    84ca:	0e 49       	mov	r9,	r14	
    84cc:	3e 50 06 00 	add	#6,	r14	;#0x0006
    84d0:	0f 41       	mov	r1,	r15	
    84d2:	3f 52       	add	#8,	r15	;r2 As==11
    84d4:	b0 12 aa 47 	call	#0x47aa	
    84d8:	0e 49       	mov	r9,	r14	
    84da:	3e 50 10 00 	add	#16,	r14	;#0x0010
    84de:	0f 41       	mov	r1,	r15	
    84e0:	b0 12 aa 47 	call	#0x47aa	
    84e4:	0a 93       	tst	r10		
    84e6:	03 20       	jnz	$+8      	;abs 0x84ee
    84e8:	b0 12 ee 54 	call	#0x54ee	
    84ec:	02 3c       	jmp	$+6      	;abs 0x84f2
    84ee:	b0 12 b0 69 	call	#0x69b0	
    84f2:	2f 4b       	mov	@r11,	r15	
    84f4:	b0 12 f6 5e 	call	#0x5ef6	
    84f8:	0f 4b       	mov	r11,	r15	
    84fa:	b0 12 26 5f 	call	#0x5f26	
    84fe:	c2 43 2c 11 	mov.b	#0,	&0x112c	;r3 As==00
    8502:	31 50 10 00 	add	#16,	r1	;#0x0010
    8506:	39 41       	pop	r9		
    8508:	3a 41       	pop	r10		
    850a:	3b 41       	pop	r11		
    850c:	30 41       	ret			

0000850e <DispatchSlottedCsmaP__1__FrameTx__transmitDone>:
    850e:	0b 12       	push	r11		
    8510:	0a 12       	push	r10		
    8512:	0a 4f       	mov	r15,	r10	
    8514:	0b 4e       	mov	r14,	r11	
    8516:	f2 f0 fe ff fb 17 	and.b	#-2,	&0x17fb	;#0xfffe
    851c:	c2 93 20 11 	tst.b	&0x1120	
    8520:	1c 24       	jz	$+58     	;abs 0x855a
    8522:	b0 12 ce 5f 	call	#0x5fce	
    8526:	0d 4b       	mov	r11,	r13	
    8528:	0e 4a       	mov	r10,	r14	
    852a:	5f 4a 08 00 	mov.b	8(r10),	r15	;0x0008(r10)
    852e:	b0 12 02 84 	call	#0x8402	
    8532:	3b 90 ea 00 	cmp	#234,	r11	;#0x00ea
    8536:	0d 20       	jnz	$+28     	;abs 0x8552
    8538:	09 3c       	jmp	$+20     	;abs 0x854c
    853a:	b0 12 ce 5f 	call	#0x5fce	
    853e:	3d 40 ea 00 	mov	#234,	r13	;#0x00ea
    8542:	0e 4f       	mov	r15,	r14	
    8544:	5f 4f 08 00 	mov.b	8(r15),	r15	;0x0008(r15)
    8548:	b0 12 02 84 	call	#0x8402	
    854c:	c2 93 20 11 	tst.b	&0x1120	
    8550:	f4 23       	jnz	$-22     	;abs 0x853a
    8552:	7f 40 13 00 	mov.b	#19,	r15	;#0x0013
    8556:	b0 12 fa 4a 	call	#0x4afa	
    855a:	3a 41       	pop	r10		
    855c:	3b 41       	pop	r11		
    855e:	30 41       	ret			

00008560 <VirtualizeTimerC__1__fireTimers>:
    8560:	0b 12       	push	r11		
    8562:	0a 12       	push	r10		
    8564:	09 12       	push	r9		
    8566:	08 12       	push	r8		
    8568:	07 12       	push	r7		
    856a:	06 12       	push	r6		
    856c:	05 12       	push	r5		
    856e:	04 12       	push	r4		
    8570:	31 82       	sub	#8,	r1	;r2 As==11
    8572:	04 4e       	mov	r14,	r4	
    8574:	05 4f       	mov	r15,	r5	
    8576:	0a 43       	clr	r10		
    8578:	0e 4a       	mov	r10,	r14	
    857a:	0e 5e       	rla	r14		
    857c:	0f 4e       	mov	r14,	r15	
    857e:	0f 5f       	rla	r15		
    8580:	0f 5f       	rla	r15		
    8582:	0f 5e       	add	r14,	r15	
    8584:	3f 50 50 15 	add	#5456,	r15	;#0x1550
    8588:	5e 4f 08 00 	mov.b	8(r15),	r14	;0x0008(r15)
    858c:	6e b3       	bit.b	#2,	r14	;r3 As==10
    858e:	02 20       	jnz	$+6      	;abs 0x8594
    8590:	30 40 fe 87 	br	#0x87fe	
    8594:	28 4f       	mov	@r15,	r8	
    8596:	19 4f 02 00 	mov	2(r15),	r9	;0x0002(r15)
    859a:	1c 4f 04 00 	mov	4(r15),	r12	;0x0004(r15)
    859e:	1d 4f 06 00 	mov	6(r15),	r13	;0x0006(r15)
    85a2:	06 44       	mov	r4,	r6	
    85a4:	07 45       	mov	r5,	r7	
    85a6:	06 88       	sub	r8,	r6	
    85a8:	07 79       	subc	r9,	r7	
    85aa:	07 9d       	cmp	r13,	r7	
    85ac:	02 2c       	jc	$+6      	;abs 0x85b2
    85ae:	30 40 fe 87 	br	#0x87fe	
    85b2:	04 20       	jnz	$+10     	;abs 0x85bc
    85b4:	06 9c       	cmp	r12,	r6	
    85b6:	02 2c       	jc	$+6      	;abs 0x85bc
    85b8:	30 40 fe 87 	br	#0x87fe	
    85bc:	5e f3       	and.b	#1,	r14	;r3 As==01
    85be:	04 24       	jz	$+10     	;abs 0x85c8
    85c0:	ff f0 fd ff 08 00 	and.b	#-3,	8(r15)	;#0xfffd, 0x0008(r15)
    85c6:	08 3c       	jmp	$+18     	;abs 0x85d8
    85c8:	06 4c       	mov	r12,	r6	
    85ca:	07 4d       	mov	r13,	r7	
    85cc:	06 58       	add	r8,	r6	
    85ce:	07 69       	addc	r9,	r7	
    85d0:	8f 46 00 00 	mov	r6,	0(r15)	;0x0000(r15)
    85d4:	8f 47 02 00 	mov	r7,	2(r15)	;0x0002(r15)
    85d8:	6a 93       	cmp.b	#2,	r10	;r3 As==10
    85da:	1b 24       	jz	$+56     	;abs 0x8612
    85dc:	7a 90 03 00 	cmp.b	#3,	r10	;#0x0003
    85e0:	03 2c       	jc	$+8      	;abs 0x85e8
    85e2:	5a 93       	cmp.b	#1,	r10	;r3 As==01
    85e4:	06 20       	jnz	$+14     	;abs 0x85f2
    85e6:	11 3c       	jmp	$+36     	;abs 0x860a
    85e8:	7a 90 03 00 	cmp.b	#3,	r10	;#0x0003
    85ec:	51 24       	jz	$+164    	;abs 0x8690
    85ee:	6a 92       	cmp.b	#4,	r10	;r2 As==10
    85f0:	db 24       	jz	$+440    	;abs 0x87a8
    85f2:	4f 43       	clr.b	r15		
    85f4:	b0 12 d2 51 	call	#0x51d2	
    85f8:	4f 93       	tst.b	r15		
    85fa:	02 20       	jnz	$+6      	;abs 0x8600
    85fc:	30 40 0a 88 	br	#0x880a	
    8600:	4f 43       	clr.b	r15		
    8602:	b0 12 30 68 	call	#0x6830	
    8606:	30 40 0a 88 	br	#0x880a	
    860a:	b0 12 68 58 	call	#0x5868	
    860e:	30 40 0a 88 	br	#0x880a	
    8612:	c2 93 ba 12 	tst.b	&0x12ba	
    8616:	02 20       	jnz	$+6      	;abs 0x861c
    8618:	30 40 0a 88 	br	#0x880a	
    861c:	5e 42 b1 12 	mov.b	&0x12b1,r14	
    8620:	6e 93       	cmp.b	#2,	r14	;r3 As==10
    8622:	08 20       	jnz	$+18     	;abs 0x8634
    8624:	1f 42 ee 13 	mov	&0x13ee,r15	
    8628:	c1 4f 00 00 	mov.b	r15,	0(r1)	;0x0000(r1)
    862c:	8f 10       	swpb	r15		
    862e:	c1 4f 01 00 	mov.b	r15,	1(r1)	;0x0001(r1)
    8632:	1c 3c       	jmp	$+58     	;abs 0x866c
    8634:	1c 42 fe 13 	mov	&0x13fe,r12	
    8638:	1d 42 00 14 	mov	&0x1400,r13	
    863c:	1f 42 02 14 	mov	&0x1402,r15	
    8640:	1a 42 04 14 	mov	&0x1404,r10	
    8644:	08 43       	clr	r8		
    8646:	46 4a       	mov.b	r10,	r6	
    8648:	05 41       	mov	r1,	r5	
    864a:	05 58       	add	r8,	r5	
    864c:	c5 4c 00 00 	mov.b	r12,	0(r5)	;0x0000(r5)
    8650:	8c 10       	swpb	r12		
    8652:	8d 10       	swpb	r13		
    8654:	4c ed       	xor.b	r13,	r12	
    8656:	0c ed       	xor	r13,	r12	
    8658:	8f 10       	swpb	r15		
    865a:	4d ef       	xor.b	r15,	r13	
    865c:	0d ef       	xor	r15,	r13	
    865e:	8a 10       	swpb	r10		
    8660:	4f ea       	xor.b	r10,	r15	
    8662:	0f ea       	xor	r10,	r15	
    8664:	0a 46       	mov	r6,	r10	
    8666:	18 53       	inc	r8		
    8668:	38 92       	cmp	#8,	r8	;r2 As==11
    866a:	ee 23       	jnz	$-34     	;abs 0x8648
    866c:	70 12 03 00 	push.b	#3		;#0x0003
    8670:	0c 41       	mov	r1,	r12	
    8672:	2c 53       	incd	r12		
    8674:	1d 42 f0 13 	mov	&0x13f0,r13	
    8678:	5f 43       	mov.b	#1,	r15	;r3 As==01
    867a:	b0 12 78 7b 	call	#0x7b78	
    867e:	21 53       	incd	r1		
    8680:	0f 93       	tst	r15		
    8682:	c3 24       	jz	$+392    	;abs 0x880a
    8684:	c2 93 ba 12 	tst.b	&0x12ba	
    8688:	c0 24       	jz	$+386    	;abs 0x880a
    868a:	b0 12 4c 7b 	call	#0x7b4c	
    868e:	bd 3c       	jmp	$+380    	;abs 0x880a
    8690:	7f 40 0f 00 	mov.b	#15,	r15	;#0x000f
    8694:	b0 12 3e 4d 	call	#0x4d3e	
    8698:	0a 4e       	mov	r14,	r10	
    869a:	0b 4f       	mov	r15,	r11	
    869c:	0a 5a       	rla	r10		
    869e:	0b 6b       	rlc	r11		
    86a0:	5e 42 e5 13 	mov.b	&0x13e5,r14	
    86a4:	7e 90 0f 00 	cmp.b	#15,	r14	;#0x000f
    86a8:	16 2c       	jc	$+46     	;abs 0x86d6
    86aa:	1f 43       	mov	#1,	r15	;r3 As==01
    86ac:	7e f0 0f 00 	and.b	#15,	r14	;#0x000f
    86b0:	4e 93       	tst.b	r14		
    86b2:	03 24       	jz	$+8      	;abs 0x86ba
    86b4:	0f 5f       	rla	r15		
    86b6:	7e 53       	add.b	#-1,	r14	;r3 As==11
    86b8:	fb 3f       	jmp	$-8      	;abs 0x86b0
    86ba:	02 12       	push	r2		
    86bc:	32 c2       	dint			
    86be:	03 43       	nop			
    86c0:	82 4f 30 01 	mov	r15,	&0x0130	
    86c4:	b2 40 c0 03 38 01 	mov	#960,	&0x0138	;#0x03c0
    86ca:	1e 42 3a 01 	mov	&0x013a,r14	
    86ce:	1f 42 3c 01 	mov	&0x013c,r15	
    86d2:	32 41       	pop	r2		
    86d4:	03 3c       	jmp	$+8      	;abs 0x86dc
    86d6:	3e 40 c0 03 	mov	#960,	r14	;#0x03c0
    86da:	0f 43       	clr	r15		
    86dc:	1c 42 f4 13 	mov	&0x13f4,r12	
    86e0:	0d 43       	clr	r13		
    86e2:	b0 12 00 bb 	call	#0xbb00	
    86e6:	06 4e       	mov	r14,	r6	
    86e8:	07 4f       	mov	r15,	r7	
    86ea:	35 40 7c 11 	mov	#4476,	r5	;#0x117c
    86ee:	08 43       	clr	r8		
    86f0:	09 43       	clr	r9		
    86f2:	2f 45       	mov	@r5,	r15	
    86f4:	0f 93       	tst	r15		
    86f6:	3f 24       	jz	$+128    	;abs 0x8776
    86f8:	1f 92 18 18 	cmp	&0x1818,r15	
    86fc:	3c 24       	jz	$+122    	;abs 0x8776
    86fe:	1f 4f 04 00 	mov	4(r15),	r15	;0x0004(r15)
    8702:	b0 12 b4 45 	call	#0x45b4	
    8706:	0c 46       	mov	r6,	r12	
    8708:	0d 47       	mov	r7,	r13	
    870a:	b0 12 58 4d 	call	#0x4d58	
    870e:	4f 93       	tst.b	r15		
    8710:	20 24       	jz	$+66     	;abs 0x8752
    8712:	2e 45       	mov	@r5,	r14	
    8714:	fe f0 7f 00 08 00 	and.b	#127,	8(r14)	;#0x007f, 0x0008(r14)
    871a:	85 43 00 00 	mov	#0,	0(r5)	;r3 As==00, 0x0000(r5)
    871e:	f2 53 1a 15 	add.b	#-1,	&0x151a	;r3 As==11
    8722:	2f 4e       	mov	@r14,	r15	
    8724:	5f 4f 02 00 	mov.b	2(r15),	r15	;0x0002(r15)
    8728:	3f f0 0c 00 	and	#12,	r15	;#0x000c
    872c:	3f 92       	cmp	#8,	r15	;r2 As==11
    872e:	03 20       	jnz	$+8      	;abs 0x8736
    8730:	f2 53 b6 16 	add.b	#-1,	&0x16b6	;r3 As==11
    8734:	05 3c       	jmp	$+12     	;abs 0x8740
    8736:	3f 90 0c 00 	cmp	#12,	r15	;#0x000c
    873a:	02 20       	jnz	$+6      	;abs 0x8740
    873c:	f2 53 c2 17 	add.b	#-1,	&0x17c2	;r3 As==11
    8740:	3d 40 f0 00 	mov	#240,	r13	;#0x00f0
    8744:	5f 4e 08 00 	mov.b	8(r14),	r15	;0x0008(r14)
    8748:	b0 12 ec 7e 	call	#0x7eec	
    874c:	b0 12 b6 68 	call	#0x68b6	
    8750:	12 3c       	jmp	$+38     	;abs 0x8776
    8752:	2f 45       	mov	@r5,	r15	
    8754:	1f 4f 04 00 	mov	4(r15),	r15	;0x0004(r15)
    8758:	b0 12 b4 45 	call	#0x45b4	
    875c:	0c 4a       	mov	r10,	r12	
    875e:	0d 4b       	mov	r11,	r13	
    8760:	0c 8e       	sub	r14,	r12	
    8762:	0d 7f       	subc	r15,	r13	
    8764:	0e 4c       	mov	r12,	r14	
    8766:	0f 4d       	mov	r13,	r15	
    8768:	09 9f       	cmp	r15,	r9	
    876a:	03 28       	jnc	$+8      	;abs 0x8772
    876c:	04 20       	jnz	$+10     	;abs 0x8776
    876e:	08 9c       	cmp	r12,	r8	
    8770:	02 2c       	jc	$+6      	;abs 0x8776
    8772:	08 4e       	mov	r14,	r8	
    8774:	09 4f       	mov	r15,	r9	
    8776:	25 53       	incd	r5		
    8778:	35 90 8a 11 	cmp	#4490,	r5	;#0x118a
    877c:	ba 23       	jnz	$-138    	;abs 0x86f2
    877e:	08 93       	tst	r8		
    8780:	02 20       	jnz	$+6      	;abs 0x8786
    8782:	09 93       	tst	r9		
    8784:	42 24       	jz	$+134    	;abs 0x880a
    8786:	07 99       	cmp	r9,	r7	
    8788:	04 28       	jnc	$+10     	;abs 0x8792
    878a:	09 97       	cmp	r7,	r9	
    878c:	04 28       	jnc	$+10     	;abs 0x8796
    878e:	06 98       	cmp	r8,	r6	
    8790:	02 2c       	jc	$+6      	;abs 0x8796
    8792:	08 46       	mov	r6,	r8	
    8794:	09 47       	mov	r7,	r9	
    8796:	0d 46       	mov	r6,	r13	
    8798:	0e 47       	mov	r7,	r14	
    879a:	0d 88       	sub	r8,	r13	
    879c:	0e 79       	subc	r9,	r14	
    879e:	7f 40 03 00 	mov.b	#3,	r15	;#0x0003
    87a2:	b0 12 9c 4d 	call	#0x4d9c	
    87a6:	31 3c       	jmp	$+100    	;abs 0x880a
    87a8:	c2 93 ac 12 	tst.b	&0x12ac	
    87ac:	1c 20       	jnz	$+58     	;abs 0x87e6
    87ae:	d2 43 ac 12 	mov.b	#1,	&0x12ac	;r3 As==01
    87b2:	1e 42 b6 17 	mov	&0x17b6,r14	
    87b6:	1f 42 b8 17 	mov	&0x17b8,r15	
    87ba:	1e 52 0a 14 	add	&0x140a,r14	
    87be:	1f 62 0c 14 	addc	&0x140c,r15	
    87c2:	92 42 24 14 78 15 	mov	&0x1424,&0x1578	
    87c8:	92 42 26 14 7a 15 	mov	&0x1426,&0x157a	
    87ce:	82 4e 7c 15 	mov	r14,	&0x157c	
    87d2:	82 4f 7e 15 	mov	r15,	&0x157e	
    87d6:	f2 d0 03 00 80 15 	bis.b	#3,	&0x1580	;#0x0003
    87dc:	7f 40 26 00 	mov.b	#38,	r15	;#0x0026
    87e0:	b0 12 fa 4a 	call	#0x4afa	
    87e4:	07 3c       	jmp	$+16     	;abs 0x87f4
    87e6:	c2 43 ac 12 	mov.b	#0,	&0x12ac	;r3 As==00
    87ea:	c2 93 51 11 	tst.b	&0x1151	
    87ee:	02 24       	jz	$+6      	;abs 0x87f4
    87f0:	c2 43 51 11 	mov.b	#0,	&0x1151	;r3 As==00
    87f4:	b0 12 f0 73 	call	#0x73f0	
    87f8:	b0 12 4a 70 	call	#0x704a	
    87fc:	06 3c       	jmp	$+14     	;abs 0x880a
    87fe:	1a 53       	inc	r10		
    8800:	3a 90 05 00 	cmp	#5,	r10	;#0x0005
    8804:	02 24       	jz	$+6      	;abs 0x880a
    8806:	30 40 78 85 	br	#0x8578	
    880a:	7f 40 26 00 	mov.b	#38,	r15	;#0x0026
    880e:	b0 12 fa 4a 	call	#0x4afa	
    8812:	31 52       	add	#8,	r1	;r2 As==11
    8814:	34 41       	pop	r4		
    8816:	35 41       	pop	r5		
    8818:	36 41       	pop	r6		
    881a:	37 41       	pop	r7		
    881c:	38 41       	pop	r8		
    881e:	39 41       	pop	r9		
    8820:	3a 41       	pop	r10		
    8822:	3b 41       	pop	r11		
    8824:	30 41       	ret			

00008826 <Alarm32khzTo62500hzTransformC__Alarm__fired>:
    8826:	7f 90 10 00 	cmp.b	#16,	r15	;#0x0010
    882a:	5a 2c       	jc	$+182    	;abs 0x88e0
    882c:	4f 4f       	mov.b	r15,	r15	
    882e:	0f 5f       	rla	r15		
    8830:	10 4f 96 be 	br	-16746(r15)	;0xbe96(r15)
    8834:	92 93 16 11 	cmp	#1,	&0x1116	;r3 As==01
    8838:	53 20       	jnz	$+168    	;abs 0x88e0
    883a:	a2 43 16 11 	mov	#2,	&0x1116	;r3 As==10
    883e:	b0 12 66 5c 	call	#0x5c66	
    8842:	b0 12 7a 5c 	call	#0x5c7a	
    8846:	a2 93 16 11 	cmp	#2,	&0x1116	;r3 As==10
    884a:	4a 20       	jnz	$+150    	;abs 0x88e0
    884c:	b2 40 03 00 16 11 	mov	#3,	&0x1116	;#0x0003
    8852:	b0 12 74 46 	call	#0x4674	
    8856:	b0 12 7a 46 	call	#0x467a	
    885a:	3e 40 18 00 	mov	#24,	r14	;#0x0018
    885e:	7f 40 1d 00 	mov.b	#29,	r15	;#0x001d
    8862:	b0 12 3a 5d 	call	#0x5d3a	
    8866:	f2 f0 ef ff 25 00 	and.b	#-17,	&0x0025	;#0xffef
    886c:	f2 f0 ef ff 23 00 	and.b	#-17,	&0x0023	;#0xffef
    8872:	f2 f0 ef ff 24 00 	and.b	#-17,	&0x0024	;#0xffef
    8878:	f2 d0 10 00 25 00 	bis.b	#16,	&0x0025	;#0x0010
    887e:	5f 43       	mov.b	#1,	r15	;r3 As==01
    8880:	b0 12 e4 46 	call	#0x46e4	
    8884:	3e 40 7f 02 	mov	#639,	r14	;#0x027f
    8888:	7f 40 1c 00 	mov.b	#28,	r15	;#0x001c
    888c:	b0 12 3a 5d 	call	#0x5d3a	
    8890:	b0 12 5e 5d 	call	#0x5d5e	
    8894:	b0 12 7e 5d 	call	#0x5d7e	
    8898:	3e 40 56 2a 	mov	#10838,	r14	;#0x2a56
    889c:	7f 40 17 00 	mov.b	#23,	r15	;#0x0017
    88a0:	b0 12 3a 5d 	call	#0x5d3a	
    88a4:	b0 12 74 46 	call	#0x4674	
    88a8:	30 41       	ret			
    88aa:	b0 12 50 6b 	call	#0x6b50	
    88ae:	30 41       	ret			
    88b0:	b0 12 6a 6f 	call	#0x6f6a	
    88b4:	30 41       	ret			
    88b6:	b0 12 f0 73 	call	#0x73f0	
    88ba:	30 41       	ret			
    88bc:	b0 12 76 77 	call	#0x7776	
    88c0:	30 41       	ret			
    88c2:	b0 12 4a 70 	call	#0x704a	
    88c6:	30 41       	ret			
    88c8:	7f 40 18 00 	mov.b	#24,	r15	;#0x0018
    88cc:	02 3c       	jmp	$+6      	;abs 0x88d2
    88ce:	7f 40 1a 00 	mov.b	#26,	r15	;#0x001a
    88d2:	b0 12 fa 4a 	call	#0x4afa	
    88d6:	30 41       	ret			
    88d8:	7f 40 25 00 	mov.b	#37,	r15	;#0x0025
    88dc:	b0 12 fa 4a 	call	#0x4afa	
    88e0:	30 41       	ret			

000088e2 <CC2420TKN154P__SlottedCsmaCa__transmitDone.isra.214>:
    88e2:	0b 12       	push	r11		
    88e4:	0a 12       	push	r10		
    88e6:	09 12       	push	r9		
    88e8:	21 83       	decd	r1		
    88ea:	0b 4f       	mov	r15,	r11	
    88ec:	49 4e       	mov.b	r14,	r9	
    88ee:	0a 4d       	mov	r13,	r10	
    88f0:	81 4c 00 00 	mov	r12,	0(r1)	;0x0000(r1)
    88f4:	b0 12 32 4c 	call	#0x4c32	
    88f8:	2c 41       	mov	@r1,	r12	
    88fa:	7f 90 05 00 	cmp.b	#5,	r15	;#0x0005
    88fe:	04 24       	jz	$+10     	;abs 0x8908
    8900:	7f 90 09 00 	cmp.b	#9,	r15	;#0x0009
    8904:	c1 20       	jnz	$+388    	;abs 0x8a88
    8906:	5d 3c       	jmp	$+188    	;abs 0x89c2
    8908:	c2 43 6a 16 	mov.b	#0,	&0x166a	;r3 As==00
    890c:	3c 90 0c 00 	cmp	#12,	r12	;#0x000c
    8910:	2f 2c       	jc	$+96     	;abs 0x8970
    8912:	0c 5c       	rla	r12		
    8914:	10 4c b6 be 	br	-16714(r12)	;0xbeb6(r12)
    8918:	82 43 4e 11 	mov	#0,	&0x114e	;r3 As==00
    891c:	29 3c       	jmp	$+84     	;abs 0x8970
    891e:	b2 40 e1 00 4e 11 	mov	#225,	&0x114e	;#0x00e1
    8924:	25 3c       	jmp	$+76     	;abs 0x8970
    8926:	5f 42 5e 17 	mov.b	&0x175e,r15	
    892a:	4f 93       	tst.b	r15		
    892c:	10 24       	jz	$+34     	;abs 0x894e
    892e:	c2 43 07 12 	mov.b	#0,	&0x1207	;r3 As==00
    8932:	d2 42 bf 11 06 12 	mov.b	&0x11bf,&0x1206	
    8938:	d2 42 10 14 05 12 	mov.b	&0x1410,&0x1205	
    893e:	d2 42 53 17 04 12 	mov.b	&0x1753,&0x1204	
    8944:	7f 53       	add.b	#-1,	r15	;r3 As==11
    8946:	c2 4f 5e 17 	mov.b	r15,	&0x175e	
    894a:	4a 43       	clr.b	r10		
    894c:	12 3c       	jmp	$+38     	;abs 0x8972
    894e:	b2 40 e9 00 4e 11 	mov	#233,	&0x114e	;#0x00e9
    8954:	0d 3c       	jmp	$+28     	;abs 0x8970
    8956:	d2 43 6a 16 	mov.b	#1,	&0x166a	;r3 As==01
    895a:	82 4a b2 16 	mov	r10,	&0x16b2	
    895e:	c2 43 44 14 	mov.b	#0,	&0x1444	;r3 As==00
    8962:	7f 40 07 00 	mov.b	#7,	r15	;#0x0007
    8966:	b0 12 14 52 	call	#0x5214	
    896a:	4f 93       	tst.b	r15		
    896c:	8d 20       	jnz	$+284    	;abs 0x8a88
    896e:	26 3c       	jmp	$+78     	;abs 0x89bc
    8970:	5a 43       	mov.b	#1,	r10	;r3 As==01
    8972:	1b 92 b4 12 	cmp	&0x12b4,r11	
    8976:	15 20       	jnz	$+44     	;abs 0x89a2
    8978:	b0 12 f4 46 	call	#0x46f4	
    897c:	4a 93       	tst.b	r10		
    897e:	03 24       	jz	$+8      	;abs 0x8986
    8980:	1f 42 4e 11 	mov	&0x114e,r15	
    8984:	02 3c       	jmp	$+6      	;abs 0x898a
    8986:	3f 40 e1 00 	mov	#225,	r15	;#0x00e1
    898a:	92 42 b4 12 7a 11 	mov	&0x12b4,&0x117a	
    8990:	82 4f 56 17 	mov	r15,	&0x1756	
    8994:	7f 40 1b 00 	mov.b	#27,	r15	;#0x001b
    8998:	b0 12 fa 4a 	call	#0x4afa	
    899c:	82 43 b4 12 	mov	#0,	&0x12b4	;r3 As==00
    89a0:	0b 3c       	jmp	$+24     	;abs 0x89b8
    89a2:	4a 93       	tst.b	r10		
    89a4:	09 24       	jz	$+20     	;abs 0x89b8
    89a6:	92 42 1a 18 54 17 	mov	&0x181a,&0x1754	
    89ac:	82 43 1a 18 	mov	#0,	&0x181a	;r3 As==00
    89b0:	7f 40 14 00 	mov.b	#20,	r15	;#0x0014
    89b4:	b0 12 fa 4a 	call	#0x4afa	
    89b8:	c2 43 44 14 	mov.b	#0,	&0x1444	;r3 As==00
    89bc:	b0 12 4a 70 	call	#0x704a	
    89c0:	63 3c       	jmp	$+200    	;abs 0x8a88
    89c2:	c2 43 02 12 	mov.b	#0,	&0x1202	;r3 As==00
    89c6:	3c 90 0c 00 	cmp	#12,	r12	;#0x000c
    89ca:	51 2c       	jc	$+164    	;abs 0x8a6e
    89cc:	0c 5c       	rla	r12		
    89ce:	10 4c ce be 	br	-16690(r12)	;0xbece(r12)
    89d2:	82 43 16 18 	mov	#0,	&0x1816	;r3 As==00
    89d6:	1f 4b 02 00 	mov	2(r11),	r15	;0x0002(r11)
    89da:	ef 92 00 00 	cmp.b	#4,	0(r15)	;r2 As==10, 0x0000(r15)
    89de:	47 20       	jnz	$+144    	;abs 0x8a6e
    89e0:	2f 4b       	mov	@r11,	r15	
    89e2:	5f 4f 01 00 	mov.b	1(r15),	r15	;0x0001(r15)
    89e6:	3f f0 07 00 	and	#7,	r15	;#0x0007
    89ea:	3f 90 03 00 	cmp	#3,	r15	;#0x0003
    89ee:	3f 20       	jnz	$+128    	;abs 0x8a6e
    89f0:	b2 40 eb 00 16 18 	mov	#235,	&0x1816	;#0x00eb
    89f6:	49 93       	tst.b	r9		
    89f8:	3a 24       	jz	$+118    	;abs 0x8a6e
    89fa:	d2 43 30 11 	mov.b	#1,	&0x1130	;r3 As==01
    89fe:	92 42 f8 14 08 15 	mov	&0x14f8,&0x1508	
    8a04:	82 43 f8 14 	mov	#0,	&0x14f8	;r3 As==00
    8a08:	b0 12 32 4c 	call	#0x4c32	
    8a0c:	7f 90 09 00 	cmp.b	#9,	r15	;#0x0009
    8a10:	3b 20       	jnz	$+120    	;abs 0x8a88
    8a12:	0c 43       	clr	r12		
    8a14:	0d 43       	clr	r13		
    8a16:	0e 43       	clr	r14		
    8a18:	0f 43       	clr	r15		
    8a1a:	b0 12 cc 6e 	call	#0x6ecc	
    8a1e:	34 3c       	jmp	$+106    	;abs 0x8a88
    8a20:	b2 40 e1 00 16 18 	mov	#225,	&0x1816	;#0x00e1
    8a26:	23 3c       	jmp	$+72     	;abs 0x8a6e
    8a28:	5f 42 2c 18 	mov.b	&0x182c,r15	
    8a2c:	4f 93       	tst.b	r15		
    8a2e:	0f 24       	jz	$+32     	;abs 0x8a4e
    8a30:	c2 43 eb 14 	mov.b	#0,	&0x14eb	;r3 As==00
    8a34:	d2 42 ff 17 ea 14 	mov.b	&0x17ff,&0x14ea	
    8a3a:	d2 42 85 15 e9 14 	mov.b	&0x1585,&0x14e9	
    8a40:	d2 42 29 14 e8 14 	mov.b	&0x1429,&0x14e8	
    8a46:	7f 53       	add.b	#-1,	r15	;r3 As==11
    8a48:	c2 4f 2c 18 	mov.b	r15,	&0x182c	
    8a4c:	19 3c       	jmp	$+52     	;abs 0x8a80
    8a4e:	b2 40 e9 00 16 18 	mov	#233,	&0x1816	;#0x00e9
    8a54:	0c 3c       	jmp	$+26     	;abs 0x8a6e
    8a56:	d2 43 02 12 	mov.b	#1,	&0x1202	;r3 As==01
    8a5a:	82 4a ba 11 	mov	r10,	&0x11ba	
    8a5e:	c2 43 2b 18 	mov.b	#0,	&0x182b	;r3 As==00
    8a62:	6f 42       	mov.b	#4,	r15	;r2 As==10
    8a64:	b0 12 14 52 	call	#0x5214	
    8a68:	4f 93       	tst.b	r15		
    8a6a:	0e 20       	jnz	$+30     	;abs 0x8a88
    8a6c:	0b 3c       	jmp	$+24     	;abs 0x8a84
    8a6e:	92 42 f8 14 08 15 	mov	&0x14f8,&0x1508	
    8a74:	82 43 f8 14 	mov	#0,	&0x14f8	;r3 As==00
    8a78:	7f 40 0d 00 	mov.b	#13,	r15	;#0x000d
    8a7c:	b0 12 fa 4a 	call	#0x4afa	
    8a80:	c2 43 2b 18 	mov.b	#0,	&0x182b	;r3 As==00
    8a84:	b0 12 f0 73 	call	#0x73f0	
    8a88:	21 53       	incd	r1		
    8a8a:	39 41       	pop	r9		
    8a8c:	3a 41       	pop	r10		
    8a8e:	3b 41       	pop	r11		
    8a90:	30 41       	ret			

00008a92 <CC2420TKN154P__nextIterationSlottedCsma>:
    8a92:	0b 12       	push	r11		
    8a94:	0a 12       	push	r10		
    8a96:	09 12       	push	r9		
    8a98:	08 12       	push	r8		
    8a9a:	07 12       	push	r7		
    8a9c:	c2 93 26 18 	tst.b	&0x1826	
    8aa0:	05 24       	jz	$+12     	;abs 0x8aac
    8aa2:	1a 42 be 17 	mov	&0x17be,r10	
    8aa6:	c2 43 26 18 	mov.b	#0,	&0x1826	;r3 As==00
    8aaa:	16 3c       	jmp	$+46     	;abs 0x8ad8
    8aac:	1f 42 c2 11 	mov	&0x11c2,r15	
    8ab0:	6a 4f       	mov.b	@r15,	r10	
    8ab2:	b0 12 d8 53 	call	#0x53d8	
    8ab6:	3f 43       	mov	#-1,	r15	;r3 As==11
    8ab8:	4d 4a       	mov.b	r10,	r13	
    8aba:	7d f0 0f 00 	and.b	#15,	r13	;#0x000f
    8abe:	4d 93       	tst.b	r13		
    8ac0:	03 24       	jz	$+8      	;abs 0x8ac8
    8ac2:	0f 5f       	rla	r15		
    8ac4:	7d 53       	add.b	#-1,	r13	;r3 As==11
    8ac6:	fb 3f       	jmp	$-8      	;abs 0x8abe
    8ac8:	0e cf       	bic	r15,	r14	
    8aca:	0e 5e       	rla	r14		
    8acc:	0e 5e       	rla	r14		
    8ace:	0f 4e       	mov	r14,	r15	
    8ad0:	0f 5f       	rla	r15		
    8ad2:	0f 5f       	rla	r15		
    8ad4:	0a 4e       	mov	r14,	r10	
    8ad6:	0a 5f       	add	r15,	r10	
    8ad8:	5f 43       	mov.b	#1,	r15	;r3 As==01
    8ada:	b0 12 3e 4d 	call	#0x4d3e	
    8ade:	0e 5e       	rla	r14		
    8ae0:	0f 6f       	rlc	r15		
    8ae2:	0c 4e       	mov	r14,	r12	
    8ae4:	0d 4f       	mov	r15,	r13	
    8ae6:	1c 82 bc 12 	sub	&0x12bc,r12	
    8aea:	1d 72 be 12 	subc	&0x12be,r13	
    8aee:	0e 4a       	mov	r10,	r14	
    8af0:	0f 43       	clr	r15		
    8af2:	0c 5e       	add	r14,	r12	
    8af4:	0d 6f       	addc	r15,	r13	
    8af6:	1a 42 8c 11 	mov	&0x118c,r10	
    8afa:	1b 42 8e 11 	mov	&0x118e,r11	
    8afe:	0b 9d       	cmp	r13,	r11	
    8b00:	04 28       	jnc	$+10     	;abs 0x8b0a
    8b02:	0d 9b       	cmp	r11,	r13	
    8b04:	07 28       	jnc	$+16     	;abs 0x8b14
    8b06:	0a 9c       	cmp	r12,	r10	
    8b08:	05 2c       	jc	$+12     	;abs 0x8b14
    8b0a:	17 42 b4 16 	mov	&0x16b4,r7	
    8b0e:	07 93       	tst	r7		
    8b10:	0a 20       	jnz	$+22     	;abs 0x8b26
    8b12:	2b 3c       	jmp	$+88     	;abs 0x8b6a
    8b14:	b2 40 0e 00 18 11 	mov	#14,	&0x1118	;#0x000e
    8b1a:	c2 93 0e 11 	tst.b	&0x110e	
    8b1e:	25 20       	jnz	$+76     	;abs 0x8b6a
    8b20:	b0 12 b8 67 	call	#0x67b8	
    8b24:	22 3c       	jmp	$+70     	;abs 0x8b6a
    8b26:	0e 4c       	mov	r12,	r14	
    8b28:	0f 4d       	mov	r13,	r15	
    8b2a:	0e 8a       	sub	r10,	r14	
    8b2c:	0f 7b       	subc	r11,	r15	
    8b2e:	0a 4e       	mov	r14,	r10	
    8b30:	0b 4f       	mov	r15,	r11	
    8b32:	c2 43 c4 11 	mov.b	#0,	&0x11c4	;r3 As==00
    8b36:	b0 12 04 4c 	call	#0x4c04	
    8b3a:	b0 12 34 62 	call	#0x6234	
    8b3e:	a2 42 18 11 	mov	#4,	&0x1118	;r2 As==10
    8b42:	08 4a       	mov	r10,	r8	
    8b44:	09 4b       	mov	r11,	r9	
    8b46:	38 50 14 00 	add	#20,	r8	;#0x0014
    8b4a:	09 63       	adc	r9		
    8b4c:	3c 40 14 00 	mov	#20,	r12	;#0x0014
    8b50:	0d 43       	clr	r13		
    8b52:	0e 4a       	mov	r10,	r14	
    8b54:	0f 4b       	mov	r11,	r15	
    8b56:	b0 12 6a bc 	call	#0xbc6a	
    8b5a:	3c 40 07 00 	mov	#7,	r12	;#0x0007
    8b5e:	0d 48       	mov	r8,	r13	
    8b60:	0d 8e       	sub	r14,	r13	
    8b62:	4e 43       	clr.b	r14		
    8b64:	0f 47       	mov	r7,	r15	
    8b66:	b0 12 e2 88 	call	#0x88e2	
    8b6a:	37 41       	pop	r7		
    8b6c:	38 41       	pop	r8		
    8b6e:	39 41       	pop	r9		
    8b70:	3a 41       	pop	r10		
    8b72:	3b 41       	pop	r11		
    8b74:	30 41       	ret			

00008b76 <CC2420TKN154P__sendDoneSpiReserved>:
    8b76:	0b 12       	push	r11		
    8b78:	0a 12       	push	r10		
    8b7a:	1a 42 18 11 	mov	&0x1118,r10	
    8b7e:	1b 42 b4 16 	mov	&0x16b4,r11	
    8b82:	b0 12 5c 4b 	call	#0x4b5c	
    8b86:	b0 12 9c 4b 	call	#0x4b9c	
    8b8a:	c2 43 c4 11 	mov.b	#0,	&0x11c4	;r3 As==00
    8b8e:	b0 12 04 4c 	call	#0x4c04	
    8b92:	b0 12 34 62 	call	#0x6234	
    8b96:	a2 42 18 11 	mov	#4,	&0x1118	;r2 As==10
    8b9a:	3a 90 0f 00 	cmp	#15,	r10	;#0x000f
    8b9e:	ac 20       	jnz	$+346    	;abs 0x8cf8
    8ba0:	b0 12 32 4c 	call	#0x4c32	
    8ba4:	4f 93       	tst.b	r15		
    8ba6:	04 24       	jz	$+10     	;abs 0x8bb0
    8ba8:	7f 90 03 00 	cmp.b	#3,	r15	;#0x0003
    8bac:	b4 20       	jnz	$+362    	;abs 0x8d16
    8bae:	0b 3c       	jmp	$+24     	;abs 0x8bc6
    8bb0:	b0 12 32 4c 	call	#0x4c32	
    8bb4:	4f 93       	tst.b	r15		
    8bb6:	af 20       	jnz	$+352    	;abs 0x8d16
    8bb8:	0c 43       	clr	r12		
    8bba:	0d 43       	clr	r13		
    8bbc:	0e 43       	clr	r14		
    8bbe:	0f 43       	clr	r15		
    8bc0:	b0 12 cc 6e 	call	#0x6ecc	
    8bc4:	a8 3c       	jmp	$+338    	;abs 0x8d16
    8bc6:	1f 4b 04 00 	mov	4(r11),	r15	;0x0004(r11)
    8bca:	b0 12 b4 45 	call	#0x45b4	
    8bce:	3e 93       	cmp	#-1,	r14	;r3 As==11
    8bd0:	02 20       	jnz	$+6      	;abs 0x8bd6
    8bd2:	3f 93       	cmp	#-1,	r15	;r3 As==11
    8bd4:	15 24       	jz	$+44     	;abs 0x8c00
    8bd6:	82 4e 12 15 	mov	r14,	&0x1512	
    8bda:	82 4f 14 15 	mov	r15,	&0x1514	
    8bde:	92 42 ee 14 12 12 	mov	&0x14ee,&0x1212	
    8be4:	92 42 f0 14 14 12 	mov	&0x14f0,&0x1214	
    8bea:	1e 4b 02 00 	mov	2(r11),	r14	;0x0002(r11)
    8bee:	5d 4e 02 00 	mov.b	2(r14),	r13	;0x0002(r14)
    8bf2:	7d f0 07 00 	and.b	#7,	r13	;#0x0007
    8bf6:	c2 4d 17 12 	mov.b	r13,	&0x1217	
    8bfa:	11 20       	jnz	$+36     	;abs 0x8c1e
    8bfc:	5f 43       	mov.b	#1,	r15	;r3 As==01
    8bfe:	13 3c       	jmp	$+40     	;abs 0x8c26
    8c00:	92 52 ee 14 12 12 	add	&0x14ee,&0x1212	
    8c06:	92 62 f0 14 14 12 	addc	&0x14f0,&0x1214	
    8c0c:	7f 40 03 00 	mov.b	#3,	r15	;#0x0003
    8c10:	b0 12 22 76 	call	#0x7622	
    8c14:	7f 40 03 00 	mov.b	#3,	r15	;#0x0003
    8c18:	b0 12 80 52 	call	#0x5280	
    8c1c:	7c 3c       	jmp	$+250    	;abs 0x8d16
    8c1e:	4f 4d       	mov.b	r13,	r15	
    8c20:	4f 5f       	rla.b	r15		
    8c22:	4f 5d       	add.b	r13,	r15	
    8c24:	6f 53       	incd.b	r15		
    8c26:	5d 4e 01 00 	mov.b	1(r14),	r13	;0x0001(r14)
    8c2a:	7d f0 0f 00 	and.b	#15,	r13	;#0x000f
    8c2e:	5d 53       	inc.b	r13		
    8c30:	c2 4d cc 11 	mov.b	r13,	&0x11cc	
    8c34:	6c 4e       	mov.b	@r14,	r12	
    8c36:	12 c3       	clrc			
    8c38:	4c 10       	rrc.b	r12		
    8c3a:	12 c3       	clrc			
    8c3c:	4c 10       	rrc.b	r12		
    8c3e:	12 c3       	clrc			
    8c40:	4c 10       	rrc.b	r12		
    8c42:	12 c3       	clrc			
    8c44:	4c 10       	rrc.b	r12		
    8c46:	b2 40 3c 00 bc 16 	mov	#60,	&0x16bc	;#0x003c
    8c4c:	82 43 be 16 	mov	#0,	&0x16be	;r3 As==00
    8c50:	7c f0 1f 00 	and.b	#31,	r12	;#0x001f
    8c54:	4c 93       	tst.b	r12		
    8c56:	08 24       	jz	$+18     	;abs 0x8c68
    8c58:	92 52 bc 16 bc 16 	rla	&0x16bc	
    8c5e:	92 62 be 16 be 16 	rlc	&0x16be	
    8c64:	7c 53       	add.b	#-1,	r12	;r3 As==11
    8c66:	f6 3f       	jmp	$-18     	;abs 0x8c54
    8c68:	2d 4b       	mov	@r11,	r13	
    8c6a:	5d 4d 01 00 	mov.b	1(r13),	r13	;0x0001(r13)
    8c6e:	3d f0 10 00 	and	#16,	r13	;#0x0010
    8c72:	03 24       	jz	$+8      	;abs 0x8c7a
    8c74:	d2 43 12 14 	mov.b	#1,	&0x1412	;r3 As==01
    8c78:	02 3c       	jmp	$+6      	;abs 0x8c7e
    8c7a:	c2 43 12 14 	mov.b	#0,	&0x1412	;r3 As==00
    8c7e:	0d 4f       	mov	r15,	r13	
    8c80:	3d f0 3f 00 	and	#63,	r13	;#0x003f
    8c84:	2e 53       	incd	r14		
    8c86:	3f 40 9e 17 	mov	#6046,	r15	;#0x179e
    8c8a:	b0 12 74 bc 	call	#0xbc74	
    8c8e:	1f 4b 02 00 	mov	2(r11),	r15	;0x0002(r11)
    8c92:	5f 4f 01 00 	mov.b	1(r15),	r15	;0x0001(r15)
    8c96:	3f f0 10 00 	and	#16,	r15	;#0x0010
    8c9a:	1e 24       	jz	$+62     	;abs 0x8cd8
    8c9c:	5e 4b 06 00 	mov.b	6(r11),	r14	;0x0006(r11)
    8ca0:	5f 4b 07 00 	mov.b	7(r11),	r15	;0x0007(r11)
    8ca4:	0e 5f       	add	r15,	r14	
    8ca6:	0f 4e       	mov	r14,	r15	
    8ca8:	3f 50 07 00 	add	#7,	r15	;#0x0007
    8cac:	0f 5f       	rla	r15		
    8cae:	3e 90 11 00 	cmp	#17,	r14	;#0x0011
    8cb2:	03 38       	jl	$+8      	;abs 0x8cba
    8cb4:	3f 50 28 00 	add	#40,	r15	;#0x0028
    8cb8:	02 3c       	jmp	$+6      	;abs 0x8cbe
    8cba:	3f 50 0c 00 	add	#12,	r15	;#0x000c
    8cbe:	82 4f ca 11 	mov	r15,	&0x11ca	
    8cc2:	5f 42 22 15 	mov.b	&0x1522,r15	
    8cc6:	0f 5f       	rla	r15		
    8cc8:	0f 5f       	rla	r15		
    8cca:	0e 4f       	mov	r15,	r14	
    8ccc:	0e 5e       	rla	r14		
    8cce:	0e 5e       	rla	r14		
    8cd0:	0f 5e       	add	r14,	r15	
    8cd2:	82 5f ca 11 	add	r15,	&0x11ca	
    8cd6:	02 3c       	jmp	$+6      	;abs 0x8cdc
    8cd8:	82 43 ca 11 	mov	#0,	&0x11ca	;r3 As==00
    8cdc:	7f 40 03 00 	mov.b	#3,	r15	;#0x0003
    8ce0:	b0 12 22 76 	call	#0x7622	
    8ce4:	6e 42       	mov.b	#4,	r14	;r2 As==10
    8ce6:	7f 40 03 00 	mov.b	#3,	r15	;#0x0003
    8cea:	b0 12 d2 71 	call	#0x71d2	
    8cee:	7f 40 10 00 	mov.b	#16,	r15	;#0x0010
    8cf2:	b0 12 fa 4a 	call	#0x4afa	
    8cf6:	0f 3c       	jmp	$+32     	;abs 0x8d16
    8cf8:	3a 90 10 00 	cmp	#16,	r10	;#0x0010
    8cfc:	0c 24       	jz	$+26     	;abs 0x8d16
    8cfe:	3a 90 11 00 	cmp	#17,	r10	;#0x0011
    8d02:	09 20       	jnz	$+20     	;abs 0x8d16
    8d04:	1c 42 9e 11 	mov	&0x119e,r12	
    8d08:	1d 42 be 17 	mov	&0x17be,r13	
    8d0c:	5e 42 90 11 	mov.b	&0x1190,r14	
    8d10:	0f 4b       	mov	r11,	r15	
    8d12:	b0 12 e2 88 	call	#0x88e2	
    8d16:	3a 41       	pop	r10		
    8d18:	3b 41       	pop	r11		
    8d1a:	30 41       	ret			

00008d1c <CC2420TransmitP__signalDone>:
    8d1c:	92 43 12 11 	mov	#1,	&0x1112	;r3 As==01
    8d20:	c2 4f 90 11 	mov.b	r15,	&0x1190	
    8d24:	82 4e 9e 11 	mov	r14,	&0x119e	
    8d28:	b0 12 44 4b 	call	#0x4b44	
    8d2c:	4f 93       	tst.b	r15		
    8d2e:	03 20       	jnz	$+8      	;abs 0x8d36
    8d30:	b0 12 dc 63 	call	#0x63dc	
    8d34:	02 3c       	jmp	$+6      	;abs 0x8d3a
    8d36:	b0 12 76 8b 	call	#0x8b76	
    8d3a:	b0 12 3a 61 	call	#0x613a	
    8d3e:	30 41       	ret			

00008d40 <Msp430TimerP__1__Event__fired>:
    8d40:	0b 12       	push	r11		
    8d42:	0a 12       	push	r10		
    8d44:	09 12       	push	r9		
    8d46:	08 12       	push	r8		
    8d48:	07 12       	push	r7		
    8d4a:	21 83       	decd	r1		
    8d4c:	7f 92       	cmp.b	#8,	r15	;r2 As==11
    8d4e:	02 28       	jnc	$+6      	;abs 0x8d54
    8d50:	30 40 0c 92 	br	#0x920c	
    8d54:	4f 4f       	mov.b	r15,	r15	
    8d56:	0f 5f       	rla	r15		
    8d58:	10 4f e6 be 	br	-16666(r15)	;0xbee6(r15)
    8d5c:	1f 42 82 01 	mov	&0x0182,r15	
    8d60:	8f 10       	swpb	r15		
    8d62:	5f f3       	and.b	#1,	r15	;r3 As==01
    8d64:	04 24       	jz	$+10     	;abs 0x8d6e
    8d66:	1f 42 92 01 	mov	&0x0192,r15	
    8d6a:	30 40 0c 92 	br	#0x920c	
    8d6e:	b2 f0 ef ff 82 01 	and	#-17,	&0x0182	;#0xffef
    8d74:	82 93 20 14 	tst	&0x1420	
    8d78:	08 20       	jnz	$+18     	;abs 0x8d8a
    8d7a:	82 93 22 14 	tst	&0x1422	
    8d7e:	05 20       	jnz	$+12     	;abs 0x8d8a
    8d80:	4f 43       	clr.b	r15		
    8d82:	b0 12 fa 4a 	call	#0x4afa	
    8d86:	30 40 0c 92 	br	#0x920c	
    8d8a:	b0 12 70 55 	call	#0x5570	
    8d8e:	30 40 0c 92 	br	#0x920c	
    8d92:	1f 42 84 01 	mov	&0x0184,r15	
    8d96:	8f 10       	swpb	r15		
    8d98:	5f f3       	and.b	#1,	r15	;r3 As==01
    8d9a:	02 20       	jnz	$+6      	;abs 0x8da0
    8d9c:	30 40 0c 92 	br	#0x920c	
    8da0:	18 42 94 01 	mov	&0x0194,r8	
    8da4:	b2 f0 fe ff 84 01 	and	#-2,	&0x0184	;#0xfffe
    8daa:	b2 f0 fd ff 84 01 	and	#-3,	&0x0184	;#0xfffd
    8db0:	b0 12 fa 4c 	call	#0x4cfa	
    8db4:	0e 5e       	rla	r14		
    8db6:	0f 6f       	rlc	r15		
    8db8:	0a 4e       	mov	r14,	r10	
    8dba:	0b 4f       	mov	r15,	r11	
    8dbc:	3a 50 f6 ff 	add	#-10,	r10	;#0xfff6
    8dc0:	3b 63       	addc	#-1,	r11	;r3 As==11
    8dc2:	09 48       	mov	r8,	r9	
    8dc4:	09 59       	rla	r9		
    8dc6:	0c 4e       	mov	r14,	r12	
    8dc8:	0c 89       	sub	r9,	r12	
    8dca:	0d 43       	clr	r13		
    8dcc:	0a 8c       	sub	r12,	r10	
    8dce:	0b 7d       	subc	r13,	r11	
    8dd0:	1f 42 12 11 	mov	&0x1112,r15	
    8dd4:	2f 92       	cmp	#4,	r15	;r2 As==10
    8dd6:	04 24       	jz	$+10     	;abs 0x8de0
    8dd8:	3f 90 05 00 	cmp	#5,	r15	;#0x0005
    8ddc:	4e 20       	jnz	$+158    	;abs 0x8e7a
    8dde:	26 3c       	jmp	$+78     	;abs 0x8e2c
    8de0:	b2 40 05 00 12 11 	mov	#5,	&0x1112	;#0x0005
    8de6:	d2 43 ae 12 	mov.b	#1,	&0x12ae	;r3 As==01
    8dea:	c2 43 10 11 	mov.b	#0,	&0x1110	;r3 As==00
    8dee:	6f 43       	mov.b	#2,	r15	;r3 As==10
    8df0:	b0 12 ae 46 	call	#0x46ae	
    8df4:	1f 42 10 15 	mov	&0x1510,r15	
    8df8:	1e 4f 04 00 	mov	4(r15),	r14	;0x0004(r15)
    8dfc:	ce 4a 03 00 	mov.b	r10,	3(r14)	;0x0003(r14)
    8e00:	0f 4a       	mov	r10,	r15	
    8e02:	0d 4b       	mov	r11,	r13	
    8e04:	8f 10       	swpb	r15		
    8e06:	8d 10       	swpb	r13		
    8e08:	4f ed       	xor.b	r13,	r15	
    8e0a:	0f ed       	xor	r13,	r15	
    8e0c:	ce 4f 02 00 	mov.b	r15,	2(r14)	;0x0002(r14)
    8e10:	0f 4b       	mov	r11,	r15	
    8e12:	ce 4b 01 00 	mov.b	r11,	1(r14)	;0x0001(r14)
    8e16:	8f 10       	swpb	r15		
    8e18:	ce 4f 00 00 	mov.b	r15,	0(r14)	;0x0000(r14)
    8e1c:	b2 f0 ef ff 86 01 	and	#-17,	&0x0186	;#0xffef
    8e22:	e2 b3 1c 00 	bit.b	#2,	&0x001c	;r3 As==10
    8e26:	02 24       	jz	$+6      	;abs 0x8e2c
    8e28:	30 40 0c 92 	br	#0x920c	
    8e2c:	c2 43 ae 12 	mov.b	#0,	&0x12ae	;r3 As==00
    8e30:	5f 43       	mov.b	#1,	r15	;r3 As==01
    8e32:	b0 12 ae 46 	call	#0x46ae	
    8e36:	1f 42 10 15 	mov	&0x1510,r15	
    8e3a:	2f 4f       	mov	@r15,	r15	
    8e3c:	5f 4f 01 00 	mov.b	1(r15),	r15	;0x0001(r15)
    8e40:	3f f0 20 00 	and	#32,	r15	;#0x0020
    8e44:	11 24       	jz	$+36     	;abs 0x8e68
    8e46:	b2 40 06 00 12 11 	mov	#6,	&0x1112	;#0x0006
    8e4c:	b0 12 fa 4c 	call	#0x4cfa	
    8e50:	82 4e 46 11 	mov	r14,	&0x1146	
    8e54:	82 4f 48 11 	mov	r15,	&0x1148	
    8e58:	b2 40 4b 00 0e 12 	mov	#75,	&0x120e	;#0x004b
    8e5e:	82 43 10 12 	mov	#0,	&0x1210	;r3 As==00
    8e62:	b0 12 24 50 	call	#0x5024	
    8e66:	04 3c       	jmp	$+10     	;abs 0x8e70
    8e68:	0e 43       	clr	r14		
    8e6a:	4f 43       	clr.b	r15		
    8e6c:	b0 12 1c 8d 	call	#0x8d1c	
    8e70:	e2 b3 1c 00 	bit.b	#2,	&0x001c	;r3 As==10
    8e74:	02 20       	jnz	$+6      	;abs 0x8e7a
    8e76:	30 40 0c 92 	br	#0x920c	
    8e7a:	c2 93 10 11 	tst.b	&0x1110	
    8e7e:	2c 20       	jnz	$+90     	;abs 0x8ed8
    8e80:	c2 93 ae 12 	tst.b	&0x12ae	
    8e84:	29 20       	jnz	$+84     	;abs 0x8ed8
    8e86:	d2 43 ae 12 	mov.b	#1,	&0x12ae	;r3 As==01
    8e8a:	6f 43       	mov.b	#2,	r15	;r3 As==10
    8e8c:	b0 12 ae 46 	call	#0x46ae	
    8e90:	5d 42 1c 00 	mov.b	&0x001c,r13	
    8e94:	82 93 f6 11 	tst	&0x11f6	
    8e98:	12 24       	jz	$+38     	;abs 0x8ebe
    8e9a:	5e 42 fc 17 	mov.b	&0x17fc,r14	
    8e9e:	7e 92       	cmp.b	#8,	r14	;r2 As==11
    8ea0:	0e 2c       	jc	$+30     	;abs 0x8ebe
    8ea2:	4f 4e       	mov.b	r14,	r15	
    8ea4:	5f 52 05 18 	add.b	&0x1805,r15	
    8ea8:	3f f0 07 00 	and	#7,	r15	;#0x0007
    8eac:	0f 5f       	rla	r15		
    8eae:	0f 5f       	rla	r15		
    8eb0:	8f 4a da 17 	mov	r10,	6106(r15);0x17da(r15)
    8eb4:	8f 4b dc 17 	mov	r11,	6108(r15);0x17dc(r15)
    8eb8:	5e 53       	inc.b	r14		
    8eba:	c2 4e fc 17 	mov.b	r14,	&0x17fc	
    8ebe:	d2 43 10 11 	mov.b	#1,	&0x1110	;r3 As==01
    8ec2:	82 48 48 14 	mov	r8,	&0x1448	
    8ec6:	e2 b3 1c 00 	bit.b	#2,	&0x001c	;r3 As==10
    8eca:	02 24       	jz	$+6      	;abs 0x8ed0
    8ecc:	30 40 0c 92 	br	#0x920c	
    8ed0:	4f 4d       	mov.b	r13,	r15	
    8ed2:	6f f3       	and.b	#2,	r15	;r3 As==10
    8ed4:	5b 43       	mov.b	#1,	r11	;r3 As==01
    8ed6:	01 20       	jnz	$+4      	;abs 0x8eda
    8ed8:	4b 43       	clr.b	r11		
    8eda:	d2 93 ae 12 	cmp.b	#1,	&0x12ae	;r3 As==01
    8ede:	02 24       	jz	$+6      	;abs 0x8ee4
    8ee0:	30 40 0c 92 	br	#0x920c	
    8ee4:	c2 43 ae 12 	mov.b	#0,	&0x12ae	;r3 As==00
    8ee8:	5f 43       	mov.b	#1,	r15	;r3 As==01
    8eea:	b0 12 ae 46 	call	#0x46ae	
    8eee:	c2 43 10 11 	mov.b	#0,	&0x1110	;r3 As==00
    8ef2:	4b 93       	tst.b	r11		
    8ef4:	02 24       	jz	$+6      	;abs 0x8efa
    8ef6:	30 40 0c 92 	br	#0x920c	
    8efa:	0f 48       	mov	r8,	r15	
    8efc:	1f 82 48 14 	sub	&0x1448,r15	
    8f00:	0f 5f       	rla	r15		
    8f02:	3f 90 14 00 	cmp	#20,	r15	;#0x0014
    8f06:	02 28       	jnc	$+6      	;abs 0x8f0c
    8f08:	30 40 0c 92 	br	#0x920c	
    8f0c:	82 93 f6 11 	tst	&0x11f6	
    8f10:	02 20       	jnz	$+6      	;abs 0x8f16
    8f12:	30 40 0c 92 	br	#0x920c	
    8f16:	5f 42 fc 17 	mov.b	&0x17fc,r15	
    8f1a:	4f 93       	tst.b	r15		
    8f1c:	02 20       	jnz	$+6      	;abs 0x8f22
    8f1e:	30 40 0c 92 	br	#0x920c	
    8f22:	7f 53       	add.b	#-1,	r15	;r3 As==11
    8f24:	c2 4f fc 17 	mov.b	r15,	&0x17fc	
    8f28:	30 40 0c 92 	br	#0x920c	
    8f2c:	1f 42 86 01 	mov	&0x0186,r15	
    8f30:	8f 10       	swpb	r15		
    8f32:	5f f3       	and.b	#1,	r15	;r3 As==01
    8f34:	04 24       	jz	$+10     	;abs 0x8f3e
    8f36:	1f 42 96 01 	mov	&0x0196,r15	
    8f3a:	30 40 0c 92 	br	#0x920c	
    8f3e:	b2 f0 ef ff 86 01 	and	#-17,	&0x0186	;#0xffef
    8f44:	82 93 0e 12 	tst	&0x120e	
    8f48:	24 20       	jnz	$+74     	;abs 0x8f92
    8f4a:	82 93 10 12 	tst	&0x1210	
    8f4e:	21 20       	jnz	$+68     	;abs 0x8f92
    8f50:	1f 42 12 11 	mov	&0x1112,r15	
    8f54:	2f 92       	cmp	#4,	r15	;r2 As==10
    8f56:	02 2c       	jc	$+6      	;abs 0x8f5c
    8f58:	30 40 0c 92 	br	#0x920c	
    8f5c:	3f 90 06 00 	cmp	#6,	r15	;#0x0006
    8f60:	04 28       	jnc	$+10     	;abs 0x8f6a
    8f62:	02 24       	jz	$+6      	;abs 0x8f68
    8f64:	30 40 0c 92 	br	#0x920c	
    8f68:	0d 3c       	jmp	$+28     	;abs 0x8f84
    8f6a:	b0 12 6e 46 	call	#0x466e	
    8f6e:	b0 12 66 46 	call	#0x4666	
    8f72:	7f 40 09 00 	mov.b	#9,	r15	;#0x0009
    8f76:	b0 12 e4 46 	call	#0x46e4	
    8f7a:	b0 12 6e 46 	call	#0x466e	
    8f7e:	3e 40 07 00 	mov	#7,	r14	;#0x0007
    8f82:	02 3c       	jmp	$+6      	;abs 0x8f88
    8f84:	3e 40 0b 00 	mov	#11,	r14	;#0x000b
    8f88:	4f 43       	clr.b	r15		
    8f8a:	b0 12 1c 8d 	call	#0x8d1c	
    8f8e:	30 40 0c 92 	br	#0x920c	
    8f92:	b0 12 24 50 	call	#0x5024	
    8f96:	30 40 0c 92 	br	#0x920c	
    8f9a:	1f 42 88 01 	mov	&0x0188,r15	
    8f9e:	8f 10       	swpb	r15		
    8fa0:	5f f3       	and.b	#1,	r15	;r3 As==01
    8fa2:	04 24       	jz	$+10     	;abs 0x8fac
    8fa4:	1f 42 98 01 	mov	&0x0198,r15	
    8fa8:	30 40 0c 92 	br	#0x920c	
    8fac:	b2 f0 ef ff 88 01 	and	#-17,	&0x0188	;#0xffef
    8fb2:	82 93 b6 12 	tst	&0x12b6	
    8fb6:	5d 20       	jnz	$+188    	;abs 0x9072
    8fb8:	82 93 b8 12 	tst	&0x12b8	
    8fbc:	5a 20       	jnz	$+182    	;abs 0x9072
    8fbe:	d2 43 50 17 	mov.b	#1,	&0x1750	;r3 As==01
    8fc2:	3b 40 40 17 	mov	#5952,	r11	;#0x1740
    8fc6:	3a 40 c0 16 	mov	#5824,	r10	;#0x16c0
    8fca:	47 43       	clr.b	r7		
    8fcc:	cb 93 00 00 	tst.b	0(r11)		;0x0000(r11)
    8fd0:	45 24       	jz	$+140    	;abs 0x905c
    8fd2:	28 4a       	mov	@r10,	r8	
    8fd4:	19 4a 02 00 	mov	2(r10),	r9	;0x0002(r10)
    8fd8:	b0 12 fa 4c 	call	#0x4cfa	
    8fdc:	0e 88       	sub	r8,	r14	
    8fde:	0f 79       	subc	r9,	r15	
    8fe0:	1f 9a 06 00 	cmp	6(r10),	r15	;0x0006(r10)
    8fe4:	3b 28       	jnc	$+120    	;abs 0x905c
    8fe6:	03 20       	jnz	$+8      	;abs 0x8fee
    8fe8:	1e 9a 04 00 	cmp	4(r10),	r14	;0x0004(r10)
    8fec:	37 28       	jnc	$+112    	;abs 0x905c
    8fee:	cb 43 00 00 	mov.b	#0,	0(r11)	;r3 As==00, 0x0000(r11)
    8ff2:	4f 47       	mov.b	r7,	r15	
    8ff4:	7f 53       	add.b	#-1,	r15	;r3 As==11
    8ff6:	7f 90 0f 00 	cmp.b	#15,	r15	;#0x000f
    8ffa:	04 2c       	jc	$+10     	;abs 0x9004
    8ffc:	4f 4f       	mov.b	r15,	r15	
    8ffe:	0f 5f       	rla	r15		
    9000:	10 4f f6 be 	br	-16650(r15)	;0xbef6(r15)
    9004:	4f 43       	clr.b	r15		
    9006:	28 3c       	jmp	$+82     	;abs 0x9058
    9008:	5f 43       	mov.b	#1,	r15	;r3 As==01
    900a:	26 3c       	jmp	$+78     	;abs 0x9058
    900c:	6f 43       	mov.b	#2,	r15	;r3 As==10
    900e:	24 3c       	jmp	$+74     	;abs 0x9058
    9010:	7f 40 03 00 	mov.b	#3,	r15	;#0x0003
    9014:	21 3c       	jmp	$+68     	;abs 0x9058
    9016:	6f 42       	mov.b	#4,	r15	;r2 As==10
    9018:	1f 3c       	jmp	$+64     	;abs 0x9058
    901a:	7f 40 05 00 	mov.b	#5,	r15	;#0x0005
    901e:	1c 3c       	jmp	$+58     	;abs 0x9058
    9020:	7f 40 06 00 	mov.b	#6,	r15	;#0x0006
    9024:	19 3c       	jmp	$+52     	;abs 0x9058
    9026:	7f 40 07 00 	mov.b	#7,	r15	;#0x0007
    902a:	16 3c       	jmp	$+46     	;abs 0x9058
    902c:	7f 42       	mov.b	#8,	r15	;r2 As==11
    902e:	14 3c       	jmp	$+42     	;abs 0x9058
    9030:	7f 40 09 00 	mov.b	#9,	r15	;#0x0009
    9034:	11 3c       	jmp	$+36     	;abs 0x9058
    9036:	7f 40 0a 00 	mov.b	#10,	r15	;#0x000a
    903a:	0e 3c       	jmp	$+30     	;abs 0x9058
    903c:	7f 40 0b 00 	mov.b	#11,	r15	;#0x000b
    9040:	0b 3c       	jmp	$+24     	;abs 0x9058
    9042:	7f 40 0c 00 	mov.b	#12,	r15	;#0x000c
    9046:	08 3c       	jmp	$+18     	;abs 0x9058
    9048:	7f 40 0d 00 	mov.b	#13,	r15	;#0x000d
    904c:	05 3c       	jmp	$+12     	;abs 0x9058
    904e:	7f 40 0e 00 	mov.b	#14,	r15	;#0x000e
    9052:	02 3c       	jmp	$+6      	;abs 0x9058
    9054:	7f 40 0f 00 	mov.b	#15,	r15	;#0x000f
    9058:	b0 12 26 88 	call	#0x8826	
    905c:	57 53       	inc.b	r7		
    905e:	1b 53       	inc	r11		
    9060:	3a 52       	add	#8,	r10	;r2 As==11
    9062:	77 90 10 00 	cmp.b	#16,	r7	;#0x0010
    9066:	b2 23       	jnz	$-154    	;abs 0x8fcc
    9068:	c2 43 50 17 	mov.b	#0,	&0x1750	;r3 As==00
    906c:	b0 12 84 65 	call	#0x6584	
    9070:	cd 3c       	jmp	$+412    	;abs 0x920c
    9072:	b0 12 f0 4d 	call	#0x4df0	
    9076:	ca 3c       	jmp	$+406    	;abs 0x920c
    9078:	1f 42 8a 01 	mov	&0x018a,r15	
    907c:	8f 10       	swpb	r15		
    907e:	5f f3       	and.b	#1,	r15	;r3 As==01
    9080:	03 24       	jz	$+8      	;abs 0x9088
    9082:	1f 42 9a 01 	mov	&0x019a,r15	
    9086:	c2 3c       	jmp	$+390    	;abs 0x920c
    9088:	b2 f0 ef ff 8a 01 	and	#-17,	&0x018a	;#0xffef
    908e:	82 93 1c 18 	tst	&0x181c	
    9092:	a3 20       	jnz	$+328    	;abs 0x91da
    9094:	82 93 1e 18 	tst	&0x181e	
    9098:	a0 20       	jnz	$+322    	;abs 0x91da
    909a:	5f 42 0e 11 	mov.b	&0x110e,r15	
    909e:	6f 93       	cmp.b	#2,	r15	;r3 As==10
    90a0:	0a 24       	jz	$+22     	;abs 0x90b6
    90a2:	7f 90 03 00 	cmp.b	#3,	r15	;#0x0003
    90a6:	10 24       	jz	$+34     	;abs 0x90c8
    90a8:	5f 93       	cmp.b	#1,	r15	;r3 As==01
    90aa:	b0 20       	jnz	$+354    	;abs 0x920c
    90ac:	c2 43 0e 11 	mov.b	#0,	&0x110e	;r3 As==00
    90b0:	b0 12 aa 77 	call	#0x77aa	
    90b4:	ab 3c       	jmp	$+344    	;abs 0x920c
    90b6:	c2 43 0e 11 	mov.b	#0,	&0x110e	;r3 As==00
    90ba:	b2 40 0f 00 18 11 	mov	#15,	&0x1118	;#0x000f
    90c0:	4f 43       	clr.b	r15		
    90c2:	b0 12 08 51 	call	#0x5108	
    90c6:	5e 3c       	jmp	$+190    	;abs 0x9184
    90c8:	c2 43 0e 11 	mov.b	#0,	&0x110e	;r3 As==00
    90cc:	1f 42 18 11 	mov	&0x1118,r15	
    90d0:	3f 90 0d 00 	cmp	#13,	r15	;#0x000d
    90d4:	48 24       	jz	$+146    	;abs 0x9166
    90d6:	3f 90 0e 00 	cmp	#14,	r15	;#0x000e
    90da:	98 20       	jnz	$+306    	;abs 0x920c
    90dc:	b0 12 8a 51 	call	#0x518a	
    90e0:	b2 40 11 00 18 11 	mov	#17,	&0x1118	;#0x0011
    90e6:	0f 41       	mov	r1,	r15	
    90e8:	b0 12 f0 5b 	call	#0x5bf0	
    90ec:	0f 93       	tst	r15		
    90ee:	fb 23       	jnz	$-8      	;abs 0x90e6
    90f0:	f2 b0 10 00 20 00 	bit.b	#16,	&0x0020	;#0x0010
    90f6:	05 24       	jz	$+12     	;abs 0x9102
    90f8:	5f 43       	mov.b	#1,	r15	;r3 As==01
    90fa:	b0 12 08 51 	call	#0x5108	
    90fe:	0f 93       	tst	r15		
    9100:	41 24       	jz	$+132    	;abs 0x9184
    9102:	b0 12 5c 4b 	call	#0x4b5c	
    9106:	b0 12 9c 4b 	call	#0x4b9c	
    910a:	b2 40 0b 00 18 11 	mov	#11,	&0x1118	;#0x000b
    9110:	1f 42 c2 11 	mov	&0x11c2,r15	
    9114:	5e 4f 03 00 	mov.b	3(r15),	r14	;0x0003(r15)
    9118:	5e 53       	inc.b	r14		
    911a:	cf 4e 03 00 	mov.b	r14,	3(r15)	;0x0003(r15)
    911e:	cf 9e 02 00 	cmp.b	r14,	2(r15)	;0x0002(r15)
    9122:	05 2c       	jc	$+12     	;abs 0x912e
    9124:	1b 42 b4 16 	mov	&0x16b4,r11	
    9128:	0b 93       	tst	r11		
    912a:	0e 20       	jnz	$+30     	;abs 0x9148
    912c:	6f 3c       	jmp	$+224    	;abs 0x920c
    912e:	6d 4f       	mov.b	@r15,	r13	
    9130:	5d 53       	inc.b	r13		
    9132:	cf 4d 00 00 	mov.b	r13,	0(r15)	;0x0000(r15)
    9136:	5e 4f 01 00 	mov.b	1(r15),	r14	;0x0001(r15)
    913a:	4e 9d       	cmp.b	r13,	r14	
    913c:	02 2c       	jc	$+6      	;abs 0x9142
    913e:	cf 4e 00 00 	mov.b	r14,	0(r15)	;0x0000(r15)
    9142:	b0 12 92 8a 	call	#0x8a92	
    9146:	62 3c       	jmp	$+198    	;abs 0x920c
    9148:	c2 43 c4 11 	mov.b	#0,	&0x11c4	;r3 As==00
    914c:	b0 12 04 4c 	call	#0x4c04	
    9150:	b0 12 34 62 	call	#0x6234	
    9154:	a2 42 18 11 	mov	#4,	&0x1118	;r2 As==10
    9158:	1c 43       	mov	#1,	r12	;r3 As==01
    915a:	0d 43       	clr	r13		
    915c:	4e 43       	clr.b	r14		
    915e:	0f 4b       	mov	r11,	r15	
    9160:	b0 12 e2 88 	call	#0x88e2	
    9164:	53 3c       	jmp	$+168    	;abs 0x920c
    9166:	b0 12 8a 51 	call	#0x518a	
    916a:	b2 40 10 00 18 11 	mov	#16,	&0x1118	;#0x0010
    9170:	0f 41       	mov	r1,	r15	
    9172:	b0 12 f0 5b 	call	#0x5bf0	
    9176:	0f 93       	tst	r15		
    9178:	fb 23       	jnz	$-8      	;abs 0x9170
    917a:	5f 43       	mov.b	#1,	r15	;r3 As==01
    917c:	b0 12 08 51 	call	#0x5108	
    9180:	0f 93       	tst	r15		
    9182:	03 20       	jnz	$+8      	;abs 0x918a
    9184:	b0 12 da 64 	call	#0x64da	
    9188:	41 3c       	jmp	$+132    	;abs 0x920c
    918a:	b0 12 5c 4b 	call	#0x4b5c	
    918e:	b0 12 9c 4b 	call	#0x4b9c	
    9192:	1f 42 c2 11 	mov	&0x11c2,r15	
    9196:	5e 4f 03 00 	mov.b	3(r15),	r14	;0x0003(r15)
    919a:	5e 53       	inc.b	r14		
    919c:	cf 4e 03 00 	mov.b	r14,	3(r15)	;0x0003(r15)
    91a0:	cf 9e 02 00 	cmp.b	r14,	2(r15)	;0x0002(r15)
    91a4:	04 2c       	jc	$+10     	;abs 0x91ae
    91a6:	82 93 b4 16 	tst	&0x16b4	
    91aa:	0e 20       	jnz	$+30     	;abs 0x91c8
    91ac:	2f 3c       	jmp	$+96     	;abs 0x920c
    91ae:	6d 4f       	mov.b	@r15,	r13	
    91b0:	5d 53       	inc.b	r13		
    91b2:	cf 4d 00 00 	mov.b	r13,	0(r15)	;0x0000(r15)
    91b6:	5e 4f 01 00 	mov.b	1(r15),	r14	;0x0001(r15)
    91ba:	4e 9d       	cmp.b	r13,	r14	
    91bc:	02 2c       	jc	$+6      	;abs 0x91c2
    91be:	cf 4e 00 00 	mov.b	r14,	0(r15)	;0x0000(r15)
    91c2:	b0 12 ee 67 	call	#0x67ee	
    91c6:	22 3c       	jmp	$+70     	;abs 0x920c
    91c8:	c2 43 c4 11 	mov.b	#0,	&0x11c4	;r3 As==00
    91cc:	b0 12 04 4c 	call	#0x4c04	
    91d0:	b0 12 34 62 	call	#0x6234	
    91d4:	a2 42 18 11 	mov	#4,	&0x1118	;r2 As==10
    91d8:	19 3c       	jmp	$+52     	;abs 0x920c
    91da:	b0 12 d4 4e 	call	#0x4ed4	
    91de:	16 3c       	jmp	$+46     	;abs 0x920c
    91e0:	1f 42 8c 01 	mov	&0x018c,r15	
    91e4:	8f 10       	swpb	r15		
    91e6:	5f f3       	and.b	#1,	r15	;r3 As==01
    91e8:	11 24       	jz	$+36     	;abs 0x920c
    91ea:	1f 42 9c 01 	mov	&0x019c,r15	
    91ee:	0e 3c       	jmp	$+30     	;abs 0x920c
    91f0:	1f 42 8e 01 	mov	&0x018e,r15	
    91f4:	8f 10       	swpb	r15		
    91f6:	5f f3       	and.b	#1,	r15	;r3 As==01
    91f8:	09 24       	jz	$+20     	;abs 0x920c
    91fa:	1f 42 9e 01 	mov	&0x019e,r15	
    91fe:	06 3c       	jmp	$+14     	;abs 0x920c
    9200:	92 53 1c 14 	inc	&0x141c	
    9204:	92 53 16 15 	inc	&0x1516	
    9208:	82 63 18 15 	adc	&0x1518	
    920c:	21 53       	incd	r1		
    920e:	37 41       	pop	r7		
    9210:	38 41       	pop	r8		
    9212:	39 41       	pop	r9		
    9214:	3a 41       	pop	r10		
    9216:	3b 41       	pop	r11		
    9218:	30 41       	ret			

0000921a <ScanP__nextIteration>:
    921a:	0b 12       	push	r11		
    921c:	0a 12       	push	r10		
    921e:	09 12       	push	r9		
    9220:	08 12       	push	r8		
    9222:	07 12       	push	r7		
    9224:	5b 42 a6 16 	mov.b	&0x16a6,r11	
    9228:	1e 43       	mov	#1,	r14	;r3 As==01
    922a:	0f 43       	clr	r15		
    922c:	4d 4b       	mov.b	r11,	r13	
    922e:	7d f0 1f 00 	and.b	#31,	r13	;#0x001f
    9232:	4d 93       	tst.b	r13		
    9234:	04 24       	jz	$+10     	;abs 0x923e
    9236:	0e 5e       	rla	r14		
    9238:	0f 6f       	rlc	r15		
    923a:	7d 53       	add.b	#-1,	r13	;r3 As==11
    923c:	fa 3f       	jmp	$-10     	;abs 0x9232
    923e:	5a 42 c1 17 	mov.b	&0x17c1,r10	
    9242:	4a 93       	tst.b	r10		
    9244:	1b 20       	jnz	$+56     	;abs 0x927c
    9246:	1c 42 ba 17 	mov	&0x17ba,r12	
    924a:	1d 42 bc 17 	mov	&0x17bc,r13	
    924e:	3c f0 00 f8 	and	#-2048,	r12	;#0xf800
    9252:	3d f0 ff 07 	and	#2047,	r13	;#0x07ff
    9256:	03 3c       	jmp	$+8      	;abs 0x925e
    9258:	0e 5e       	rla	r14		
    925a:	0f 6f       	rlc	r15		
    925c:	4b 47       	mov.b	r7,	r11	
    925e:	7b 90 1b 00 	cmp.b	#27,	r11	;#0x001b
    9262:	0a 2c       	jc	$+22     	;abs 0x9278
    9264:	47 4b       	mov.b	r11,	r7	
    9266:	57 53       	inc.b	r7		
    9268:	08 4e       	mov	r14,	r8	
    926a:	09 4f       	mov	r15,	r9	
    926c:	08 fc       	and	r12,	r8	
    926e:	09 fd       	and	r13,	r9	
    9270:	08 93       	tst	r8		
    9272:	02 20       	jnz	$+6      	;abs 0x9278
    9274:	09 93       	tst	r9		
    9276:	f0 27       	jz	$-30     	;abs 0x9258
    9278:	c2 4b a6 16 	mov.b	r11,	&0x16a6	
    927c:	5d 42 a6 16 	mov.b	&0x16a6,r13	
    9280:	7d 90 1b 00 	cmp.b	#27,	r13	;#0x001b
    9284:	4d 2c       	jc	$+156    	;abs 0x9320
    9286:	4a 93       	tst.b	r10		
    9288:	4d 20       	jnz	$+156    	;abs 0x9324
    928a:	4f 4d       	mov.b	r13,	r15	
    928c:	b0 12 6a 7f 	call	#0x7f6a	
    9290:	5f 42 fe 17 	mov.b	&0x17fe,r15	
    9294:	5f 93       	cmp.b	#1,	r15	;r3 As==01
    9296:	12 24       	jz	$+38     	;abs 0x92bc
    9298:	20 28       	jnc	$+66     	;abs 0x92da
    929a:	6f 93       	cmp.b	#2,	r15	;r3 As==10
    929c:	04 24       	jz	$+10     	;abs 0x92a6
    929e:	7f 90 03 00 	cmp.b	#3,	r15	;#0x0003
    92a2:	85 20       	jnz	$+268    	;abs 0x93ae
    92a4:	0b 3c       	jmp	$+24     	;abs 0x92bc
    92a6:	b0 12 32 4c 	call	#0x4c32	
    92aa:	4f 93       	tst.b	r15		
    92ac:	80 20       	jnz	$+258    	;abs 0x93ae
    92ae:	0c 43       	clr	r12		
    92b0:	0d 43       	clr	r13		
    92b2:	0e 43       	clr	r14		
    92b4:	0f 43       	clr	r15		
    92b6:	b0 12 cc 6e 	call	#0x6ecc	
    92ba:	79 3c       	jmp	$+244    	;abs 0x93ae
    92bc:	1b 42 34 11 	mov	&0x1134,r11	
    92c0:	b0 12 32 4c 	call	#0x4c32	
    92c4:	4f 93       	tst.b	r15		
    92c6:	73 20       	jnz	$+232    	;abs 0x93ae
    92c8:	03 12       	push	#0		;r3 As==00
    92ca:	03 12       	push	#0		;r3 As==00
    92cc:	0d 43       	clr	r13		
    92ce:	0e 43       	clr	r14		
    92d0:	0f 4b       	mov	r11,	r15	
    92d2:	b0 12 d4 6a 	call	#0x6ad4	
    92d6:	21 52       	add	#4,	r1	;r2 As==10
    92d8:	6a 3c       	jmp	$+214    	;abs 0x93ae
    92da:	1e 42 2c 14 	mov	&0x142c,r14	
    92de:	1f 42 2e 14 	mov	&0x142e,r15	
    92e2:	0d 42       	mov	r2,	r13	
    92e4:	3d f2       	and	#8,	r13	;r2 As==11
    92e6:	32 c2       	dint			
    92e8:	03 43       	nop			
    92ea:	1c 42 18 11 	mov	&0x1118,r12	
    92ee:	3c 90 03 00 	cmp	#3,	r12	;#0x0003
    92f2:	02 24       	jz	$+6      	;abs 0x92f8
    92f4:	2c 92       	cmp	#4,	r12	;r2 As==10
    92f6:	04 24       	jz	$+10     	;abs 0x9300
    92f8:	0d 93       	tst	r13		
    92fa:	59 24       	jz	$+180    	;abs 0x93ae
    92fc:	32 d2       	eint			
    92fe:	57 3c       	jmp	$+176    	;abs 0x93ae
    9300:	b2 40 03 00 18 11 	mov	#3,	&0x1118	;#0x0003
    9306:	0d 93       	tst	r13		
    9308:	01 24       	jz	$+4      	;abs 0x930c
    930a:	32 d2       	eint			
    930c:	82 4e c6 11 	mov	r14,	&0x11c6	
    9310:	82 4f c8 11 	mov	r15,	&0x11c8	
    9314:	f2 40 ad ff d4 13 	mov.b	#-83,	&0x13d4	;#0xffad
    931a:	b0 12 38 63 	call	#0x6338	
    931e:	47 3c       	jmp	$+144    	;abs 0x93ae
    9320:	4a 93       	tst.b	r10		
    9322:	20 24       	jz	$+66     	;abs 0x9364
    9324:	5d 42 fe 17 	mov.b	&0x17fe,r13	
    9328:	7d 53       	add.b	#-1,	r13	;r3 As==11
    932a:	6d 93       	cmp.b	#2,	r13	;r3 As==10
    932c:	03 2c       	jc	$+8      	;abs 0x9334
    932e:	12 c3       	clrc			
    9330:	0f 10       	rrc	r15		
    9332:	0e 10       	rrc	r14		
    9334:	1c 42 ba 17 	mov	&0x17ba,r12	
    9338:	1d 42 bc 17 	mov	&0x17bc,r13	
    933c:	02 3c       	jmp	$+6      	;abs 0x9342
    933e:	0e 5e       	rla	r14		
    9340:	0f 6f       	rlc	r15		
    9342:	0a 4e       	mov	r14,	r10	
    9344:	0b 4f       	mov	r15,	r11	
    9346:	0a f3       	and	#0,	r10	;r3 As==00
    9348:	3b f0 00 fc 	and	#-1024,	r11	;#0xfc00
    934c:	0a 93       	tst	r10		
    934e:	0a 20       	jnz	$+22     	;abs 0x9364
    9350:	0b 93       	tst	r11		
    9352:	08 20       	jnz	$+18     	;abs 0x9364
    9354:	0a 4e       	mov	r14,	r10	
    9356:	0b 4f       	mov	r15,	r11	
    9358:	0a fc       	and	r12,	r10	
    935a:	0b fd       	and	r13,	r11	
    935c:	0a 93       	tst	r10		
    935e:	ef 23       	jnz	$-32     	;abs 0x933e
    9360:	0b 93       	tst	r11		
    9362:	ed 23       	jnz	$-36     	;abs 0x933e
    9364:	5f 42 fe 17 	mov.b	&0x17fe,r15	
    9368:	7f 53       	add.b	#-1,	r15	;r3 As==11
    936a:	6f 93       	cmp.b	#2,	r15	;r3 As==10
    936c:	09 2c       	jc	$+20     	;abs 0x9380
    936e:	92 42 1c 15 f0 13 	mov	&0x151c,&0x13f0	
    9374:	3e 40 f0 13 	mov	#5104,	r14	;#0x13f0
    9378:	7f 40 50 00 	mov.b	#80,	r15	;#0x0050
    937c:	b0 12 70 79 	call	#0x7970	
    9380:	1f 42 34 11 	mov	&0x1134,r15	
    9384:	0f 93       	tst	r15		
    9386:	07 24       	jz	$+16     	;abs 0x9396
    9388:	2f 4f       	mov	@r15,	r15	
    938a:	b0 12 f6 5e 	call	#0x5ef6	
    938e:	1f 42 34 11 	mov	&0x1134,r15	
    9392:	b0 12 26 5f 	call	#0x5f26	
    9396:	82 43 34 11 	mov	#0,	&0x1134	;r3 As==00
    939a:	4f 43       	clr.b	r15		
    939c:	b0 12 d2 51 	call	#0x51d2	
    93a0:	4f 93       	tst.b	r15		
    93a2:	03 24       	jz	$+8      	;abs 0x93aa
    93a4:	4f 43       	clr.b	r15		
    93a6:	b0 12 80 52 	call	#0x5280	
    93aa:	c2 43 32 11 	mov.b	#0,	&0x1132	;r3 As==00
    93ae:	37 41       	pop	r7		
    93b0:	38 41       	pop	r8		
    93b2:	39 41       	pop	r9		
    93b4:	3a 41       	pop	r10		
    93b6:	3b 41       	pop	r11		
    93b8:	30 41       	ret			

000093ba <PibP__RadioControl__stopDone.isra.263>:
    93ba:	0b 12       	push	r11		
    93bc:	5f 43       	mov.b	#1,	r15	;r3 As==01
    93be:	b0 12 d2 51 	call	#0x51d2	
    93c2:	4f 93       	tst.b	r15		
    93c4:	02 20       	jnz	$+6      	;abs 0x93ca
    93c6:	30 40 40 96 	br	#0x9640	
    93ca:	3f 40 f1 00 	mov	#241,	r15	;#0x00f1
    93ce:	b0 12 5e 7e 	call	#0x7e5e	
    93d2:	7f 40 05 00 	mov.b	#5,	r15	;#0x0005
    93d6:	b0 12 d2 51 	call	#0x51d2	
    93da:	4f 93       	tst.b	r15		
    93dc:	2b 20       	jnz	$+88     	;abs 0x9434
    93de:	1f 42 1a 18 	mov	&0x181a,r15	
    93e2:	0f 93       	tst	r15		
    93e4:	04 24       	jz	$+10     	;abs 0x93ee
    93e6:	3e 40 f1 00 	mov	#241,	r14	;#0x00f1
    93ea:	b0 12 0e 85 	call	#0x850e	
    93ee:	1f 42 54 17 	mov	&0x1754,r15	
    93f2:	0f 93       	tst	r15		
    93f4:	04 24       	jz	$+10     	;abs 0x93fe
    93f6:	3e 40 f1 00 	mov	#241,	r14	;#0x00f1
    93fa:	b0 12 0e 85 	call	#0x850e	
    93fe:	1f 42 b4 12 	mov	&0x12b4,r15	
    9402:	0f 93       	tst	r15		
    9404:	09 24       	jz	$+20     	;abs 0x9418
    9406:	82 4f 7a 11 	mov	r15,	&0x117a	
    940a:	b2 40 f1 00 56 17 	mov	#241,	&0x1756	;#0x00f1
    9410:	7f 40 1b 00 	mov.b	#27,	r15	;#0x001b
    9414:	b0 12 fa 4a 	call	#0x4afa	
    9418:	82 43 b4 12 	mov	#0,	&0x12b4	;r3 As==00
    941c:	82 43 54 17 	mov	#0,	&0x1754	;r3 As==00
    9420:	82 43 1a 18 	mov	#0,	&0x181a	;r3 As==00
    9424:	92 42 f6 13 12 18 	mov	&0x13f6,&0x1812	
    942a:	92 42 f8 13 14 18 	mov	&0x13f8,&0x1814	
    9430:	b0 12 c8 53 	call	#0x53c8	
    9434:	e2 d3 b9 16 	bis.b	#2,	&0x16b9	;r3 As==10
    9438:	09 3c       	jmp	$+20     	;abs 0x944c
    943a:	b0 12 a4 5f 	call	#0x5fa4	
    943e:	3d 40 f1 00 	mov	#241,	r13	;#0x00f1
    9442:	0e 4f       	mov	r15,	r14	
    9444:	5f 4f 08 00 	mov.b	8(r15),	r15	;0x0008(r15)
    9448:	b0 12 34 7d 	call	#0x7d34	
    944c:	c2 93 26 11 	tst.b	&0x1126	
    9450:	f4 23       	jnz	$-22     	;abs 0x943a
    9452:	f2 f0 fd ff b9 16 	and.b	#-3,	&0x16b9	;#0xfffd
    9458:	e2 d3 fb 17 	bis.b	#2,	&0x17fb	;r3 As==10
    945c:	09 3c       	jmp	$+20     	;abs 0x9470
    945e:	b0 12 ce 5f 	call	#0x5fce	
    9462:	3d 40 f1 00 	mov	#241,	r13	;#0x00f1
    9466:	0e 4f       	mov	r15,	r14	
    9468:	5f 4f 08 00 	mov.b	8(r15),	r15	;0x0008(r15)
    946c:	b0 12 02 84 	call	#0x8402	
    9470:	c2 93 20 11 	tst.b	&0x1120	
    9474:	f4 23       	jnz	$-22     	;abs 0x945e
    9476:	f2 f0 fd ff fb 17 	and.b	#-3,	&0x17fb	;#0xfffd
    947c:	c2 93 32 11 	tst.b	&0x1132	
    9480:	04 24       	jz	$+10     	;abs 0x948a
    9482:	d2 43 c1 17 	mov.b	#1,	&0x17c1	;r3 As==01
    9486:	b0 12 1a 92 	call	#0x921a	
    948a:	b0 12 d8 53 	call	#0x53d8	
    948e:	c2 4e e6 13 	mov.b	r14,	&0x13e6	
    9492:	3e 40 e6 13 	mov	#5094,	r14	;#0x13e6
    9496:	7f 40 49 00 	mov.b	#73,	r15	;#0x0049
    949a:	b0 12 70 79 	call	#0x7970	
    949e:	b2 40 e6 15 46 15 	mov	#5606,	&0x1546	;#0x15e6
    94a4:	c2 43 4c 15 	mov.b	#0,	&0x154c	;r3 As==00
    94a8:	b2 40 c0 12 48 15 	mov	#4800,	&0x1548	;#0x12c0
    94ae:	c2 43 4d 15 	mov.b	#0,	&0x154d	;r3 As==00
    94b2:	b2 40 3c 11 4a 15 	mov	#4412,	&0x154a	;#0x113c
    94b8:	82 43 0a 12 	mov	#0,	&0x120a	;r3 As==00
    94bc:	c2 43 fa 14 	mov.b	#0,	&0x14fa	;r3 As==00
    94c0:	c2 43 38 18 	mov.b	#0,	&0x1838	;r3 As==00
    94c4:	c2 43 1a 14 	mov.b	#0,	&0x141a	;r3 As==00
    94c8:	c2 43 8a 11 	mov.b	#0,	&0x118a	;r3 As==00
    94cc:	c2 43 bc 11 	mov.b	#0,	&0x11bc	;r3 As==00
    94d0:	c2 43 52 17 	mov.b	#0,	&0x1752	;r3 As==00
    94d4:	c2 43 fb 14 	mov.b	#0,	&0x14fb	;r3 As==00
    94d8:	c2 43 9e 17 	mov.b	#0,	&0x179e	;r3 As==00
    94dc:	c2 43 cc 11 	mov.b	#0,	&0x11cc	;r3 As==00
    94e0:	c2 43 17 12 	mov.b	#0,	&0x1217	;r3 As==00
    94e4:	f2 40 0f 00 cc 17 	mov.b	#15,	&0x17cc	;#0x000f
    94ea:	f2 f0 fd ff 62 15 	and.b	#-3,	&0x1562	;#0xfffd
    94f0:	6f 43       	mov.b	#2,	r15	;r3 As==10
    94f2:	b0 12 44 53 	call	#0x5344	
    94f6:	5f 42 50 11 	mov.b	&0x1150,r15	
    94fa:	4e 4f       	mov.b	r15,	r14	
    94fc:	7e f0 0c 00 	and.b	#12,	r14	;#0x000c
    9500:	7e 92       	cmp.b	#8,	r14	;r2 As==11
    9502:	08 24       	jz	$+18     	;abs 0x9514
    9504:	3f b0 20 00 	bit	#32,	r15	;#0x0020
    9508:	09 24       	jz	$+20     	;abs 0x951c
    950a:	4f 93       	tst.b	r15		
    950c:	07 34       	jge	$+16     	;abs 0x951c
    950e:	c2 93 be 11 	tst.b	&0x11be	
    9512:	04 24       	jz	$+10     	;abs 0x951c
    9514:	3f 40 ea 00 	mov	#234,	r15	;#0x00ea
    9518:	b0 12 5e 7e 	call	#0x7e5e	
    951c:	5f 42 50 11 	mov.b	&0x1150,r15	
    9520:	3f f0 40 00 	and	#64,	r15	;#0x0040
    9524:	04 24       	jz	$+10     	;abs 0x952e
    9526:	3f 40 ea 00 	mov	#234,	r15	;#0x00ea
    952a:	b0 12 5e 7e 	call	#0x7e5e	
    952e:	f2 f0 1f 00 50 11 	and.b	#31,	&0x1150	;#0x001f
    9534:	4f 43       	clr.b	r15		
    9536:	b0 12 88 46 	call	#0x4688	
    953a:	f2 f0 fd ff 6c 15 	and.b	#-3,	&0x156c	;#0xfffd
    9540:	f2 43 28 18 	mov.b	#-1,	&0x1828	;r3 As==11
    9544:	c2 43 b1 12 	mov.b	#0,	&0x12b1	;r3 As==00
    9548:	c2 43 ba 12 	mov.b	#0,	&0x12ba	;r3 As==00
    954c:	f2 43 8a 16 	mov.b	#-1,	&0x168a	;r3 As==11
    9550:	f2 43 8e 16 	mov.b	#-1,	&0x168e	;r3 As==11
    9554:	f2 43 92 16 	mov.b	#-1,	&0x1692	;r3 As==11
    9558:	f2 43 96 16 	mov.b	#-1,	&0x1696	;r3 As==11
    955c:	f2 43 9a 16 	mov.b	#-1,	&0x169a	;r3 As==11
    9560:	f2 43 9e 16 	mov.b	#-1,	&0x169e	;r3 As==11
    9564:	f2 43 a2 16 	mov.b	#-1,	&0x16a2	;r3 As==11
    9568:	f2 43 00 12 	mov.b	#-1,	&0x1200	;r3 As==11
    956c:	c2 43 af 12 	mov.b	#0,	&0x12af	;r3 As==00
    9570:	c2 43 28 14 	mov.b	#0,	&0x1428	;r3 As==00
    9574:	82 43 82 15 	mov	#0,	&0x1582	;r3 As==00
    9578:	f2 f0 fd ff 76 15 	and.b	#-3,	&0x1576	;#0xfffd
    957e:	0b 43       	clr	r11		
    9580:	1e 4b 7c 11 	mov	4476(r11),r14	;0x117c(r11)
    9584:	0e 93       	tst	r14		
    9586:	06 24       	jz	$+14     	;abs 0x9594
    9588:	3d 40 f1 00 	mov	#241,	r13	;#0x00f1
    958c:	5f 4e 08 00 	mov.b	8(r14),	r15	;0x0008(r14)
    9590:	b0 12 ec 7e 	call	#0x7eec	
    9594:	2b 53       	incd	r11		
    9596:	3b 90 0e 00 	cmp	#14,	r11	;#0x000e
    959a:	f2 23       	jnz	$-26     	;abs 0x9580
    959c:	82 43 7c 11 	mov	#0,	&0x117c	;r3 As==00
    95a0:	82 43 7e 11 	mov	#0,	&0x117e	;r3 As==00
    95a4:	82 43 80 11 	mov	#0,	&0x1180	;r3 As==00
    95a8:	82 43 82 11 	mov	#0,	&0x1182	;r3 As==00
    95ac:	82 43 84 11 	mov	#0,	&0x1184	;r3 As==00
    95b0:	82 43 86 11 	mov	#0,	&0x1186	;r3 As==00
    95b4:	82 43 88 11 	mov	#0,	&0x1188	;r3 As==00
    95b8:	82 43 18 18 	mov	#0,	&0x1818	;r3 As==00
    95bc:	c2 43 1a 15 	mov.b	#0,	&0x151a	;r3 As==00
    95c0:	c2 43 b6 16 	mov.b	#0,	&0x16b6	;r3 As==00
    95c4:	c2 43 c2 17 	mov.b	#0,	&0x17c2	;r3 As==00
    95c8:	b2 40 58 11 38 15 	mov	#4440,	&0x1538	;#0x1158
    95ce:	b2 40 ce 17 3c 15 	mov	#6094,	&0x153c	;#0x17ce
    95d4:	b2 40 c2 17 3a 15 	mov	#6082,	&0x153a	;#0x17c2
    95da:	c2 43 3f 15 	mov.b	#0,	&0x153f	;r3 As==00
    95de:	c2 43 40 15 	mov.b	#0,	&0x1540	;r3 As==00
    95e2:	0a 3c       	jmp	$+22     	;abs 0x95f8
    95e4:	5f 42 1e 11 	mov.b	&0x111e,r15	
    95e8:	0f 5f       	rla	r15		
    95ea:	1b 4f de 14 	mov	5342(r15),r11	;0x14de(r15)
    95ee:	b0 12 f8 5f 	call	#0x5ff8	
    95f2:	0f 4b       	mov	r11,	r15	
    95f4:	b0 12 26 5f 	call	#0x5f26	
    95f8:	c2 93 1a 11 	tst.b	&0x111a	
    95fc:	f3 23       	jnz	$-24     	;abs 0x95e4
    95fe:	1f 42 18 14 	mov	&0x1418,r15	
    9602:	0f 93       	tst	r15		
    9604:	08 24       	jz	$+18     	;abs 0x9616
    9606:	b0 12 50 5f 	call	#0x5f50	
    960a:	c2 43 8a 11 	mov.b	#0,	&0x118a	;r3 As==00
    960e:	3f 40 f1 00 	mov	#241,	r15	;#0x00f1
    9612:	b0 12 5a 77 	call	#0x775a	
    9616:	82 43 7a 11 	mov	#0,	&0x117a	;r3 As==00
    961a:	82 43 54 11 	mov	#0,	&0x1154	;r3 As==00
    961e:	82 43 18 14 	mov	#0,	&0x1418	;r3 As==00
    9622:	c2 43 1b 15 	mov.b	#0,	&0x151b	;r3 As==00
    9626:	c2 93 51 11 	tst.b	&0x1151	
    962a:	02 24       	jz	$+6      	;abs 0x9630
    962c:	c2 43 51 11 	mov.b	#0,	&0x1151	;r3 As==00
    9630:	c2 43 ac 12 	mov.b	#0,	&0x12ac	;r3 As==00
    9634:	f2 f0 fd ff 80 15 	and.b	#-3,	&0x1580	;#0xfffd
    963a:	6f 42       	mov.b	#4,	r15	;r2 As==10
    963c:	b0 12 fa 4a 	call	#0x4afa	
    9640:	3b 41       	pop	r11		
    9642:	30 41       	ret			

00009644 <ScanP__continueScanRequest>:
    9644:	5e 42 e7 13 	mov.b	&0x13e7,r14	
    9648:	c2 93 32 11 	tst.b	&0x1132	
    964c:	04 20       	jnz	$+10     	;abs 0x9656
    964e:	4f 43       	clr.b	r15		
    9650:	b0 12 80 52 	call	#0x5280	
    9654:	30 41       	ret			
    9656:	5f 42 fe 17 	mov.b	&0x17fe,r15	
    965a:	6f 93       	cmp.b	#2,	r15	;r3 As==10
    965c:	30 24       	jz	$+98     	;abs 0x96be
    965e:	7f 90 03 00 	cmp.b	#3,	r15	;#0x0003
    9662:	36 24       	jz	$+110    	;abs 0x96d0
    9664:	5f 93       	cmp.b	#1,	r15	;r3 As==01
    9666:	7b 20       	jnz	$+248    	;abs 0x975e
    9668:	1f 42 34 11 	mov	&0x1134,r15	
    966c:	2d 4f       	mov	@r15,	r13	
    966e:	fd 40 03 00 01 00 	mov.b	#3,	1(r13)	;#0x0003, 0x0001(r13)
    9674:	2d 4f       	mov	@r15,	r13	
    9676:	fd 42 02 00 	mov.b	#8,	2(r13)	;r2 As==11, 0x0002(r13)
    967a:	2f 4f       	mov	@r15,	r15	
    967c:	cf 4e 03 00 	mov.b	r14,	3(r15)	;0x0003(r15)
    9680:	5e 53       	inc.b	r14		
    9682:	c2 4e e7 13 	mov.b	r14,	&0x13e7	
    9686:	3e 40 e7 13 	mov	#5095,	r14	;#0x13e7
    968a:	7f 40 4c 00 	mov.b	#76,	r15	;#0x004c
    968e:	b0 12 70 79 	call	#0x7970	
    9692:	1f 42 34 11 	mov	&0x1134,r15	
    9696:	2e 4f       	mov	@r15,	r14	
    9698:	fe 43 04 00 	mov.b	#-1,	4(r14)	;r3 As==11, 0x0004(r14)
    969c:	2e 4f       	mov	@r15,	r14	
    969e:	fe 43 05 00 	mov.b	#-1,	5(r14)	;r3 As==11, 0x0005(r14)
    96a2:	2e 4f       	mov	@r15,	r14	
    96a4:	fe 43 06 00 	mov.b	#-1,	6(r14)	;r3 As==11, 0x0006(r14)
    96a8:	2e 4f       	mov	@r15,	r14	
    96aa:	fe 43 07 00 	mov.b	#-1,	7(r14)	;r3 As==11, 0x0007(r14)
    96ae:	ff 40 07 00 06 00 	mov.b	#7,	6(r15)	;#0x0007, 0x0006(r15)
    96b4:	f2 40 07 00 04 18 	mov.b	#7,	&0x1804	;#0x0007
    96ba:	df 43 07 00 	mov.b	#1,	7(r15)	;r3 As==01, 0x0007(r15)
    96be:	b2 43 f0 13 	mov	#-1,	&0x13f0	;r3 As==11
    96c2:	3e 40 f0 13 	mov	#5104,	r14	;#0x13f0
    96c6:	7f 40 50 00 	mov.b	#80,	r15	;#0x0050
    96ca:	b0 12 70 79 	call	#0x7970	
    96ce:	47 3c       	jmp	$+144    	;abs 0x975e
    96d0:	5f 42 ed 13 	mov.b	&0x13ed,r15	
    96d4:	02 12       	push	r2		
    96d6:	32 c2       	dint			
    96d8:	03 43       	nop			
    96da:	82 4f 32 01 	mov	r15,	&0x0132	
    96de:	b2 40 c0 03 38 01 	mov	#960,	&0x0138	;#0x03c0
    96e4:	1f 42 3a 01 	mov	&0x013a,r15	
    96e8:	32 41       	pop	r2		
    96ea:	82 4f 2c 14 	mov	r15,	&0x142c	
    96ee:	8f 10       	swpb	r15		
    96f0:	8f 11       	sxt	r15		
    96f2:	8f 10       	swpb	r15		
    96f4:	8f 11       	sxt	r15		
    96f6:	82 4f 2e 14 	mov	r15,	&0x142e	
    96fa:	1f 42 34 11 	mov	&0x1134,r15	
    96fe:	2d 4f       	mov	@r15,	r13	
    9700:	fd 40 43 00 01 00 	mov.b	#67,	1(r13)	;#0x0043, 0x0001(r13)
    9706:	2d 4f       	mov	@r15,	r13	
    9708:	fd 40 c8 ff 02 00 	mov.b	#-56,	2(r13)	;#0xffc8, 0x0002(r13)
    970e:	2f 4f       	mov	@r15,	r15	
    9710:	cf 4e 03 00 	mov.b	r14,	3(r15)	;0x0003(r15)
    9714:	5e 53       	inc.b	r14		
    9716:	c2 4e e7 13 	mov.b	r14,	&0x13e7	
    971a:	3e 40 e7 13 	mov	#5095,	r14	;#0x13e7
    971e:	7f 40 4c 00 	mov.b	#76,	r15	;#0x004c
    9722:	b0 12 70 79 	call	#0x7970	
    9726:	1f 42 34 11 	mov	&0x1134,r15	
    972a:	2e 4f       	mov	@r15,	r14	
    972c:	fe 43 04 00 	mov.b	#-1,	4(r14)	;r3 As==11, 0x0004(r14)
    9730:	2e 4f       	mov	@r15,	r14	
    9732:	fe 43 05 00 	mov.b	#-1,	5(r14)	;r3 As==11, 0x0005(r14)
    9736:	2e 4f       	mov	@r15,	r14	
    9738:	fe 43 06 00 	mov.b	#-1,	6(r14)	;r3 As==11, 0x0006(r14)
    973c:	2e 4f       	mov	@r15,	r14	
    973e:	fe 43 07 00 	mov.b	#-1,	7(r14)	;r3 As==11, 0x0007(r14)
    9742:	2f 4f       	mov	@r15,	r15	
    9744:	3f 52       	add	#8,	r15	;r2 As==11
    9746:	b0 12 ee 45 	call	#0x45ee	
    974a:	1f 42 34 11 	mov	&0x1134,r15	
    974e:	ff 40 0f 00 06 00 	mov.b	#15,	6(r15)	;#0x000f, 0x0006(r15)
    9754:	f2 40 06 00 04 18 	mov.b	#6,	&0x1804	;#0x0006
    975a:	df 43 07 00 	mov.b	#1,	7(r15)	;r3 As==01, 0x0007(r15)
    975e:	b0 12 1a 92 	call	#0x921a	
    9762:	30 41       	ret			

00009764 <CC2420ReceiveP__beginReceive>:
    9764:	82 93 f6 11 	tst	&0x11f6	
    9768:	1d 24       	jz	$+60     	;abs 0x97a4
    976a:	c2 93 05 15 	tst.b	&0x1505	
    976e:	1a 20       	jnz	$+54     	;abs 0x97a4
    9770:	b2 40 03 00 f6 11 	mov	#3,	&0x11f6	;#0x0003
    9776:	d2 43 b2 12 	mov.b	#1,	&0x12b2	;r3 As==01
    977a:	0f 42       	mov	r2,	r15	
    977c:	32 c2       	dint			
    977e:	03 43       	nop			
    9780:	5e 42 04 11 	mov.b	&0x1104,r14	
    9784:	3f f2       	and	#8,	r15	;r2 As==11
    9786:	01 24       	jz	$+4      	;abs 0x978a
    9788:	32 d2       	eint			
    978a:	5e 93       	cmp.b	#1,	r14	;r3 As==01
    978c:	05 24       	jz	$+12     	;abs 0x9798
    978e:	5f 43       	mov.b	#1,	r15	;r3 As==01
    9790:	b0 12 3c 6a 	call	#0x6a3c	
    9794:	0f 93       	tst	r15		
    9796:	03 20       	jnz	$+8      	;abs 0x979e
    9798:	b0 12 48 60 	call	#0x6048	
    979c:	30 41       	ret			
    979e:	5f 43       	mov.b	#1,	r15	;r3 As==01
    97a0:	b0 12 8c 62 	call	#0x628c	
    97a4:	30 41       	ret			

000097a6 <CC2420ReceiveP__waitForNextPacket>:
    97a6:	0b 12       	push	r11		
    97a8:	0b 42       	mov	r2,	r11	
    97aa:	3b f2       	and	#8,	r11	;r2 As==11
    97ac:	32 c2       	dint			
    97ae:	03 43       	nop			
    97b0:	82 93 f6 11 	tst	&0x11f6	
    97b4:	1e 24       	jz	$+62     	;abs 0x97f2
    97b6:	c2 43 b2 12 	mov.b	#0,	&0x12b2	;r3 As==00
    97ba:	c2 93 05 15 	tst.b	&0x1505	
    97be:	03 24       	jz	$+8      	;abs 0x97c6
    97c0:	b0 12 c4 63 	call	#0x63c4	
    97c4:	19 3c       	jmp	$+52     	;abs 0x97f8
    97c6:	5f 42 0d 12 	mov.b	&0x120d,r15	
    97ca:	4f 93       	tst.b	r15		
    97cc:	03 24       	jz	$+8      	;abs 0x97d4
    97ce:	f2 b2 20 00 	bit.b	#8,	&0x0020	;r2 As==11
    97d2:	05 20       	jnz	$+12     	;abs 0x97de
    97d4:	d2 b3 20 00 	bit.b	#1,	&0x0020	;r3 As==01
    97d8:	08 20       	jnz	$+18     	;abs 0x97ea
    97da:	4f 93       	tst.b	r15		
    97dc:	03 24       	jz	$+8      	;abs 0x97e4
    97de:	7f 53       	add.b	#-1,	r15	;r3 As==11
    97e0:	c2 4f 0d 12 	mov.b	r15,	&0x120d	
    97e4:	b0 12 64 97 	call	#0x9764	
    97e8:	07 3c       	jmp	$+16     	;abs 0x97f8
    97ea:	a2 43 f6 11 	mov	#2,	&0x11f6	;r3 As==10
    97ee:	c2 43 0d 12 	mov.b	#0,	&0x120d	;r3 As==00
    97f2:	5f 43       	mov.b	#1,	r15	;r3 As==01
    97f4:	b0 12 ac 61 	call	#0x61ac	
    97f8:	0b 93       	tst	r11		
    97fa:	01 24       	jz	$+4      	;abs 0x97fe
    97fc:	32 d2       	eint			
    97fe:	3b 41       	pop	r11		
    9800:	30 41       	ret			

00009802 <CC2420ReceiveP__flush>:
    9802:	f2 40 80 ff a0 11 	mov.b	#-128,	&0x11a0	;#0xff80
    9808:	c2 43 b2 12 	mov.b	#0,	&0x12b2	;r3 As==00
    980c:	c2 43 05 18 	mov.b	#0,	&0x1805	;r3 As==00
    9810:	c2 43 fc 17 	mov.b	#0,	&0x17fc	;r3 As==00
    9814:	c2 43 0d 12 	mov.b	#0,	&0x120d	;r3 As==00
    9818:	b0 12 82 46 	call	#0x4682	
    981c:	f2 f0 fb ff 1d 00 	and.b	#-5,	&0x001d	;#0xfffb
    9822:	7f 42       	mov.b	#8,	r15	;r2 As==11
    9824:	b0 12 e4 46 	call	#0x46e4	
    9828:	7f 42       	mov.b	#8,	r15	;r2 As==11
    982a:	b0 12 e4 46 	call	#0x46e4	
    982e:	b0 12 82 46 	call	#0x4682	
    9832:	5f 43       	mov.b	#1,	r15	;r3 As==01
    9834:	b0 12 ac 61 	call	#0x61ac	
    9838:	b0 12 a6 97 	call	#0x97a6	
    983c:	30 41       	ret			

0000983e <Msp430SpiNoDmaP__0__signalDone>:
    983e:	0b 12       	push	r11		
    9840:	0a 12       	push	r10		
    9842:	09 12       	push	r9		
    9844:	08 12       	push	r8		
    9846:	18 42 88 15 	mov	&0x1588,r8	
    984a:	1b 42 1e 14 	mov	&0x141e,r11	
    984e:	c2 93 40 14 	tst.b	&0x1440	
    9852:	02 24       	jz	$+6      	;abs 0x9858
    9854:	30 40 12 9b 	br	#0x9b12	
    9858:	1f 42 46 14 	mov	&0x1446,r15	
    985c:	3f b0 40 00 	bit	#64,	r15	;#0x0040
    9860:	f4 24       	jz	$+490    	;abs 0x9a4a
    9862:	7f f0 bf ff 	and.b	#-65,	r15	;#0xffbf
    9866:	7f 90 3f 00 	cmp.b	#63,	r15	;#0x003f
    986a:	02 24       	jz	$+6      	;abs 0x9870
    986c:	30 40 12 9b 	br	#0x9b12	
    9870:	1b 42 8a 15 	mov	&0x158a,r11	
    9874:	6e 4b       	mov.b	@r11,	r14	
    9876:	c2 4e f8 11 	mov.b	r14,	&0x11f8	
    987a:	1f 42 f6 11 	mov	&0x11f6,r15	
    987e:	2f 92       	cmp	#4,	r15	;r2 As==10
    9880:	2a 24       	jz	$+86     	;abs 0x98d6
    9882:	3f 90 05 00 	cmp	#5,	r15	;#0x0005
    9886:	04 2c       	jc	$+10     	;abs 0x9890
    9888:	3f 90 03 00 	cmp	#3,	r15	;#0x0003
    988c:	d1 20       	jnz	$+420    	;abs 0x9a30
    988e:	07 3c       	jmp	$+16     	;abs 0x989e
    9890:	3f 90 05 00 	cmp	#5,	r15	;#0x0005
    9894:	41 24       	jz	$+132    	;abs 0x9918
    9896:	3f 90 06 00 	cmp	#6,	r15	;#0x0006
    989a:	ca 20       	jnz	$+406    	;abs 0x9a30
    989c:	54 3c       	jmp	$+170    	;abs 0x9946
    989e:	a2 42 f6 11 	mov	#4,	&0x11f6	;r2 As==10
    98a2:	c2 9e a0 11 	cmp.b	r14,	&0x11a0	
    98a6:	42 24       	jz	$+134    	;abs 0x992c
    98a8:	41 28       	jnc	$+132    	;abs 0x992c
    98aa:	f2 b2 20 00 	bit.b	#8,	&0x0020	;r2 As==11
    98ae:	05 20       	jnz	$+12     	;abs 0x98ba
    98b0:	d2 b3 20 00 	bit.b	#1,	&0x0020	;r3 As==01
    98b4:	02 20       	jnz	$+6      	;abs 0x98ba
    98b6:	b0 12 02 98 	call	#0x9802	
    98ba:	5f 42 f8 11 	mov.b	&0x11f8,r15	
    98be:	7f 90 90 ff 	cmp.b	#-112,	r15	;#0xff90
    98c2:	34 2c       	jc	$+106    	;abs 0x992c
    98c4:	4f 93       	tst.b	r15		
    98c6:	32 24       	jz	$+102    	;abs 0x992c
    98c8:	6f 92       	cmp.b	#4,	r15	;r2 As==10
    98ca:	30 28       	jnc	$+98     	;abs 0x992c
    98cc:	7e 40 03 00 	mov.b	#3,	r14	;#0x0003
    98d0:	0f 4b       	mov	r11,	r15	
    98d2:	1f 53       	inc	r15		
    98d4:	1d 3c       	jmp	$+60     	;abs 0x9910
    98d6:	5e 4b 02 00 	mov.b	2(r11),	r14	;0x0002(r11)
    98da:	5f 4b 01 00 	mov.b	1(r11),	r15	;0x0001(r11)
    98de:	3f b2       	bit	#8,	r15	;r2 As==11
    98e0:	25 20       	jnz	$+76     	;abs 0x992c
    98e2:	3d 40 98 11 	mov	#4504,	r13	;#0x1198
    98e6:	b0 12 64 5f 	call	#0x5f64	
    98ea:	0f 93       	tst	r15		
    98ec:	1f 20       	jnz	$+64     	;abs 0x992c
    98ee:	5e 42 98 11 	mov.b	&0x1198,r14	
    98f2:	5f 42 f8 11 	mov.b	&0x11f8,r15	
    98f6:	3f 53       	add	#-1,	r15	;r3 As==11
    98f8:	4d 4e       	mov.b	r14,	r13	
    98fa:	0d 9f       	cmp	r15,	r13	
    98fc:	17 34       	jge	$+48     	;abs 0x992c
    98fe:	6e 92       	cmp.b	#4,	r14	;r2 As==10
    9900:	0b 28       	jnc	$+24     	;abs 0x9918
    9902:	b2 40 05 00 f6 11 	mov	#5,	&0x11f6	;#0x0005
    9908:	7e 50 fd ff 	add.b	#-3,	r14	;#0xfffd
    990c:	0f 4b       	mov	r11,	r15	
    990e:	2f 52       	add	#4,	r15	;r2 As==10
    9910:	b0 12 10 60 	call	#0x6010	
    9914:	30 40 12 9b 	br	#0x9b12	
    9918:	5e 42 f8 11 	mov.b	&0x11f8,r14	
    991c:	5d 42 98 11 	mov.b	&0x1198,r13	
    9920:	4f 4e       	mov.b	r14,	r15	
    9922:	4c 4d       	mov.b	r13,	r12	
    9924:	0f 8c       	sub	r12,	r15	
    9926:	3f 90 79 00 	cmp	#121,	r15	;#0x0079
    992a:	04 38       	jl	$+10     	;abs 0x9934
    992c:	b0 12 02 98 	call	#0x9802	
    9930:	30 40 12 9b 	br	#0x9b12	
    9934:	b2 40 06 00 f6 11 	mov	#6,	&0x11f6	;#0x0006
    993a:	4e 8d       	sub.b	r13,	r14	
    993c:	1f 42 8a 15 	mov	&0x158a,r15	
    9940:	3f 50 18 00 	add	#24,	r15	;#0x0018
    9944:	e5 3f       	jmp	$-52     	;abs 0x9910
    9946:	b0 12 82 46 	call	#0x4682	
    994a:	c2 93 0d 12 	tst.b	&0x120d	
    994e:	03 20       	jnz	$+8      	;abs 0x9956
    9950:	5f 43       	mov.b	#1,	r15	;r3 As==01
    9952:	b0 12 ac 61 	call	#0x61ac	
    9956:	59 42 fc 17 	mov.b	&0x17fc,r9	
    995a:	49 93       	tst.b	r9		
    995c:	28 24       	jz	$+82     	;abs 0x99ae
    995e:	f2 90 05 00 f8 11 	cmp.b	#5,	&0x11f8	;#0x0005
    9964:	2e 28       	jnc	$+94     	;abs 0x99c2
    9966:	5b 42 05 18 	mov.b	&0x1805,r11	
    996a:	0f 4b       	mov	r11,	r15	
    996c:	0f 5f       	rla	r15		
    996e:	0f 5f       	rla	r15		
    9970:	3f 50 da 17 	add	#6106,	r15	;#0x17da
    9974:	2a 4f       	mov	@r15,	r10	
    9976:	1c 4f 02 00 	mov	2(r15),	r12	;0x0002(r15)
    997a:	1d 42 8a 15 	mov	&0x158a,r13	
    997e:	cd 4a 91 00 	mov.b	r10,	145(r13);0x0091(r13)
    9982:	0e 4c       	mov	r12,	r14	
    9984:	0f 4a       	mov	r10,	r15	
    9986:	8f 10       	swpb	r15		
    9988:	8e 10       	swpb	r14		
    998a:	4f ee       	xor.b	r14,	r15	
    998c:	0f ee       	xor	r14,	r15	
    998e:	cd 4f 90 00 	mov.b	r15,	144(r13);0x0090(r13)
    9992:	cd 4c 8f 00 	mov.b	r12,	143(r13);0x008f(r13)
    9996:	8c 10       	swpb	r12		
    9998:	cd 4c 8e 00 	mov.b	r12,	142(r13);0x008e(r13)
    999c:	1b 53       	inc	r11		
    999e:	7b f0 07 00 	and.b	#7,	r11	;#0x0007
    99a2:	c2 4b 05 18 	mov.b	r11,	&0x1805	
    99a6:	79 53       	add.b	#-1,	r9	;r3 As==11
    99a8:	c2 49 fc 17 	mov.b	r9,	&0x17fc	
    99ac:	0a 3c       	jmp	$+22     	;abs 0x99c2
    99ae:	1f 42 8a 15 	mov	&0x158a,r15	
    99b2:	ff 43 91 00 	mov.b	#-1,	145(r15);r3 As==11, 0x0091(r15)
    99b6:	ff 43 90 00 	mov.b	#-1,	144(r15);r3 As==11, 0x0090(r15)
    99ba:	ff 43 8f 00 	mov.b	#-1,	143(r15);r3 As==11, 0x008f(r15)
    99be:	ff 43 8e 00 	mov.b	#-1,	142(r15);r3 As==11, 0x008e(r15)
    99c2:	1f 42 8a 15 	mov	&0x158a,r15	
    99c6:	5e 42 f8 11 	mov.b	&0x11f8,r14	
    99ca:	5d 42 98 11 	mov.b	&0x1198,r13	
    99ce:	0e 8d       	sub	r13,	r14	
    99d0:	0e 5f       	add	r15,	r14	
    99d2:	ce 93 17 00 	tst.b	23(r14)	;0x0017(r14)
    99d6:	29 34       	jge	$+84     	;abs 0x9a2a
    99d8:	08 93       	tst	r8		
    99da:	27 24       	jz	$+80     	;abs 0x9a2a
    99dc:	5e 4f 01 00 	mov.b	1(r15),	r14	;0x0001(r15)
    99e0:	7e f0 07 00 	and.b	#7,	r14	;#0x0007
    99e4:	6e 93       	cmp.b	#2,	r14	;r3 As==10
    99e6:	19 20       	jnz	$+52     	;abs 0x9a1a
    99e8:	b2 90 06 00 12 11 	cmp	#6,	&0x1112	;#0x0006
    99ee:	8d 20       	jnz	$+284    	;abs 0x9b0a
    99f0:	1e 42 10 15 	mov	&0x1510,r14	
    99f4:	2e 4e       	mov	@r14,	r14	
    99f6:	de 9f 03 00 03 00 	cmp.b	3(r15),	3(r14)	;0x0003(r15), 0x0003(r14)
    99fc:	86 20       	jnz	$+270    	;abs 0x9b0a
    99fe:	b2 f0 ef ff 86 01 	and	#-17,	&0x0186	;#0xffef
    9a04:	5e 4f 01 00 	mov.b	1(r15),	r14	;0x0001(r15)
    9a08:	3e f0 10 00 	and	#16,	r14	;#0x0010
    9a0c:	5f 43       	mov.b	#1,	r15	;r3 As==01
    9a0e:	01 20       	jnz	$+4      	;abs 0x9a12
    9a10:	4f 43       	clr.b	r15		
    9a12:	0e 43       	clr	r14		
    9a14:	b0 12 1c 8d 	call	#0x8d1c	
    9a18:	78 3c       	jmp	$+242    	;abs 0x9b0a
    9a1a:	c2 93 05 15 	tst.b	&0x1505	
    9a1e:	05 20       	jnz	$+12     	;abs 0x9a2a
    9a20:	7f 40 24 00 	mov.b	#36,	r15	;#0x0024
    9a24:	b0 12 fa 4a 	call	#0x4afa	
    9a28:	74 3c       	jmp	$+234    	;abs 0x9b12
    9a2a:	b0 12 a6 97 	call	#0x97a6	
    9a2e:	71 3c       	jmp	$+228    	;abs 0x9b12
    9a30:	c2 43 b2 12 	mov.b	#0,	&0x12b2	;r3 As==00
    9a34:	b0 12 82 46 	call	#0x4682	
    9a38:	5f 43       	mov.b	#1,	r15	;r3 As==01
    9a3a:	b0 12 ac 61 	call	#0x61ac	
    9a3e:	c2 93 05 15 	tst.b	&0x1505	
    9a42:	67 24       	jz	$+208    	;abs 0x9b12
    9a44:	b0 12 c4 63 	call	#0x63c4	
    9a48:	64 3c       	jmp	$+202    	;abs 0x9b12
    9a4a:	7f 90 3e 00 	cmp.b	#62,	r15	;#0x003e
    9a4e:	61 20       	jnz	$+196    	;abs 0x9b12
    9a50:	b0 12 6e 46 	call	#0x466e	
    9a54:	1f 42 10 15 	mov	&0x1510,r15	
    9a58:	2f 4f       	mov	@r15,	r15	
    9a5a:	0b 9f       	cmp	r15,	r11	
    9a5c:	0c 20       	jnz	$+26     	;abs 0x9a76
    9a5e:	b0 12 66 46 	call	#0x4666	
    9a62:	1f 42 10 15 	mov	&0x1510,r15	
    9a66:	5e 4f 06 00 	mov.b	6(r15),	r14	;0x0006(r15)
    9a6a:	2f 4f       	mov	@r15,	r15	
    9a6c:	c2 93 b7 16 	tst.b	&0x16b7	
    9a70:	50 24       	jz	$+162    	;abs 0x9b12
    9a72:	1f 53       	inc	r15		
    9a74:	0e 3c       	jmp	$+30     	;abs 0x9a92
    9a76:	1f 53       	inc	r15		
    9a78:	0b 9f       	cmp	r15,	r11	
    9a7a:	0e 20       	jnz	$+30     	;abs 0x9a98
    9a7c:	b0 12 66 46 	call	#0x4666	
    9a80:	1f 42 10 15 	mov	&0x1510,r15	
    9a84:	5e 4f 07 00 	mov.b	7(r15),	r14	;0x0007(r15)
    9a88:	1f 4f 02 00 	mov	2(r15),	r15	;0x0002(r15)
    9a8c:	c2 93 b7 16 	tst.b	&0x16b7	
    9a90:	40 24       	jz	$+130    	;abs 0x9b12
    9a92:	b0 12 78 60 	call	#0x6078	
    9a96:	3d 3c       	jmp	$+124    	;abs 0x9b12
    9a98:	b2 40 03 00 12 11 	mov	#3,	&0x1112	;#0x0003
    9a9e:	1f 42 18 11 	mov	&0x1118,r15	
    9aa2:	3f 90 09 00 	cmp	#9,	r15	;#0x0009
    9aa6:	08 24       	jz	$+18     	;abs 0x9ab8
    9aa8:	34 28       	jnc	$+106    	;abs 0x9b12
    9aaa:	3f 90 0a 00 	cmp	#10,	r15	;#0x000a
    9aae:	27 24       	jz	$+80     	;abs 0x9afe
    9ab0:	3f 90 0b 00 	cmp	#11,	r15	;#0x000b
    9ab4:	2e 20       	jnz	$+94     	;abs 0x9b12
    9ab6:	26 3c       	jmp	$+78     	;abs 0x9b04
    9ab8:	b2 40 0c 00 18 11 	mov	#12,	&0x1118	;#0x000c
    9abe:	1c 42 8c 11 	mov	&0x118c,r12	
    9ac2:	1d 42 8e 11 	mov	&0x118e,r13	
    9ac6:	0c 93       	tst	r12		
    9ac8:	0b 20       	jnz	$+24     	;abs 0x9ae0
    9aca:	0d 93       	tst	r13		
    9acc:	09 20       	jnz	$+20     	;abs 0x9ae0
    9ace:	b2 40 0f 00 18 11 	mov	#15,	&0x1118	;#0x000f
    9ad4:	4f 43       	clr.b	r15		
    9ad6:	b0 12 08 51 	call	#0x5108	
    9ada:	b0 12 da 64 	call	#0x64da	
    9ade:	19 3c       	jmp	$+52     	;abs 0x9b12
    9ae0:	1e 42 bc 12 	mov	&0x12bc,r14	
    9ae4:	1f 42 be 12 	mov	&0x12be,r15	
    9ae8:	c2 93 0e 11 	tst.b	&0x110e	
    9aec:	12 20       	jnz	$+38     	;abs 0x9b12
    9aee:	e2 43 0e 11 	mov.b	#2,	&0x110e	;r3 As==10
    9af2:	3e 50 f0 ff 	add	#-16,	r14	;#0xfff0
    9af6:	3f 63       	addc	#-1,	r15	;r3 As==11
    9af8:	b0 12 b8 4f 	call	#0x4fb8	
    9afc:	0a 3c       	jmp	$+22     	;abs 0x9b12
    9afe:	b0 12 ee 67 	call	#0x67ee	
    9b02:	07 3c       	jmp	$+16     	;abs 0x9b12
    9b04:	b0 12 92 8a 	call	#0x8a92	
    9b08:	04 3c       	jmp	$+10     	;abs 0x9b12
    9b0a:	c2 93 0e 15 	tst.b	&0x150e	
    9b0e:	85 23       	jnz	$-244    	;abs 0x9a1a
    9b10:	8c 3f       	jmp	$-230    	;abs 0x9a2a
    9b12:	38 41       	pop	r8		
    9b14:	39 41       	pop	r9		
    9b16:	3a 41       	pop	r10		
    9b18:	3b 41       	pop	r11		
    9b1a:	30 41       	ret			

00009b1c <PibP__Frame__setAddressingFields.constprop.273>:
    9b1c:	0b 12       	push	r11		
    9b1e:	0a 12       	push	r10		
    9b20:	09 12       	push	r9		
    9b22:	08 12       	push	r8		
    9b24:	04 12       	push	r4		
    9b26:	04 41       	mov	r1,	r4	
    9b28:	34 50 0a 00 	add	#10,	r4	;#0x000a
    9b2c:	31 82       	sub	#8,	r1	;r2 As==11
    9b2e:	4a 4d       	mov.b	r13,	r10	
    9b30:	0d 4c       	mov	r12,	r13	
    9b32:	08 4f       	mov	r15,	r8	
    9b34:	18 53       	inc	r8		
    9b36:	1c 42 f0 13 	mov	&0x13f0,r12	
    9b3a:	4b 4e       	mov.b	r14,	r11	
    9b3c:	79 40 06 00 	mov.b	#6,	r9	;#0x0006
    9b40:	0b 5b       	rla	r11		
    9b42:	79 53       	add.b	#-1,	r9	;r3 As==11
    9b44:	fd 23       	jnz	$-4      	;abs 0x9b40
    9b46:	59 4f 02 00 	mov.b	2(r15),	r9	;0x0002(r15)
    9b4a:	79 f0 33 00 	and.b	#51,	r9	;#0x0033
    9b4e:	49 db       	bis.b	r11,	r9	
    9b50:	4b 4a       	mov.b	r10,	r11	
    9b52:	0b 5b       	rla	r11		
    9b54:	0b 5b       	rla	r11		
    9b56:	49 db       	bis.b	r11,	r9	
    9b58:	cf 49 02 00 	mov.b	r9,	2(r15)	;0x0002(r15)
    9b5c:	6e 93       	cmp.b	#2,	r14	;r3 As==10
    9b5e:	04 20       	jnz	$+10     	;abs 0x9b68
    9b60:	94 42 f2 13 ee ff 	mov	&0x13f2,-18(r4)	;0xffee(r4)
    9b66:	0c 3c       	jmp	$+26     	;abs 0x9b80
    9b68:	94 42 24 15 ee ff 	mov	&0x1524,-18(r4)	;0xffee(r4)
    9b6e:	94 42 26 15 f0 ff 	mov	&0x1526,-16(r4)	;0xfff0(r4)
    9b74:	94 42 28 15 f2 ff 	mov	&0x1528,-14(r4)	;0xfff2(r4)
    9b7a:	94 42 2a 15 f4 ff 	mov	&0x152a,-12(r4)	;0xfff4(r4)
    9b80:	6a 93       	cmp.b	#2,	r10	;r3 As==10
    9b82:	08 28       	jnc	$+18     	;abs 0x9b94
    9b84:	6e 93       	cmp.b	#2,	r14	;r3 As==10
    9b86:	06 28       	jnc	$+14     	;abs 0x9b94
    9b88:	0d 9c       	cmp	r12,	r13	
    9b8a:	04 20       	jnz	$+10     	;abs 0x9b94
    9b8c:	ff d0 40 00 01 00 	bis.b	#64,	1(r15)	;#0x0040, 0x0001(r15)
    9b92:	03 3c       	jmp	$+8      	;abs 0x9b9a
    9b94:	ff f0 bf ff 01 00 	and.b	#-65,	1(r15)	;#0xffbf, 0x0001(r15)
    9b9a:	5b 4f 01 00 	mov.b	1(r15),	r11	;0x0001(r15)
    9b9e:	3b f0 40 00 	and	#64,	r11	;#0x0040
    9ba2:	5f 43       	mov.b	#1,	r15	;r3 As==01
    9ba4:	01 20       	jnz	$+4      	;abs 0x9ba8
    9ba6:	4f 43       	clr.b	r15		
    9ba8:	4f 12       	push.b	r15		
    9baa:	3f 40 ee ff 	mov	#-18,	r15	;#0xffee
    9bae:	0f 54       	add	r4,	r15	
    9bb0:	0f 12       	push	r15		
    9bb2:	0c 12       	push	r12		
    9bb4:	4e 12       	push.b	r14		
    9bb6:	1c 44 02 00 	mov	2(r4),	r12	;0x0002(r4)
    9bba:	4e 4a       	mov.b	r10,	r14	
    9bbc:	0f 48       	mov	r8,	r15	
    9bbe:	b0 12 fe 48 	call	#0x48fe	
    9bc2:	0f 43       	clr	r15		
    9bc4:	31 50 10 00 	add	#16,	r1	;#0x0010
    9bc8:	34 41       	pop	r4		
    9bca:	38 41       	pop	r8		
    9bcc:	39 41       	pop	r9		
    9bce:	3a 41       	pop	r10		
    9bd0:	3b 41       	pop	r11		
    9bd2:	30 41       	ret			

00009bd4 <NWKP__MCPS_DATA__indication>:
    9bd4:	0b 12       	push	r11		
    9bd6:	0a 12       	push	r10		
    9bd8:	09 12       	push	r9		
    9bda:	08 12       	push	r8		
    9bdc:	07 12       	push	r7		
    9bde:	06 12       	push	r6		
    9be0:	05 12       	push	r5		
    9be2:	04 12       	push	r4		
    9be4:	31 50 74 ff 	add	#-140,	r1	;#0xff74
    9be8:	0a 4f       	mov	r15,	r10	
    9bea:	6b 4f       	mov.b	@r15,	r11	
    9bec:	7b f0 7f 00 	and.b	#127,	r11	;#0x007f
    9bf0:	7b 92       	cmp.b	#8,	r11	;r2 As==11
    9bf2:	02 2c       	jc	$+6      	;abs 0x9bf8
    9bf4:	30 40 c4 9e 	br	#0x9ec4	
    9bf8:	1f 4f 1a 00 	mov	26(r15),r15	;0x001a(r15)
    9bfc:	1f 92 20 15 	cmp	&0x1520,r15	
    9c00:	04 24       	jz	$+10     	;abs 0x9c0a
    9c02:	3f 93       	cmp	#-1,	r15	;r3 As==11
    9c04:	02 24       	jz	$+6      	;abs 0x9c0a
    9c06:	30 40 c4 9e 	br	#0x9ec4	
    9c0a:	08 42       	mov	r2,	r8	
    9c0c:	38 f2       	and	#8,	r8	;r2 As==11
    9c0e:	32 c2       	dint			
    9c10:	03 43       	nop			
    9c12:	3d 40 78 00 	mov	#120,	r13	;#0x0078
    9c16:	0e 43       	clr	r14		
    9c18:	0f 41       	mov	r1,	r15	
    9c1a:	3f 50 12 00 	add	#18,	r15	;#0x0012
    9c1e:	b0 12 6e bd 	call	#0xbd6e	
    9c22:	4d 4b       	mov.b	r11,	r13	
    9c24:	3d 82       	sub	#8,	r13	;r2 As==11
    9c26:	0e 4a       	mov	r10,	r14	
    9c28:	3e 50 20 00 	add	#32,	r14	;#0x0020
    9c2c:	0f 41       	mov	r1,	r15	
    9c2e:	3f 50 12 00 	add	#18,	r15	;#0x0012
    9c32:	b0 12 74 bc 	call	#0xbc74	
    9c36:	1b 4a 1c 00 	mov	28(r10),r11	;0x001c(r10)
    9c3a:	d1 93 12 00 	cmp.b	#1,	18(r1)	;r3 As==01, 0x0012(r1)
    9c3e:	02 24       	jz	$+6      	;abs 0x9c44
    9c40:	30 40 be 9e 	br	#0x9ebe	
    9c44:	54 41 14 00 	mov.b	20(r1),	r4	;0x0014(r1)
    9c48:	d1 41 13 00 8a 00 	mov.b	19(r1),	138(r1)	;0x0013(r1), 0x008a(r1)
    9c4e:	0f 4b       	mov	r11,	r15	
    9c50:	3f 53       	add	#-1,	r15	;r3 As==11
    9c52:	3f 90 2a 00 	cmp	#42,	r15	;#0x002a
    9c56:	07 2c       	jc	$+16     	;abs 0x9c66
    9c58:	55 4f be bf 	mov.b	-16450(r15),r5	;0xbfbe(r15)
    9c5c:	56 4f e8 bf 	mov.b	-16408(r15),r6	;0xbfe8(r15)
    9c60:	57 4f 12 c0 	mov.b	-16366(r15),r7	;0xc012(r15)
    9c64:	04 3c       	jmp	$+10     	;abs 0x9c6e
    9c66:	47 43       	clr.b	r7		
    9c68:	46 43       	clr.b	r6		
    9c6a:	75 40 03 00 	mov.b	#3,	r5	;#0x0003
    9c6e:	e2 42 58 13 	mov.b	#4,	&0x1358	;r2 As==10
    9c72:	c2 43 59 13 	mov.b	#0,	&0x1359	;r3 As==00
    9c76:	c2 4b 5a 13 	mov.b	r11,	&0x135a	
    9c7a:	0f 4b       	mov	r11,	r15	
    9c7c:	8f 10       	swpb	r15		
    9c7e:	c2 4f 5b 13 	mov.b	r15,	&0x135b	
    9c82:	19 42 20 15 	mov	&0x1520,r9	
    9c86:	c2 49 5c 13 	mov.b	r9,	&0x135c	
    9c8a:	0f 49       	mov	r9,	r15	
    9c8c:	8f 10       	swpb	r15		
    9c8e:	c2 4f 5d 13 	mov.b	r15,	&0x135d	
    9c92:	d2 43 5e 13 	mov.b	#1,	&0x135e	;r3 As==01
    9c96:	5f 42 a4 11 	mov.b	&0x11a4,r15	
    9c9a:	c2 4f 5f 13 	mov.b	r15,	&0x135f	
    9c9e:	3e 40 ff 00 	mov	#255,	r14	;#0x00ff
    9ca2:	1f 53       	inc	r15		
    9ca4:	b0 12 2c bc 	call	#0xbc2c	
    9ca8:	c2 4f a4 11 	mov.b	r15,	&0x11a4	
    9cac:	c2 45 60 13 	mov.b	r5,	&0x1360	
    9cb0:	d2 41 8a 00 61 13 	mov.b	138(r1),&0x1361	;0x008a(r1)
    9cb6:	c2 44 62 13 	mov.b	r4,	&0x1362	
    9cba:	c2 46 63 13 	mov.b	r6,	&0x1363	
    9cbe:	c2 47 64 13 	mov.b	r7,	&0x1364	
    9cc2:	c2 43 65 13 	mov.b	#0,	&0x1365	;r3 As==00
    9cc6:	3b 93       	cmp	#-1,	r11	;r3 As==11
    9cc8:	03 20       	jnz	$+8      	;abs 0x9cd0
    9cca:	b1 43 0a 00 	mov	#-1,	10(r1)	;r3 As==11, 0x000a(r1)
    9cce:	45 3c       	jmp	$+140    	;abs 0x9d5a
    9cd0:	09 9b       	cmp	r11,	r9	
    9cd2:	36 2c       	jc	$+110    	;abs 0x9d40
    9cd4:	0f 49       	mov	r9,	r15	
    9cd6:	1f 52 0a 18 	add	&0x180a,r15	
    9cda:	0b 9f       	cmp	r15,	r11	
    9cdc:	31 2c       	jc	$+100    	;abs 0x9d40
    9cde:	81 4b 0a 00 	mov	r11,	10(r1)	;0x000a(r1)
    9ce2:	11 12 12 00 	push	18(r1)		;0x0012(r1)
    9ce6:	11 12 12 00 	push	18(r1)		;0x0012(r1)
    9cea:	11 12 12 00 	push	18(r1)		;0x0012(r1)
    9cee:	11 12 12 00 	push	18(r1)		;0x0012(r1)
    9cf2:	6f 43       	mov.b	#2,	r15	;r3 As==10
    9cf4:	b0 12 0c 4a 	call	#0x4a0c	
    9cf8:	31 52       	add	#8,	r1	;r2 As==11
    9cfa:	7f 93       	cmp.b	#-1,	r15	;r3 As==11
    9cfc:	1f 20       	jnz	$+64     	;abs 0x9d3c
    9cfe:	07 49       	mov	r9,	r7	
    9d00:	37 e3       	inv	r7		
    9d02:	07 5b       	add	r11,	r7	
    9d04:	5b 42 52 11 	mov.b	&0x1152,r11	
    9d08:	4f 4b       	mov.b	r11,	r15	
    9d0a:	b0 12 66 56 	call	#0x5666	
    9d0e:	0e 4f       	mov	r15,	r14	
    9d10:	0f 47       	mov	r7,	r15	
    9d12:	b0 12 d8 bb 	call	#0xbbd8	
    9d16:	07 4f       	mov	r15,	r7	
    9d18:	4f 4b       	mov.b	r11,	r15	
    9d1a:	b0 12 66 56 	call	#0x5666	
    9d1e:	19 53       	inc	r9		
    9d20:	02 12       	push	r2		
    9d22:	32 c2       	dint			
    9d24:	03 43       	nop			
    9d26:	82 47 32 01 	mov	r7,	&0x0132	
    9d2a:	82 4f 38 01 	mov	r15,	&0x0138	
    9d2e:	1f 42 3a 01 	mov	&0x013a,r15	
    9d32:	32 41       	pop	r2		
    9d34:	09 5f       	add	r15,	r9	
    9d36:	81 49 0a 00 	mov	r9,	10(r1)	;0x000a(r1)
    9d3a:	0f 3c       	jmp	$+32     	;abs 0x9d5a
    9d3c:	4d 4f       	mov.b	r15,	r13	
    9d3e:	02 3c       	jmp	$+6      	;abs 0x9d44
    9d40:	5d 42 c0 11 	mov.b	&0x11c0,r13	
    9d44:	0d 5d       	rla	r13		
    9d46:	0e 4d       	mov	r13,	r14	
    9d48:	0e 5e       	rla	r14		
    9d4a:	0e 5e       	rla	r14		
    9d4c:	0e 5e       	rla	r14		
    9d4e:	0e 5d       	add	r13,	r14	
    9d50:	3e 50 fe 15 	add	#5630,	r14	;#0x15fe
    9d54:	91 4e 0a 00 0a 00 	mov	10(r14),10(r1)	;0x000a(r14), 0x000a(r1)
    9d5a:	0f 41       	mov	r1,	r15	
    9d5c:	3f 50 0a 00 	add	#10,	r15	;#0x000a
    9d60:	0f 12       	push	r15		
    9d62:	3c 40 3f 12 	mov	#4671,	r12	;#0x123f
    9d66:	6d 43       	mov.b	#2,	r13	;r3 As==10
    9d68:	6e 43       	mov.b	#2,	r14	;r3 As==10
    9d6a:	3f 40 40 13 	mov	#4928,	r15	;#0x1340
    9d6e:	b0 12 1c 9b 	call	#0x9b1c	
    9d72:	21 53       	incd	r1		
    9d74:	5b 42 42 13 	mov.b	&0x1342,r11	
    9d78:	5f 42 41 13 	mov.b	&0x1341,r15	
    9d7c:	3f b2       	bit	#8,	r15	;r2 As==11
    9d7e:	04 20       	jnz	$+10     	;abs 0x9d88
    9d80:	0d 41       	mov	r1,	r13	
    9d82:	4e 4b       	mov.b	r11,	r14	
    9d84:	b0 12 64 5f 	call	#0x5f64	
    9d88:	67 41       	mov.b	@r1,	r7	
    9d8a:	4f 47       	mov.b	r7,	r15	
    9d8c:	3f 90 70 00 	cmp	#112,	r15	;#0x0070
    9d90:	96 34       	jge	$+302    	;abs 0x9ebe
    9d92:	4d 4b       	mov.b	r11,	r13	
    9d94:	7f 40 06 00 	mov.b	#6,	r15	;#0x0006
    9d98:	12 c3       	clrc			
    9d9a:	4d 10       	rrc.b	r13		
    9d9c:	7f 53       	add.b	#-1,	r15	;r3 As==11
    9d9e:	fc 23       	jnz	$-6      	;abs 0x9d98
    9da0:	0e 4b       	mov	r11,	r14	
    9da2:	3e f0 0c 00 	and	#12,	r14	;#0x000c
    9da6:	0e 11       	rra	r14		
    9da8:	0e 11       	rra	r14		
    9daa:	49 4e       	mov.b	r14,	r9	
    9dac:	4d 93       	tst.b	r13		
    9dae:	03 20       	jnz	$+8      	;abs 0x9db6
    9db0:	49 93       	tst.b	r9		
    9db2:	85 24       	jz	$+268    	;abs 0x9ebe
    9db4:	04 3c       	jmp	$+10     	;abs 0x9dbe
    9db6:	6d 92       	cmp.b	#4,	r13	;r2 As==10
    9db8:	82 2c       	jc	$+262    	;abs 0x9ebe
    9dba:	5d 93       	cmp.b	#1,	r13	;r3 As==01
    9dbc:	80 24       	jz	$+258    	;abs 0x9ebe
    9dbe:	59 93       	cmp.b	#1,	r9	;r3 As==01
    9dc0:	7e 24       	jz	$+254    	;abs 0x9ebe
    9dc2:	b0 12 8c 48 	call	#0x488c	
    9dc6:	0b 4f       	mov	r15,	r11	
    9dc8:	0f 93       	tst	r15		
    9dca:	79 24       	jz	$+244    	;abs 0x9ebe
    9dcc:	bf 40 40 13 00 00 	mov	#4928,	0(r15)	;#0x1340, 0x0000(r15)
    9dd2:	bf 40 58 13 02 00 	mov	#4952,	2(r15)	;#0x1358, 0x0002(r15)
    9dd8:	bf 40 ce 13 04 00 	mov	#5070,	4(r15)	;#0x13ce, 0x0004(r15)
    9dde:	ff 40 0e 00 07 00 	mov.b	#14,	7(r15)	;#0x000e, 0x0007(r15)
    9de4:	cf 47 06 00 	mov.b	r7,	6(r15)	;0x0006(r15)
    9de8:	5f 42 41 13 	mov.b	&0x1341,r15	
    9dec:	7f f0 c8 ff 	and.b	#-56,	r15	;#0xffc8
    9df0:	7f d0 21 00 	bis.b	#33,	r15	;#0x0021
    9df4:	c2 4f 41 13 	mov.b	r15,	&0x1341	
    9df8:	5f 42 42 13 	mov.b	&0x1342,r15	
    9dfc:	7f f0 cf ff 	and.b	#-49,	r15	;#0xffcf
    9e00:	c2 4f 42 13 	mov.b	r15,	&0x1342	
    9e04:	cb 43 09 00 	mov.b	#0,	9(r11)	;r3 As==00, 0x0009(r11)
    9e08:	4f 4f       	mov.b	r15,	r15	
    9e0a:	3f b2       	bit	#8,	r15	;r2 As==11
    9e0c:	13 24       	jz	$+40     	;abs 0x9e34
    9e0e:	3f f0 0c 00 	and	#12,	r15	;#0x000c
    9e12:	3f 92       	cmp	#8,	r15	;r2 As==11
    9e14:	09 20       	jnz	$+20     	;abs 0x9e28
    9e16:	5f 42 47 13 	mov.b	&0x1347,r15	
    9e1a:	8f 10       	swpb	r15		
    9e1c:	5e 42 46 13 	mov.b	&0x1346,r14	
    9e20:	0f de       	bis	r14,	r15	
    9e22:	81 4f 02 00 	mov	r15,	2(r1)	;0x0002(r1)
    9e26:	06 3c       	jmp	$+14     	;abs 0x9e34
    9e28:	3e 40 46 13 	mov	#4934,	r14	;#0x1346
    9e2c:	0f 41       	mov	r1,	r15	
    9e2e:	2f 53       	incd	r15		
    9e30:	b0 12 aa 47 	call	#0x47aa	
    9e34:	69 93       	cmp.b	#2,	r9	;r3 As==10
    9e36:	04 20       	jnz	$+10     	;abs 0x9e40
    9e38:	b1 93 02 00 	cmp	#-1,	2(r1)	;r3 As==11, 0x0002(r1)
    9e3c:	27 20       	jnz	$+80     	;abs 0x9e8c
    9e3e:	04 3c       	jmp	$+10     	;abs 0x9e48
    9e40:	79 90 03 00 	cmp.b	#3,	r9	;#0x0003
    9e44:	2c 20       	jnz	$+90     	;abs 0x9e9e
    9e46:	22 3c       	jmp	$+70     	;abs 0x9e8c
    9e48:	f2 f0 df ff 41 13 	and.b	#-33,	&0x1341	;#0xffdf
    9e4e:	5f 42 1a 11 	mov.b	&0x111a,r15	
    9e52:	6f 92       	cmp.b	#4,	r15	;r2 As==10
    9e54:	31 2c       	jc	$+100    	;abs 0x9eb8
    9e56:	5d 42 1c 11 	mov.b	&0x111c,r13	
    9e5a:	4e 4d       	mov.b	r13,	r14	
    9e5c:	0e 5e       	rla	r14		
    9e5e:	8e 4b de 14 	mov	r11,	5342(r14);0x14de(r14)
    9e62:	4e 4d       	mov.b	r13,	r14	
    9e64:	5e 53       	inc.b	r14		
    9e66:	c2 4e 1c 11 	mov.b	r14,	&0x111c	
    9e6a:	6e 92       	cmp.b	#4,	r14	;r2 As==10
    9e6c:	02 20       	jnz	$+6      	;abs 0x9e72
    9e6e:	c2 43 1c 11 	mov.b	#0,	&0x111c	;r3 As==00
    9e72:	5f 53       	inc.b	r15		
    9e74:	c2 4f 1a 11 	mov.b	r15,	&0x111a	
    9e78:	82 93 54 11 	tst	&0x1154	
    9e7c:	20 20       	jnz	$+66     	;abs 0x9ebe
    9e7e:	5e 42 1e 11 	mov.b	&0x111e,r14	
    9e82:	0e 5e       	rla	r14		
    9e84:	92 4e de 14 54 11 	mov	5342(r14),&0x1154	;0x14de(r14)
    9e8a:	19 3c       	jmp	$+52     	;abs 0x9ebe
    9e8c:	f2 90 07 00 1a 15 	cmp.b	#7,	&0x151a	;#0x0007
    9e92:	12 2c       	jc	$+38     	;abs 0x9eb8
    9e94:	0e 4b       	mov	r11,	r14	
    9e96:	6f 43       	mov.b	#2,	r15	;r3 As==10
    9e98:	b0 12 c8 68 	call	#0x68c8	
    9e9c:	0b 3c       	jmp	$+24     	;abs 0x9eb4
    9e9e:	0e 4b       	mov	r11,	r14	
    9ea0:	49 93       	tst.b	r9		
    9ea2:	04 20       	jnz	$+10     	;abs 0x9eac
    9ea4:	6f 42       	mov.b	#4,	r15	;r2 As==10
    9ea6:	b0 12 22 64 	call	#0x6422	
    9eaa:	04 3c       	jmp	$+10     	;abs 0x9eb4
    9eac:	7f 40 05 00 	mov.b	#5,	r15	;#0x0005
    9eb0:	b0 12 70 64 	call	#0x6470	
    9eb4:	0f 93       	tst	r15		
    9eb6:	03 24       	jz	$+8      	;abs 0x9ebe
    9eb8:	0f 4b       	mov	r11,	r15	
    9eba:	b0 12 26 5f 	call	#0x5f26	
    9ebe:	08 93       	tst	r8		
    9ec0:	01 24       	jz	$+4      	;abs 0x9ec4
    9ec2:	32 d2       	eint			
    9ec4:	0f 4a       	mov	r10,	r15	
    9ec6:	31 50 8c 00 	add	#140,	r1	;#0x008c
    9eca:	34 41       	pop	r4		
    9ecc:	35 41       	pop	r5		
    9ece:	36 41       	pop	r6		
    9ed0:	37 41       	pop	r7		
    9ed2:	38 41       	pop	r8		
    9ed4:	39 41       	pop	r9		
    9ed6:	3a 41       	pop	r10		
    9ed8:	3b 41       	pop	r11		
    9eda:	30 41       	ret			

00009edc <DispatchSlottedCsmaP__0__FrameRx__received>:
    9edc:	0b 12       	push	r11		
    9ede:	0b 4e       	mov	r14,	r11	
    9ee0:	5f 93       	cmp.b	#1,	r15	;r3 As==01
    9ee2:	04 24       	jz	$+10     	;abs 0x9eec
    9ee4:	7f 90 0b 00 	cmp.b	#11,	r15	;#0x000b
    9ee8:	12 20       	jnz	$+38     	;abs 0x9f0e
    9eea:	04 3c       	jmp	$+10     	;abs 0x9ef4
    9eec:	0f 4e       	mov	r14,	r15	
    9eee:	b0 12 d4 9b 	call	#0x9bd4	
    9ef2:	0e 3c       	jmp	$+30     	;abs 0x9f10
    9ef4:	5f 4e 1a 00 	mov.b	26(r14),r15	;0x001a(r14)
    9ef8:	8f 10       	swpb	r15		
    9efa:	5e 4e 19 00 	mov.b	25(r14),r14	;0x0019(r14)
    9efe:	0f de       	bis	r14,	r15	
    9f00:	1f 92 f0 13 	cmp	&0x13f0,r15	
    9f04:	04 20       	jnz	$+10     	;abs 0x9f0e
    9f06:	3f 40 ea 00 	mov	#234,	r15	;#0x00ea
    9f0a:	b0 12 5e 7e 	call	#0x7e5e	
    9f0e:	0f 4b       	mov	r11,	r15	
    9f10:	3b 41       	pop	r11		
    9f12:	30 41       	ret			

00009f14 <AssociateP__MLME_ASSOCIATE__response.constprop.274>:
    9f14:	0b 12       	push	r11		
    9f16:	0a 12       	push	r10		
    9f18:	09 12       	push	r9		
    9f1a:	08 12       	push	r8		
    9f1c:	04 12       	push	r4		
    9f1e:	04 41       	mov	r1,	r4	
    9f20:	34 50 0a 00 	add	#10,	r4	;#0x000a
    9f24:	31 50 f0 ff 	add	#-16,	r1	;#0xfff0
    9f28:	84 4c ee ff 	mov	r12,	-18(r4)	;0xffee(r4)
    9f2c:	84 4d f0 ff 	mov	r13,	-16(r4)	;0xfff0(r4)
    9f30:	84 4e f2 ff 	mov	r14,	-14(r4)	;0xfff2(r4)
    9f34:	84 4f f4 ff 	mov	r15,	-12(r4)	;0xfff4(r4)
    9f38:	18 44 02 00 	mov	2(r4),	r8	;0x0002(r4)
    9f3c:	3f 40 8a 16 	mov	#5770,	r15	;#0x168a
    9f40:	4a 43       	clr.b	r10		
    9f42:	ff 93 00 00 	cmp.b	#-1,	0(r15)	;r3 As==11, 0x0000(r15)
    9f46:	7d 24       	jz	$+252    	;abs 0xa042
    9f48:	5a 53       	inc.b	r10		
    9f4a:	2f 52       	add	#4,	r15	;r2 As==10
    9f4c:	7a 90 07 00 	cmp.b	#7,	r10	;#0x0007
    9f50:	f8 23       	jnz	$-14     	;abs 0x9f42
    9f52:	6c 3c       	jmp	$+218    	;abs 0xa02c
    9f54:	b0 12 c4 48 	call	#0x48c4	
    9f58:	09 4f       	mov	r15,	r9	
    9f5a:	0f 93       	tst	r15		
    9f5c:	04 20       	jnz	$+10     	;abs 0x9f66
    9f5e:	0f 4b       	mov	r11,	r15	
    9f60:	b0 12 26 5f 	call	#0x5f26	
    9f64:	63 3c       	jmp	$+200    	;abs 0xa02c
    9f66:	8b 4f 00 00 	mov	r15,	0(r11)	;0x0000(r11)
    9f6a:	3f 50 18 00 	add	#24,	r15	;#0x0018
    9f6e:	8b 4f 04 00 	mov	r15,	4(r11)	;0x0004(r11)
    9f72:	4e 4a       	mov.b	r10,	r14	
    9f74:	0e 5e       	rla	r14		
    9f76:	0e 5e       	rla	r14		
    9f78:	3e 50 8a 16 	add	#5770,	r14	;#0x168a
    9f7c:	8b 4e 02 00 	mov	r14,	2(r11)	;0x0002(r11)
    9f80:	94 42 24 15 e6 ff 	mov	&0x1524,-26(r4)	;0xffe6(r4)
    9f86:	94 42 26 15 e8 ff 	mov	&0x1526,-24(r4)	;0xffe8(r4)
    9f8c:	94 42 28 15 ea ff 	mov	&0x1528,-22(r4)	;0xffea(r4)
    9f92:	94 42 2a 15 ec ff 	mov	&0x152a,-20(r4)	;0xffec(r4)
    9f98:	1d 42 f0 13 	mov	&0x13f0,r13	
    9f9c:	53 12       	push.b	#1		;r3 As==01
    9f9e:	3f 40 e6 ff 	mov	#-26,	r15	;#0xffe6
    9fa2:	0f 54       	add	r4,	r15	
    9fa4:	0f 12       	push	r15		
    9fa6:	0d 12       	push	r13		
    9fa8:	70 12 03 00 	push.b	#3		;#0x0003
    9fac:	0c 44       	mov	r4,	r12	
    9fae:	3c 50 ee ff 	add	#-18,	r12	;#0xffee
    9fb2:	7e 40 03 00 	mov.b	#3,	r14	;#0x0003
    9fb6:	0f 49       	mov	r9,	r15	
    9fb8:	1f 53       	inc	r15		
    9fba:	b0 12 fe 48 	call	#0x48fe	
    9fbe:	31 52       	add	#8,	r1	;r2 As==11
    9fc0:	cb 4f 06 00 	mov.b	r15,	6(r11)	;0x0006(r11)
    9fc4:	2f 4b       	mov	@r11,	r15	
    9fc6:	ff 40 63 00 01 00 	mov.b	#99,	1(r15)	;#0x0063, 0x0001(r15)
    9fcc:	2f 4b       	mov	@r11,	r15	
    9fce:	ff 40 cc ff 02 00 	mov.b	#-52,	2(r15)	;#0xffcc, 0x0002(r15)
    9fd4:	1f 4b 02 00 	mov	2(r11),	r15	;0x0002(r11)
    9fd8:	ef 43 00 00 	mov.b	#2,	0(r15)	;r3 As==10, 0x0000(r15)
    9fdc:	1f 4b 02 00 	mov	2(r11),	r15	;0x0002(r11)
    9fe0:	cf 48 01 00 	mov.b	r8,	1(r15)	;0x0001(r15)
    9fe4:	0e 48       	mov	r8,	r14	
    9fe6:	8e 10       	swpb	r14		
    9fe8:	cf 4e 02 00 	mov.b	r14,	2(r15)	;0x0002(r15)
    9fec:	1f 4b 02 00 	mov	2(r11),	r15	;0x0002(r11)
    9ff0:	df 44 04 00 03 00 	mov.b	4(r4),	3(r15)	;0x0004(r4), 0x0003(r15)
    9ff6:	eb 42 07 00 	mov.b	#4,	7(r11)	;r2 As==10, 0x0007(r11)
    9ffa:	f2 90 07 00 1a 15 	cmp.b	#7,	&0x151a	;#0x0007
    a000:	08 2c       	jc	$+18     	;abs 0xa012
    a002:	0e 4b       	mov	r11,	r14	
    a004:	4f 43       	clr.b	r15		
    a006:	b0 12 c8 68 	call	#0x68c8	
    a00a:	0a 4f       	mov	r15,	r10	
    a00c:	0f 93       	tst	r15		
    a00e:	10 24       	jz	$+34     	;abs 0xa030
    a010:	02 3c       	jmp	$+6      	;abs 0xa016
    a012:	3a 40 f1 00 	mov	#241,	r10	;#0x00f1
    a016:	1f 4b 02 00 	mov	2(r11),	r15	;0x0002(r11)
    a01a:	ff 43 00 00 	mov.b	#-1,	0(r15)	;r3 As==11, 0x0000(r15)
    a01e:	0f 4b       	mov	r11,	r15	
    a020:	b0 12 26 5f 	call	#0x5f26	
    a024:	0f 49       	mov	r9,	r15	
    a026:	b0 12 f6 5e 	call	#0x5ef6	
    a02a:	02 3c       	jmp	$+6      	;abs 0xa030
    a02c:	3a 40 f1 00 	mov	#241,	r10	;#0x00f1
    a030:	0f 4a       	mov	r10,	r15	
    a032:	31 50 10 00 	add	#16,	r1	;#0x0010
    a036:	34 41       	pop	r4		
    a038:	38 41       	pop	r8		
    a03a:	39 41       	pop	r9		
    a03c:	3a 41       	pop	r10		
    a03e:	3b 41       	pop	r11		
    a040:	30 41       	ret			
    a042:	b0 12 8c 48 	call	#0x488c	
    a046:	0b 4f       	mov	r15,	r11	
    a048:	0f 93       	tst	r15		
    a04a:	84 23       	jnz	$-246    	;abs 0x9f54
    a04c:	ef 3f       	jmp	$-32     	;abs 0xa02c

0000a04e <SchedulerBasicP__TaskBasic__runTask>:
    a04e:	0b 12       	push	r11		
    a050:	0a 12       	push	r10		
    a052:	09 12       	push	r9		
    a054:	08 12       	push	r8		
    a056:	07 12       	push	r7		
    a058:	06 12       	push	r6		
    a05a:	05 12       	push	r5		
    a05c:	04 12       	push	r4		
    a05e:	31 50 c2 ff 	add	#-62,	r1	;#0xffc2
    a062:	7f 90 28 00 	cmp.b	#40,	r15	;#0x0028
    a066:	02 28       	jnc	$+6      	;abs 0xa06c
    a068:	30 40 82 b7 	br	#0xb782	
    a06c:	4f 4f       	mov.b	r15,	r15	
    a06e:	0f 5f       	rla	r15		
    a070:	10 4f 14 bf 	br	-16620(r15)	;0xbf14(r15)
    a074:	c2 93 09 12 	tst.b	&0x1209	
    a078:	28 20       	jnz	$+82     	;abs 0xa0ca
    a07a:	1e 42 d4 17 	mov	&0x17d4,r14	
    a07e:	1f 42 d6 17 	mov	&0x17d6,r15	
    a082:	0b 42       	mov	r2,	r11	
    a084:	32 c2       	dint			
    a086:	03 43       	nop			
    a088:	1c 42 20 14 	mov	&0x1420,r12	
    a08c:	1d 42 22 14 	mov	&0x1422,r13	
    a090:	1c 52 30 14 	add	&0x1430,r12	
    a094:	1d 62 32 14 	addc	&0x1432,r13	
    a098:	3b f2       	and	#8,	r11	;r2 As==11
    a09a:	01 24       	jz	$+4      	;abs 0xa09e
    a09c:	32 d2       	eint			
    a09e:	82 4e d4 17 	mov	r14,	&0x17d4	
    a0a2:	82 4f d6 17 	mov	r15,	&0x17d6	
    a0a6:	c2 43 09 12 	mov.b	#0,	&0x1209	;r3 As==00
    a0aa:	0b 42       	mov	r2,	r11	
    a0ac:	32 c2       	dint			
    a0ae:	03 43       	nop			
    a0b0:	82 4c 30 14 	mov	r12,	&0x1430	
    a0b4:	82 4d 32 14 	mov	r13,	&0x1432	
    a0b8:	82 4e 20 14 	mov	r14,	&0x1420	
    a0bc:	82 4f 22 14 	mov	r15,	&0x1422	
    a0c0:	b0 12 70 55 	call	#0x5570	
    a0c4:	3b b2       	bit	#8,	r11	;r2 As==11
    a0c6:	01 24       	jz	$+4      	;abs 0xa0ca
    a0c8:	32 d2       	eint			
    a0ca:	b0 12 02 55 	call	#0x5502	
    a0ce:	25 3c       	jmp	$+76     	;abs 0xa11a
    a0d0:	b0 12 02 55 	call	#0x5502	
    a0d4:	b2 f0 ef ff 82 01 	and	#-17,	&0x0182	;#0xffef
    a0da:	e2 b3 36 15 	bit.b	#2,	&0x1536	;r3 As==10
    a0de:	02 20       	jnz	$+6      	;abs 0xa0e4
    a0e0:	30 40 82 b7 	br	#0xb782	
    a0e4:	0c 4e       	mov	r14,	r12	
    a0e6:	0d 4f       	mov	r15,	r13	
    a0e8:	1c 82 2e 15 	sub	&0x152e,r12	
    a0ec:	1d 72 30 15 	subc	&0x1530,r13	
    a0f0:	14 42 32 15 	mov	&0x1532,r4	
    a0f4:	15 42 34 15 	mov	&0x1534,r5	
    a0f8:	04 8c       	sub	r12,	r4	
    a0fa:	05 7d       	subc	r13,	r5	
    a0fc:	0c 44       	mov	r4,	r12	
    a0fe:	0d 45       	mov	r5,	r13	
    a100:	08 44       	mov	r4,	r8	
    a102:	0b 4d       	mov	r13,	r11	
    a104:	34 93       	cmp	#-1,	r4	;r3 As==11
    a106:	02 24       	jz	$+6      	;abs 0xa10c
    a108:	30 40 68 b7 	br	#0xb768	
    a10c:	3d 90 ff 7f 	cmp	#32767,	r13	;#0x7fff
    a110:	02 24       	jz	$+6      	;abs 0xa116
    a112:	30 40 68 b7 	br	#0xb768	
    a116:	30 40 82 b7 	br	#0xb782	
    a11a:	b0 12 f8 79 	call	#0x79f8	
    a11e:	30 40 82 b7 	br	#0xb782	
    a122:	82 4c d4 17 	mov	r12,	&0x17d4	
    a126:	82 4d d6 17 	mov	r13,	&0x17d6	
    a12a:	d2 43 09 12 	mov.b	#1,	&0x1209	;r3 As==01
    a12e:	0b 42       	mov	r2,	r11	
    a130:	32 c2       	dint			
    a132:	03 43       	nop			
    a134:	82 4e 30 14 	mov	r14,	&0x1430	
    a138:	82 4f 32 14 	mov	r15,	&0x1432	
    a13c:	82 4c 20 14 	mov	r12,	&0x1420	
    a140:	82 4d 22 14 	mov	r13,	&0x1422	
    a144:	b0 12 70 55 	call	#0x5570	
    a148:	30 40 e0 ac 	br	#0xace0	
    a14c:	c2 93 b0 16 	tst.b	&0x16b0	
    a150:	0f 20       	jnz	$+32     	;abs 0xa170
    a152:	c2 93 d8 17 	tst.b	&0x17d8	
    a156:	02 24       	jz	$+6      	;abs 0xa15c
    a158:	30 40 dc b6 	br	#0xb6dc	
    a15c:	d2 43 84 15 	mov.b	#1,	&0x1584	;r3 As==01
    a160:	f2 40 05 00 3f 18 	mov.b	#5,	&0x183f	;#0x0005
    a166:	5f 43       	mov.b	#1,	r15	;r3 As==01
    a168:	b0 12 22 76 	call	#0x7622	
    a16c:	30 40 dc b6 	br	#0xb6dc	
    a170:	4f 43       	clr.b	r15		
    a172:	30 40 de b6 	br	#0xb6de	
    a176:	b0 12 40 63 	call	#0x6340	
    a17a:	3f 90 09 00 	cmp	#9,	r15	;#0x0009
    a17e:	02 24       	jz	$+6      	;abs 0xa184
    a180:	30 40 82 b7 	br	#0xb782	
    a184:	30 40 aa ac 	br	#0xacaa	
    a188:	5f 42 3f 18 	mov.b	&0x183f,r15	
    a18c:	7f 53       	add.b	#-1,	r15	;r3 As==11
    a18e:	c2 4f 3f 18 	mov.b	r15,	&0x183f	
    a192:	02 20       	jnz	$+6      	;abs 0xa198
    a194:	30 40 b8 a8 	br	#0xa8b8	
    a198:	6f 42       	mov.b	#4,	r15	;r2 As==10
    a19a:	2d 3c       	jmp	$+92     	;abs 0xa1f6
    a19c:	0f 42       	mov	r2,	r15	
    a19e:	32 c2       	dint			
    a1a0:	03 43       	nop			
    a1a2:	d2 42 fa 11 09 11 	mov.b	&0x11fa,&0x1109	
    a1a8:	e2 43 36 11 	mov.b	#2,	&0x1136	;r3 As==10
    a1ac:	3f f2       	and	#8,	r15	;r2 As==11
    a1ae:	01 24       	jz	$+4      	;abs 0xa1b2
    a1b0:	32 d2       	eint			
    a1b2:	5f 42 09 11 	mov.b	&0x1109,r15	
    a1b6:	5f 93       	cmp.b	#1,	r15	;r3 As==01
    a1b8:	15 24       	jz	$+44     	;abs 0xa1e4
    a1ba:	0b 28       	jnc	$+24     	;abs 0xa1d2
    a1bc:	7f 90 03 00 	cmp.b	#3,	r15	;#0x0003
    a1c0:	02 20       	jnz	$+6      	;abs 0xa1c6
    a1c2:	30 40 70 a7 	br	#0xa770	
    a1c6:	7f 92       	cmp.b	#8,	r15	;r2 As==11
    a1c8:	02 24       	jz	$+6      	;abs 0xa1ce
    a1ca:	30 40 82 b7 	br	#0xb782	
    a1ce:	30 40 58 a5 	br	#0xa558	
    a1d2:	4f 43       	clr.b	r15		
    a1d4:	b0 12 44 4c 	call	#0x4c44	
    a1d8:	4f 93       	tst.b	r15		
    a1da:	48 20       	jnz	$+146    	;abs 0xa26c
    a1dc:	b0 12 30 68 	call	#0x6830	
    a1e0:	30 40 82 b7 	br	#0xb782	
    a1e4:	5f 43       	mov.b	#1,	r15	;r3 As==01
    a1e6:	b0 12 30 68 	call	#0x6830	
    a1ea:	0f 93       	tst	r15		
    a1ec:	02 20       	jnz	$+6      	;abs 0xa1f2
    a1ee:	30 40 82 b7 	br	#0xb782	
    a1f2:	7f 40 03 00 	mov.b	#3,	r15	;#0x0003
    a1f6:	b0 12 fa 4a 	call	#0x4afa	
    a1fa:	30 40 82 b7 	br	#0xb782	
    a1fe:	82 93 18 18 	tst	&0x1818	
    a202:	02 24       	jz	$+6      	;abs 0xa208
    a204:	30 40 82 b7 	br	#0xb782	
    a208:	c2 93 1a 15 	tst.b	&0x151a	
    a20c:	02 20       	jnz	$+6      	;abs 0xa212
    a20e:	30 40 82 b7 	br	#0xb782	
    a212:	0f 43       	clr	r15		
    a214:	1e 4f 7c 11 	mov	4476(r15),r14	;0x117c(r15)
    a218:	0e 93       	tst	r14		
    a21a:	15 24       	jz	$+44     	;abs 0xa246
    a21c:	5d 4e 08 00 	mov.b	8(r14),	r13	;0x0008(r14)
    a220:	4d 93       	tst.b	r13		
    a222:	11 34       	jge	$+36     	;abs 0xa246
    a224:	82 4e 18 18 	mov	r14,	&0x1818	
    a228:	c2 4d 56 11 	mov.b	r13,	&0x1156	
    a22c:	7f 40 07 00 	mov.b	#7,	r15	;#0x0007
    a230:	b0 12 70 64 	call	#0x6470	
    a234:	0f 93       	tst	r15		
    a236:	02 20       	jnz	$+6      	;abs 0xa23c
    a238:	30 40 82 b7 	br	#0xb782	
    a23c:	82 43 18 18 	mov	#0,	&0x1818	;r3 As==00
    a240:	7f 40 06 00 	mov.b	#6,	r15	;#0x0006
    a244:	d8 3f       	jmp	$-78     	;abs 0xa1f6
    a246:	2f 53       	incd	r15		
    a248:	3f 90 0e 00 	cmp	#14,	r15	;#0x000e
    a24c:	e3 23       	jnz	$-56     	;abs 0xa214
    a24e:	30 40 82 b7 	br	#0xb782	
    a252:	1d 42 2c 14 	mov	&0x142c,r13	
    a256:	1e 42 2e 14 	mov	&0x142e,r14	
    a25a:	4f 43       	clr.b	r15		
    a25c:	b0 12 9c 4d 	call	#0x4d9c	
    a260:	30 40 82 b7 	br	#0xb782	
    a264:	b0 12 1a 92 	call	#0x921a	
    a268:	30 40 82 b7 	br	#0xb782	
    a26c:	b0 12 44 96 	call	#0x9644	
    a270:	30 40 82 b7 	br	#0xb782	
    a274:	5a 42 50 11 	mov.b	&0x1150,r10	
    a278:	4b 4a       	mov.b	r10,	r11	
    a27a:	3b b0 10 00 	bit	#16,	r11	;#0x0010
    a27e:	0e 24       	jz	$+30     	;abs 0xa29c
    a280:	1f 42 06 11 	mov	&0x1106,r15	
    a284:	3f 50 8e 00 	add	#142,	r15	;#0x008e
    a288:	b0 12 b4 45 	call	#0x45b4	
    a28c:	3e 93       	cmp	#-1,	r14	;r3 As==11
    a28e:	06 20       	jnz	$+14     	;abs 0xa29c
    a290:	3f 93       	cmp	#-1,	r15	;r3 As==11
    a292:	04 20       	jnz	$+10     	;abs 0xa29c
    a294:	7a f0 ef ff 	and.b	#-17,	r10	;#0xffef
    a298:	c2 4a 50 11 	mov.b	r10,	&0x1150	
    a29c:	5f 42 50 11 	mov.b	&0x1150,r15	
    a2a0:	7f f0 0c 00 	and.b	#12,	r15	;#0x000c
    a2a4:	6f 92       	cmp.b	#4,	r15	;r2 As==10
    a2a6:	03 20       	jnz	$+8      	;abs 0xa2ae
    a2a8:	4f 43       	clr.b	r15		
    a2aa:	b0 12 88 46 	call	#0x4688	
    a2ae:	f2 f0 bf ff 50 11 	and.b	#-65,	&0x1150	;#0xffbf
    a2b4:	7f 42       	mov.b	#8,	r15	;r2 As==11
    a2b6:	b0 12 22 76 	call	#0x7622	
    a2ba:	5f 42 50 11 	mov.b	&0x1150,r15	
    a2be:	3f b0 10 00 	bit	#16,	r15	;#0x0010
    a2c2:	3a 20       	jnz	$+118    	;abs 0xa338
    a2c4:	7f f0 ef ff 	and.b	#-17,	r15	;#0xffef
    a2c8:	c2 4f 50 11 	mov.b	r15,	&0x1150	
    a2cc:	d2 53 f6 14 	inc.b	&0x14f6	
    a2d0:	5d 42 bd 11 	mov.b	&0x11bd,r13	
    a2d4:	7d 90 0f 00 	cmp.b	#15,	r13	;#0x000f
    a2d8:	02 28       	jnc	$+6      	;abs 0xa2de
    a2da:	7d 40 0e 00 	mov.b	#14,	r13	;#0x000e
    a2de:	3e 40 c0 03 	mov	#960,	r14	;#0x03c0
    a2e2:	0f 43       	clr	r15		
    a2e4:	7d f0 1f 00 	and.b	#31,	r13	;#0x001f
    a2e8:	4d 93       	tst.b	r13		
    a2ea:	04 24       	jz	$+10     	;abs 0xa2f4
    a2ec:	0e 5e       	rla	r14		
    a2ee:	0f 6f       	rlc	r15		
    a2f0:	7d 53       	add.b	#-1,	r13	;r3 As==11
    a2f2:	fa 3f       	jmp	$-10     	;abs 0xa2e8
    a2f4:	82 5e 4a 11 	add	r14,	&0x114a	
    a2f8:	82 6f 4c 11 	addc	r15,	&0x114c	
    a2fc:	3b f0 40 00 	and	#64,	r11	;#0x0040
    a300:	04 24       	jz	$+10     	;abs 0xa30a
    a302:	3f 40 ea 00 	mov	#234,	r15	;#0x00ea
    a306:	b0 12 5e 7e 	call	#0x7e5e	
    a30a:	5f 42 50 11 	mov.b	&0x1150,r15	
    a30e:	4f 93       	tst.b	r15		
    a310:	0e 34       	jge	$+30     	;abs 0xa32e
    a312:	e2 92 f6 14 	cmp.b	#4,	&0x14f6	;r2 As==10
    a316:	0b 28       	jnc	$+24     	;abs 0xa32e
    a318:	7f f0 7f 00 	and.b	#127,	r15	;#0x007f
    a31c:	c2 4f 50 11 	mov.b	r15,	&0x1150	
    a320:	4f 43       	clr.b	r15		
    a322:	b0 12 88 46 	call	#0x4688	
    a326:	3f 40 ea 00 	mov	#234,	r15	;#0x00ea
    a32a:	b0 12 5e 7e 	call	#0x7e5e	
    a32e:	7f 42       	mov.b	#8,	r15	;r2 As==11
    a330:	b0 12 80 52 	call	#0x5280	
    a334:	30 40 82 b7 	br	#0xb782	
    a338:	1b 42 06 11 	mov	&0x1106,r11	
    a33c:	5a 42 d7 13 	mov.b	&0x13d7,r10	
    a340:	69 4b       	mov.b	@r11,	r9	
    a342:	0f 4b       	mov	r11,	r15	
    a344:	3f 50 8e 00 	add	#142,	r15	;#0x008e
    a348:	b0 12 b4 45 	call	#0x45b4	
    a34c:	c2 43 f6 14 	mov.b	#0,	&0x14f6	;r3 As==00
    a350:	5c 4b 1a 00 	mov.b	26(r11),r12	;0x001a(r11)
    a354:	7c f0 07 00 	and.b	#7,	r12	;#0x0007
    a358:	c2 4c 2a 18 	mov.b	r12,	&0x182a	
    a35c:	05 24       	jz	$+12     	;abs 0xa368
    a35e:	4d 4c       	mov.b	r12,	r13	
    a360:	4d 5d       	rla.b	r13		
    a362:	4d 5c       	add.b	r12,	r13	
    a364:	6d 53       	incd.b	r13		
    a366:	01 3c       	jmp	$+4      	;abs 0xa36a
    a368:	5d 43       	mov.b	#1,	r13	;r3 As==01
    a36a:	82 4e 20 18 	mov	r14,	&0x1820	
    a36e:	82 4f 22 18 	mov	r15,	&0x1822	
    a372:	5f 4b 19 00 	mov.b	25(r11),r15	;0x0019(r11)
    a376:	7f f0 0f 00 	and.b	#15,	r15	;#0x000f
    a37a:	5f 53       	inc.b	r15		
    a37c:	c2 4f c0 17 	mov.b	r15,	&0x17c0	
    a380:	5f 4b 18 00 	mov.b	24(r11),r15	;0x0018(r11)
    a384:	12 c3       	clrc			
    a386:	4f 10       	rrc.b	r15		
    a388:	12 c3       	clrc			
    a38a:	4f 10       	rrc.b	r15		
    a38c:	12 c3       	clrc			
    a38e:	4f 10       	rrc.b	r15		
    a390:	12 c3       	clrc			
    a392:	4f 10       	rrc.b	r15		
    a394:	b2 40 3c 00 fc 11 	mov	#60,	&0x11fc	;#0x003c
    a39a:	82 43 fe 11 	mov	#0,	&0x11fe	;r3 As==00
    a39e:	7f f0 1f 00 	and.b	#31,	r15	;#0x001f
    a3a2:	4f 93       	tst.b	r15		
    a3a4:	08 24       	jz	$+18     	;abs 0xa3b6
    a3a6:	92 52 fc 11 fc 11 	rla	&0x11fc	
    a3ac:	92 62 fe 11 fe 11 	rlc	&0x11fe	
    a3b2:	7f 53       	add.b	#-1,	r15	;r3 As==11
    a3b4:	f6 3f       	jmp	$-18     	;abs 0xa3a2
    a3b6:	3d f0 3f 00 	and	#63,	r13	;#0x003f
    a3ba:	0e 4b       	mov	r11,	r14	
    a3bc:	3e 50 1a 00 	add	#26,	r14	;#0x001a
    a3c0:	3f 40 72 16 	mov	#5746,	r15	;#0x1672
    a3c4:	b0 12 74 bc 	call	#0xbc74	
    a3c8:	5f 4b 19 00 	mov.b	25(r11),r15	;0x0019(r11)
    a3cc:	3f f0 10 00 	and	#16,	r15	;#0x0010
    a3d0:	1c 24       	jz	$+58     	;abs 0xa40a
    a3d2:	4e 49       	mov.b	r9,	r14	
    a3d4:	7e f0 7f 00 	and.b	#127,	r14	;#0x007f
    a3d8:	4f 4e       	mov.b	r14,	r15	
    a3da:	3f 50 05 00 	add	#5,	r15	;#0x0005
    a3de:	0f 5f       	rla	r15		
    a3e0:	7e 90 13 00 	cmp.b	#19,	r14	;#0x0013
    a3e4:	03 28       	jnc	$+8      	;abs 0xa3ec
    a3e6:	3f 50 28 00 	add	#40,	r15	;#0x0028
    a3ea:	02 3c       	jmp	$+6      	;abs 0xa3f0
    a3ec:	3f 50 0c 00 	add	#12,	r15	;#0x000c
    a3f0:	82 4f ca 17 	mov	r15,	&0x17ca	
    a3f4:	5f 42 e3 13 	mov.b	&0x13e3,r15	
    a3f8:	0f 5f       	rla	r15		
    a3fa:	0f 5f       	rla	r15		
    a3fc:	0e 4f       	mov	r15,	r14	
    a3fe:	0e 5e       	rla	r14		
    a400:	0e 5e       	rla	r14		
    a402:	0f 5e       	add	r14,	r15	
    a404:	82 5f ca 17 	add	r15,	&0x17ca	
    a408:	02 3c       	jmp	$+6      	;abs 0xa40e
    a40a:	82 43 ca 17 	mov	#0,	&0x17ca	;r3 As==00
    a40e:	5e 4b 01 00 	mov.b	1(r11),	r14	;0x0001(r11)
    a412:	3e f0 10 00 	and	#16,	r14	;#0x0010
    a416:	5f 43       	mov.b	#1,	r15	;r3 As==01
    a418:	01 20       	jnz	$+4      	;abs 0xa41c
    a41a:	4f 43       	clr.b	r15		
    a41c:	c2 4f 0d 18 	mov.b	r15,	&0x180d	
    a420:	5f 4b 18 00 	mov.b	24(r11),r15	;0x0018(r11)
    a424:	7f f0 0f 00 	and.b	#15,	r15	;#0x000f
    a428:	c2 4f bd 11 	mov.b	r15,	&0x11bd	
    a42c:	7f 90 0f 00 	cmp.b	#15,	r15	;#0x000f
    a430:	02 20       	jnz	$+6      	;abs 0xa436
    a432:	7f 40 0e 00 	mov.b	#14,	r15	;#0x000e
    a436:	b2 40 c0 03 4a 11 	mov	#960,	&0x114a	;#0x03c0
    a43c:	82 43 4c 11 	mov	#0,	&0x114c	;r3 As==00
    a440:	7f f0 1f 00 	and.b	#31,	r15	;#0x001f
    a444:	4f 93       	tst.b	r15		
    a446:	08 24       	jz	$+18     	;abs 0xa458
    a448:	92 52 4a 11 4a 11 	rla	&0x114a	
    a44e:	92 62 4c 11 4c 11 	rlc	&0x114c	
    a454:	7f 53       	add.b	#-1,	r15	;r3 As==11
    a456:	f6 3f       	jmp	$-18     	;abs 0xa444
    a458:	7e 40 09 00 	mov.b	#9,	r14	;#0x0009
    a45c:	7f 42       	mov.b	#8,	r15	;r2 As==11
    a45e:	b0 12 d2 71 	call	#0x71d2	
    a462:	4a 93       	tst.b	r10		
    a464:	74 24       	jz	$+234    	;abs 0xa54e
    a466:	17 42 06 11 	mov	&0x1106,r7	
    a46a:	5d 47 1a 00 	mov.b	26(r7),	r13	;0x001a(r7)
    a46e:	7d f0 07 00 	and.b	#7,	r13	;#0x0007
    a472:	05 24       	jz	$+12     	;abs 0xa47e
    a474:	4f 4d       	mov.b	r13,	r15	
    a476:	4f 5f       	rla.b	r15		
    a478:	4f 5d       	add.b	r13,	r15	
    a47a:	6f 52       	add.b	#4,	r15	;r2 As==10
    a47c:	02 3c       	jmp	$+6      	;abs 0xa482
    a47e:	7f 40 03 00 	mov.b	#3,	r15	;#0x0003
    a482:	4d 4f       	mov.b	r15,	r13	
    a484:	0f 47       	mov	r7,	r15	
    a486:	0f 5d       	add	r13,	r15	
    a488:	5a 4f 18 00 	mov.b	24(r15),r10	;0x0018(r15)
    a48c:	19 42 f2 13 	mov	&0x13f2,r9	
    a490:	5f 47 01 00 	mov.b	1(r7),	r15	;0x0001(r7)
    a494:	3f f0 07 00 	and	#7,	r15	;#0x0007
    a498:	5a 20       	jnz	$+182    	;abs 0xa54e
    a49a:	4c 43       	clr.b	r12		
    a49c:	48 4a       	mov.b	r10,	r8	
    a49e:	05 48       	mov	r8,	r5	
    a4a0:	35 f0 07 00 	and	#7,	r5	;#0x0007
    a4a4:	06 4d       	mov	r13,	r6	
    a4a6:	16 53       	inc	r6		
    a4a8:	0f 3c       	jmp	$+32     	;abs 0xa4c8
    a4aa:	0f 5f       	rla	r15		
    a4ac:	0f 56       	add	r6,	r15	
    a4ae:	3f 50 18 00 	add	#24,	r15	;#0x0018
    a4b2:	0f 57       	add	r7,	r15	
    a4b4:	5e 4f 01 00 	mov.b	1(r15),	r14	;0x0001(r15)
    a4b8:	8e 10       	swpb	r14		
    a4ba:	6f 4f       	mov.b	@r15,	r15	
    a4bc:	0e df       	bis	r15,	r14	
    a4be:	0e 99       	cmp	r9,	r14	
    a4c0:	02 20       	jnz	$+6      	;abs 0xa4c6
    a4c2:	30 40 e4 b6 	br	#0xb6e4	
    a4c6:	5c 53       	inc.b	r12		
    a4c8:	4f 4c       	mov.b	r12,	r15	
    a4ca:	0f 95       	cmp	r5,	r15	
    a4cc:	ee 3b       	jl	$-34     	;abs 0xa4aa
    a4ce:	38 f0 70 00 	and	#112,	r8	;#0x0070
    a4d2:	08 11       	rra	r8		
    a4d4:	08 11       	rra	r8		
    a4d6:	08 11       	rra	r8		
    a4d8:	08 11       	rra	r8		
    a4da:	46 43       	clr.b	r6		
    a4dc:	05 4d       	mov	r13,	r5	
    a4de:	15 53       	inc	r5		
    a4e0:	3a f0 07 00 	and	#7,	r10	;#0x0007
    a4e4:	20 3c       	jmp	$+66     	;abs 0xa526
    a4e6:	0e 5e       	rla	r14		
    a4e8:	0e 5e       	rla	r14		
    a4ea:	0e 5a       	add	r10,	r14	
    a4ec:	0e 5e       	rla	r14		
    a4ee:	0e 55       	add	r5,	r14	
    a4f0:	3e 50 18 00 	add	#24,	r14	;#0x0018
    a4f4:	0e 57       	add	r7,	r14	
    a4f6:	0f 41       	mov	r1,	r15	
    a4f8:	3f 50 28 00 	add	#40,	r15	;#0x0028
    a4fc:	b0 12 aa 47 	call	#0x47aa	
    a500:	91 92 24 15 28 00 	cmp	&0x1524,40(r1)	;0x0028(r1)
    a506:	0e 20       	jnz	$+30     	;abs 0xa524
    a508:	91 92 26 15 2a 00 	cmp	&0x1526,42(r1)	;0x002a(r1)
    a50e:	0a 20       	jnz	$+22     	;abs 0xa524
    a510:	91 92 28 15 2c 00 	cmp	&0x1528,44(r1)	;0x002c(r1)
    a516:	06 20       	jnz	$+14     	;abs 0xa524
    a518:	91 92 2a 15 2e 00 	cmp	&0x152a,46(r1)	;0x002e(r1)
    a51e:	02 20       	jnz	$+6      	;abs 0xa524
    a520:	30 40 e8 b6 	br	#0xb6e8	
    a524:	56 53       	inc.b	r6		
    a526:	4e 46       	mov.b	r6,	r14	
    a528:	0e 98       	cmp	r8,	r14	
    a52a:	dd 3b       	jl	$-68     	;abs 0xa4e6
    a52c:	10 3c       	jmp	$+34     	;abs 0xa54e
    a52e:	7e 40 03 00 	mov.b	#3,	r14	;#0x0003
    a532:	5f 4b 05 00 	mov.b	5(r11),	r15	;0x0005(r11)
    a536:	8f 10       	swpb	r15		
    a538:	5d 4b 04 00 	mov.b	4(r11),	r13	;0x0004(r11)
    a53c:	4c 12       	push.b	r12		
    a53e:	0c 4b       	mov	r11,	r12	
    a540:	3c 50 06 00 	add	#6,	r12	;#0x0006
    a544:	0d df       	bis	r15,	r13	
    a546:	4f 43       	clr.b	r15		
    a548:	b0 12 78 7b 	call	#0x7b78	
    a54c:	21 53       	incd	r1		
    a54e:	f2 f0 ef ff 50 11 	and.b	#-17,	&0x1150	;#0xffef
    a554:	30 40 82 b7 	br	#0xb782	
    a558:	b0 12 ba 7f 	call	#0x7fba	
    a55c:	30 40 82 b7 	br	#0xb782	
    a560:	d2 b3 b9 16 	bit.b	#1,	&0x16b9	;r3 As==01
    a564:	02 24       	jz	$+6      	;abs 0xa56a
    a566:	30 40 82 b7 	br	#0xb782	
    a56a:	c2 93 26 11 	tst.b	&0x1126	
    a56e:	02 20       	jnz	$+6      	;abs 0xa574
    a570:	30 40 82 b7 	br	#0xb782	
    a574:	5f 42 2a 11 	mov.b	&0x112a,r15	
    a578:	0f 5f       	rla	r15		
    a57a:	1b 4f 96 17 	mov	6038(r15),r11	;0x1796(r15)
    a57e:	cb 93 06 00 	tst.b	6(r11)		;0x0006(r11)
    a582:	09 20       	jnz	$+20     	;abs 0xa596
    a584:	b0 12 a4 5f 	call	#0x5fa4	
    a588:	0f 4b       	mov	r11,	r15	
    a58a:	b0 12 26 5f 	call	#0x5f26	
    a58e:	7f 40 0c 00 	mov.b	#12,	r15	;#0x000c
    a592:	b0 12 fa 4a 	call	#0x4afa	
    a596:	d2 4b 08 00 06 15 	mov.b	8(r11),	&0x1506	;0x0008(r11)
    a59c:	5f 42 b9 16 	mov.b	&0x16b9,r15	
    a5a0:	5f d3       	bis.b	#1,	r15	;r3 As==01
    a5a2:	c2 4f b9 16 	mov.b	r15,	&0x16b9	
    a5a6:	82 93 f8 14 	tst	&0x14f8	
    a5aa:	74 20       	jnz	$+234    	;abs 0xa694
    a5ac:	5f 42 e7 13 	mov.b	&0x13e7,r15	
    a5b0:	2e 4b       	mov	@r11,	r14	
    a5b2:	ce 4f 03 00 	mov.b	r15,	3(r14)	;0x0003(r14)
    a5b6:	5f 53       	inc.b	r15		
    a5b8:	c2 4f e7 13 	mov.b	r15,	&0x13e7	
    a5bc:	3e 40 e7 13 	mov	#5095,	r14	;#0x13e7
    a5c0:	7f 40 4c 00 	mov.b	#76,	r15	;#0x004c
    a5c4:	b0 12 70 79 	call	#0x7970	
    a5c8:	c2 43 eb 14 	mov.b	#0,	&0x14eb	;r3 As==00
    a5cc:	5f 42 e8 13 	mov.b	&0x13e8,r15	
    a5d0:	c2 4f ff 17 	mov.b	r15,	&0x17ff	
    a5d4:	c2 4f ea 14 	mov.b	r15,	&0x14ea	
    a5d8:	5f 42 eb 13 	mov.b	&0x13eb,r15	
    a5dc:	c2 4f 85 15 	mov.b	r15,	&0x1585	
    a5e0:	c2 4f e9 14 	mov.b	r15,	&0x14e9	
    a5e4:	5f 42 e9 13 	mov.b	&0x13e9,r15	
    a5e8:	c2 4f e8 14 	mov.b	r15,	&0x14e8	
    a5ec:	c2 93 d8 13 	tst.b	&0x13d8	
    a5f0:	05 24       	jz	$+12     	;abs 0xa5fc
    a5f2:	7f 90 03 00 	cmp.b	#3,	r15	;#0x0003
    a5f6:	02 28       	jnc	$+6      	;abs 0xa5fc
    a5f8:	e2 43 e8 14 	mov.b	#2,	&0x14e8	;r3 As==10
    a5fc:	d2 42 e8 14 29 14 	mov.b	&0x14e8,&0x1429	
    a602:	d2 42 ec 13 2c 18 	mov.b	&0x13ec,&0x182c	
    a608:	5d 4b 06 00 	mov.b	6(r11),	r13	;0x0006(r11)
    a60c:	5f 4b 07 00 	mov.b	7(r11),	r15	;0x0007(r11)
    a610:	0d 5f       	add	r15,	r13	
    a612:	3d 50 07 00 	add	#7,	r13	;#0x0007
    a616:	0d 5d       	rla	r13		
    a618:	0e 4d       	mov	r13,	r14	
    a61a:	8d 10       	swpb	r13		
    a61c:	8d 11       	sxt	r13		
    a61e:	8d 10       	swpb	r13		
    a620:	8d 11       	sxt	r13		
    a622:	0f 4d       	mov	r13,	r15	
    a624:	82 4e 6c 16 	mov	r14,	&0x166c	
    a628:	82 4f 6e 16 	mov	r15,	&0x166e	
    a62c:	2d 4b       	mov	@r11,	r13	
    a62e:	5d 4d 01 00 	mov.b	1(r13),	r13	;0x0001(r13)
    a632:	3d f0 20 00 	and	#32,	r13	;#0x0020
    a636:	09 24       	jz	$+20     	;abs 0xa64a
    a638:	0c 4e       	mov	r14,	r12	
    a63a:	0d 4f       	mov	r15,	r13	
    a63c:	3c 50 36 00 	add	#54,	r12	;#0x0036
    a640:	0d 63       	adc	r13		
    a642:	82 4c 6c 16 	mov	r12,	&0x166c	
    a646:	82 4d 6e 16 	mov	r13,	&0x166e	
    a64a:	92 42 f6 13 94 11 	mov	&0x13f6,&0x1194	
    a650:	92 42 f8 13 96 11 	mov	&0x13f8,&0x1196	
    a656:	82 4b f8 14 	mov	r11,	&0x14f8	
    a65a:	5f 42 50 11 	mov.b	&0x1150,r15	
    a65e:	4e 4f       	mov.b	r15,	r14	
    a660:	7e f0 0c 00 	and.b	#12,	r14	;#0x000c
    a664:	7e 92       	cmp.b	#8,	r14	;r2 As==11
    a666:	2b 24       	jz	$+88     	;abs 0xa6be
    a668:	7f d0 40 00 	bis.b	#64,	r15	;#0x0040
    a66c:	c2 4f 50 11 	mov.b	r15,	&0x1150	
    a670:	7f 42       	mov.b	#8,	r15	;r2 As==11
    a672:	b0 12 22 76 	call	#0x7622	
    a676:	5f 42 50 11 	mov.b	&0x1150,r15	
    a67a:	3f b0 20 00 	bit	#32,	r15	;#0x0020
    a67e:	1f 20       	jnz	$+64     	;abs 0xa6be
    a680:	d2 42 df 13 c8 17 	mov.b	&0x13df,&0x17c8	
    a686:	c2 43 be 11 	mov.b	#0,	&0x11be	;r3 As==00
    a68a:	7f d0 20 00 	bis.b	#32,	r15	;#0x0020
    a68e:	c2 4f 50 11 	mov.b	r15,	&0x1150	
    a692:	15 3c       	jmp	$+44     	;abs 0xa6be
    a694:	7f f0 fe ff 	and.b	#-2,	r15	;#0xfffe
    a698:	c2 4f b9 16 	mov.b	r15,	&0x16b9	
    a69c:	30 40 82 b7 	br	#0xb782	
    a6a0:	1f 42 08 15 	mov	&0x1508,r15	
    a6a4:	1e 42 16 18 	mov	&0x1816,r14	
    a6a8:	c2 43 30 11 	mov.b	#0,	&0x1130	;r3 As==00
    a6ac:	82 43 08 15 	mov	#0,	&0x1508	;r3 As==00
    a6b0:	0f 93       	tst	r15		
    a6b2:	05 24       	jz	$+12     	;abs 0xa6be
    a6b4:	b0 12 0c 7e 	call	#0x7e0c	
    a6b8:	02 3c       	jmp	$+6      	;abs 0xa6be
    a6ba:	c2 43 2b 18 	mov.b	#0,	&0x182b	;r3 As==00
    a6be:	b0 12 f0 73 	call	#0x73f0	
    a6c2:	30 40 82 b7 	br	#0xb782	
    a6c6:	1f 42 46 15 	mov	&0x1546,r15	
    a6ca:	d2 4f 03 00 e6 13 	mov.b	3(r15),	&0x13e6	;0x0003(r15)
    a6d0:	3e 40 e6 13 	mov	#5094,	r14	;#0x13e6
    a6d4:	7f 40 49 00 	mov.b	#73,	r15	;#0x0049
    a6d8:	b0 12 70 79 	call	#0x7970	
    a6dc:	1f 42 46 15 	mov	&0x1546,r15	
    a6e0:	df 53 03 00 	inc.b	3(r15)		;0x0003(r15)
    a6e4:	92 42 12 15 fa 13 	mov	&0x1512,&0x13fa	
    a6ea:	92 42 14 15 fc 13 	mov	&0x1514,&0x13fc	
    a6f0:	3e 40 fa 13 	mov	#5114,	r14	;#0x13fa
    a6f4:	7f 40 48 00 	mov.b	#72,	r15	;#0x0048
    a6f8:	b0 12 70 79 	call	#0x7970	
    a6fc:	1e 42 ee 14 	mov	&0x14ee,r14	
    a700:	1f 42 f0 14 	mov	&0x14f0,r15	
    a704:	0f 93       	tst	r15		
    a706:	03 20       	jnz	$+8      	;abs 0xa70e
    a708:	3e 90 c5 09 	cmp	#2501,	r14	;#0x09c5
    a70c:	04 28       	jnc	$+10     	;abs 0xa716
    a70e:	3e 50 3c f6 	add	#-2500,	r14	;#0xf63c
    a712:	3f 63       	addc	#-1,	r15	;r3 As==11
    a714:	02 3c       	jmp	$+6      	;abs 0xa71a
    a716:	0e 43       	clr	r14		
    a718:	0f 43       	clr	r15		
    a71a:	92 42 12 15 5a 15 	mov	&0x1512,&0x155a	
    a720:	92 42 14 15 5c 15 	mov	&0x1514,&0x155c	
    a726:	82 4e 5e 15 	mov	r14,	&0x155e	
    a72a:	82 4f 60 15 	mov	r15,	&0x1560	
    a72e:	f2 d0 03 00 62 15 	bis.b	#3,	&0x1562	;#0x0003
    a734:	7f 40 26 00 	mov.b	#38,	r15	;#0x0026
    a738:	b0 12 fa 4a 	call	#0x4afa	
    a73c:	5f 42 8a 11 	mov.b	&0x118a,r15	
    a740:	2f b2       	bit	#4,	r15	;r2 As==10
    a742:	07 24       	jz	$+16     	;abs 0xa752
    a744:	7f f0 fb ff 	and.b	#-5,	r15	;#0xfffb
    a748:	c2 4f 8a 11 	mov.b	r15,	&0x118a	
    a74c:	0f 43       	clr	r15		
    a74e:	b0 12 5a 77 	call	#0x775a	
    a752:	c2 43 38 18 	mov.b	#0,	&0x1838	;r3 As==00
    a756:	0f 42       	mov	r2,	r15	
    a758:	32 c2       	dint			
    a75a:	03 43       	nop			
    a75c:	f2 e0 40 00 31 00 	xor.b	#64,	&0x0031	;#0x0040
    a762:	30 40 e2 ac 	br	#0xace2	
    a766:	0f 43       	clr	r15		
    a768:	b0 12 5a 77 	call	#0x775a	
    a76c:	30 40 82 b7 	br	#0xb782	
    a770:	b0 12 d8 83 	call	#0x83d8	
    a774:	30 40 82 b7 	br	#0xb782	
    a778:	d2 b3 fb 17 	bit.b	#1,	&0x17fb	;r3 As==01
    a77c:	02 24       	jz	$+6      	;abs 0xa782
    a77e:	30 40 82 b7 	br	#0xb782	
    a782:	c2 93 20 11 	tst.b	&0x1120	
    a786:	02 20       	jnz	$+6      	;abs 0xa78c
    a788:	30 40 82 b7 	br	#0xb782	
    a78c:	5f 42 24 11 	mov.b	&0x1124,r15	
    a790:	0f 5f       	rla	r15		
    a792:	1b 4f 62 17 	mov	5986(r15),r11	;0x1762(r15)
    a796:	cb 93 06 00 	tst.b	6(r11)		;0x0006(r11)
    a79a:	06 20       	jnz	$+14     	;abs 0xa7a8
    a79c:	b0 12 ce 5f 	call	#0x5fce	
    a7a0:	7f 40 13 00 	mov.b	#19,	r15	;#0x0013
    a7a4:	b0 12 fa 4a 	call	#0x4afa	
    a7a8:	d2 4b 08 00 ad 12 	mov.b	8(r11),	&0x12ad	;0x0008(r11)
    a7ae:	5f 42 fb 17 	mov.b	&0x17fb,r15	
    a7b2:	5f d3       	bis.b	#1,	r15	;r3 As==01
    a7b4:	c2 4f fb 17 	mov.b	r15,	&0x17fb	
    a7b8:	82 93 1a 18 	tst	&0x181a	
    a7bc:	04 20       	jnz	$+10     	;abs 0xa7c6
    a7be:	0f 4b       	mov	r11,	r15	
    a7c0:	b0 12 28 80 	call	#0x8028	
    a7c4:	45 3c       	jmp	$+140    	;abs 0xa850
    a7c6:	7f f0 fe ff 	and.b	#-2,	r15	;#0xfffe
    a7ca:	c2 4f fb 17 	mov.b	r15,	&0x17fb	
    a7ce:	30 40 82 b7 	br	#0xb782	
    a7d2:	1f 42 54 17 	mov	&0x1754,r15	
    a7d6:	1e 42 4e 11 	mov	&0x114e,r14	
    a7da:	c2 43 2e 11 	mov.b	#0,	&0x112e	;r3 As==00
    a7de:	82 43 54 17 	mov	#0,	&0x1754	;r3 As==00
    a7e2:	0f 93       	tst	r15		
    a7e4:	35 24       	jz	$+108    	;abs 0xa850
    a7e6:	b0 12 0e 85 	call	#0x850e	
    a7ea:	32 3c       	jmp	$+102    	;abs 0xa850
    a7ec:	1b 42 1a 18 	mov	&0x181a,r11	
    a7f0:	1a 42 b4 12 	mov	&0x12b4,r10	
    a7f4:	0a 93       	tst	r10		
    a7f6:	2a 24       	jz	$+86     	;abs 0xa84c
    a7f8:	18 42 3a 18 	mov	&0x183a,r8	
    a7fc:	19 42 3c 18 	mov	&0x183c,r9	
    a800:	91 42 04 12 36 00 	mov	&0x1204,54(r1)	;0x0036(r1)
    a806:	91 42 06 12 38 00 	mov	&0x1206,56(r1)	;0x0038(r1)
    a80c:	3d 40 0a 00 	mov	#10,	r13	;#0x000a
    a810:	0e 41       	mov	r1,	r14	
    a812:	3e 50 30 00 	add	#48,	r14	;#0x0030
    a816:	3f 40 36 14 	mov	#5174,	r15	;#0x1436
    a81a:	b0 12 74 bc 	call	#0xbc74	
    a81e:	82 48 36 14 	mov	r8,	&0x1436	
    a822:	82 49 38 14 	mov	r9,	&0x1438	
    a826:	82 4b 3a 14 	mov	r11,	&0x143a	
    a82a:	0f 4a       	mov	r10,	r15	
    a82c:	b0 12 28 80 	call	#0x8028	
    a830:	0b 93       	tst	r11		
    a832:	0c 24       	jz	$+26     	;abs 0xa84c
    a834:	1f 42 b4 12 	mov	&0x12b4,r15	
    a838:	2f 4f       	mov	@r15,	r15	
    a83a:	5e 4f 03 00 	mov.b	3(r15),	r14	;0x0003(r15)
    a83e:	2d 4b       	mov	@r11,	r13	
    a840:	df 4d 03 00 03 00 	mov.b	3(r13),	3(r15)	;0x0003(r13), 0x0003(r15)
    a846:	2f 4b       	mov	@r11,	r15	
    a848:	cf 4e 03 00 	mov.b	r14,	3(r15)	;0x0003(r15)
    a84c:	c2 43 44 14 	mov.b	#0,	&0x1444	;r3 As==00
    a850:	b0 12 4a 70 	call	#0x704a	
    a854:	30 40 82 b7 	br	#0xb782	
    a858:	c2 93 ac 12 	tst.b	&0x12ac	
    a85c:	02 20       	jnz	$+6      	;abs 0xa862
    a85e:	30 40 82 b7 	br	#0xb782	
    a862:	c2 93 51 11 	tst.b	&0x1151	
    a866:	02 20       	jnz	$+6      	;abs 0xa86c
    a868:	30 40 82 b7 	br	#0xb782	
    a86c:	c2 43 51 11 	mov.b	#0,	&0x1151	;r3 As==00
    a870:	30 40 82 b7 	br	#0xb782	
    a874:	b0 12 22 65 	call	#0x6522	
    a878:	4f 93       	tst.b	r15		
    a87a:	06 20       	jnz	$+14     	;abs 0xa888
    a87c:	b0 12 40 63 	call	#0x6340	
    a880:	0f 93       	tst	r15		
    a882:	02 20       	jnz	$+6      	;abs 0xa888
    a884:	30 40 82 b7 	br	#0xb782	
    a888:	b0 12 9c 77 	call	#0x779c	
    a88c:	30 40 82 b7 	br	#0xb782	
    a890:	5f 42 50 11 	mov.b	&0x1150,r15	
    a894:	7f f0 0c 00 	and.b	#12,	r15	;#0x000c
    a898:	7f 92       	cmp.b	#8,	r15	;r2 As==11
    a89a:	0a 24       	jz	$+22     	;abs 0xa8b0
    a89c:	b0 12 f4 64 	call	#0x64f4	
    a8a0:	4f 93       	tst.b	r15		
    a8a2:	06 20       	jnz	$+14     	;abs 0xa8b0
    a8a4:	b0 12 40 63 	call	#0x6340	
    a8a8:	0f 93       	tst	r15		
    a8aa:	02 20       	jnz	$+6      	;abs 0xa8b0
    a8ac:	30 40 82 b7 	br	#0xb782	
    a8b0:	b0 12 e4 73 	call	#0x73e4	
    a8b4:	30 40 82 b7 	br	#0xb782	
    a8b8:	b0 12 82 63 	call	#0x6382	
    a8bc:	30 40 82 b7 	br	#0xb782	
    a8c0:	c2 93 1b 15 	tst.b	&0x151b	
    a8c4:	02 20       	jnz	$+6      	;abs 0xa8ca
    a8c6:	30 40 82 b7 	br	#0xb782	
    a8ca:	1f 42 7a 11 	mov	&0x117a,r15	
    a8ce:	1f 92 18 14 	cmp	&0x1418,r15	
    a8d2:	14 20       	jnz	$+42     	;abs 0xa8fc
    a8d4:	82 43 18 14 	mov	#0,	&0x1418	;r3 As==00
    a8d8:	1b 42 56 17 	mov	&0x1756,r11	
    a8dc:	b0 12 50 5f 	call	#0x5f50	
    a8e0:	0b 93       	tst	r11		
    a8e2:	06 20       	jnz	$+14     	;abs 0xa8f0
    a8e4:	b0 12 ea 80 	call	#0x80ea	
    a8e8:	f2 f0 f7 ff 8a 11 	and.b	#-9,	&0x118a	;#0xfff7
    a8ee:	1e 3c       	jmp	$+62     	;abs 0xa92c
    a8f0:	c2 43 8a 11 	mov.b	#0,	&0x118a	;r3 As==00
    a8f4:	0f 4b       	mov	r11,	r15	
    a8f6:	b0 12 5a 77 	call	#0x775a	
    a8fa:	18 3c       	jmp	$+50     	;abs 0xa92c
    a8fc:	1f 92 54 11 	cmp	&0x1154,r15	
    a900:	15 20       	jnz	$+44     	;abs 0xa92c
    a902:	c2 93 1a 11 	tst.b	&0x111a	
    a906:	02 24       	jz	$+6      	;abs 0xa90c
    a908:	b0 12 f8 5f 	call	#0x5ff8	
    a90c:	c2 93 1a 11 	tst.b	&0x111a	
    a910:	03 20       	jnz	$+8      	;abs 0xa918
    a912:	82 43 54 11 	mov	#0,	&0x1154	;r3 As==00
    a916:	06 3c       	jmp	$+14     	;abs 0xa924
    a918:	5f 42 1e 11 	mov.b	&0x111e,r15	
    a91c:	0f 5f       	rla	r15		
    a91e:	92 4f de 14 54 11 	mov	5342(r15),&0x1154	;0x14de(r15)
    a924:	1f 42 7a 11 	mov	&0x117a,r15	
    a928:	b0 12 26 5f 	call	#0x5f26	
    a92c:	c2 43 1b 15 	mov.b	#0,	&0x151b	;r3 As==00
    a930:	30 40 82 b7 	br	#0xb782	
    a934:	0f 41       	mov	r1,	r15	
    a936:	3f 50 28 00 	add	#40,	r15	;#0x0028
    a93a:	b0 12 f0 5b 	call	#0x5bf0	
    a93e:	0f 93       	tst	r15		
    a940:	07 20       	jnz	$+16     	;abs 0xa950
    a942:	5f 41 28 00 	mov.b	40(r1),	r15	;0x0028(r1)
    a946:	c2 9f d4 13 	cmp.b	r15,	&0x13d4	
    a94a:	02 34       	jge	$+6      	;abs 0xa950
    a94c:	c2 4f d4 13 	mov.b	r15,	&0x13d4	
    a950:	1c 42 c6 11 	mov	&0x11c6,r12	
    a954:	1d 42 c8 11 	mov	&0x11c8,r13	
    a958:	1e 42 c4 17 	mov	&0x17c4,r14	
    a95c:	1f 42 c6 17 	mov	&0x17c6,r15	
    a960:	b0 12 58 4d 	call	#0x4d58	
    a964:	4f 93       	tst.b	r15		
    a966:	02 20       	jnz	$+6      	;abs 0xa96c
    a968:	30 40 96 ab 	br	#0xab96	
    a96c:	f2 50 d3 ff d4 13 	add.b	#-45,	&0x13d4	;#0xffd3
    a972:	b0 12 5c 4b 	call	#0x4b5c	
    a976:	b0 12 9c 4b 	call	#0x4b9c	
    a97a:	b0 12 34 62 	call	#0x6234	
    a97e:	a2 42 18 11 	mov	#4,	&0x1118	;r2 As==10
    a982:	5d 42 d4 13 	mov.b	&0x13d4,r13	
    a986:	c2 93 70 11 	tst.b	&0x1170	
    a98a:	0a 24       	jz	$+22     	;abs 0xa9a0
    a98c:	5e 42 b8 16 	mov.b	&0x16b8,r14	
    a990:	4f 4e       	mov.b	r14,	r15	
    a992:	1f 52 10 18 	add	&0x1810,r15	
    a996:	cf 4d 00 00 	mov.b	r13,	0(r15)	;0x0000(r15)
    a99a:	5e 53       	inc.b	r14		
    a99c:	c2 4e b8 16 	mov.b	r14,	&0x16b8	
    a9a0:	d2 92 70 11 b8 16 	cmp.b	&0x1170,&0x16b8	
    a9a6:	02 20       	jnz	$+6      	;abs 0xa9ac
    a9a8:	d2 43 c1 17 	mov.b	#1,	&0x17c1	;r3 As==01
    a9ac:	4f 43       	clr.b	r15		
    a9ae:	b0 12 30 68 	call	#0x6830	
    a9b2:	3f 90 09 00 	cmp	#9,	r15	;#0x0009
    a9b6:	02 24       	jz	$+6      	;abs 0xa9bc
    a9b8:	30 40 82 b7 	br	#0xb782	
    a9bc:	b0 12 be 64 	call	#0x64be	
    a9c0:	30 40 82 b7 	br	#0xb782	
    a9c4:	0e 42       	mov	r2,	r14	
    a9c6:	32 c2       	dint			
    a9c8:	03 43       	nop			
    a9ca:	5f 42 6b 17 	mov.b	&0x176b,r15	
    a9ce:	3e f2       	and	#8,	r14	;r2 As==11
    a9d0:	01 24       	jz	$+4      	;abs 0xa9d4
    a9d2:	32 d2       	eint			
    a9d4:	b0 12 0a 57 	call	#0x570a	
    a9d8:	b0 12 80 5e 	call	#0x5e80	
    a9dc:	b0 12 34 62 	call	#0x6234	
    a9e0:	a2 42 18 11 	mov	#4,	&0x1118	;r2 As==10
    a9e4:	7f 40 0b 00 	mov.b	#11,	r15	;#0x000b
    a9e8:	b0 12 d2 51 	call	#0x51d2	
    a9ec:	4f 93       	tst.b	r15		
    a9ee:	02 24       	jz	$+6      	;abs 0xa9f4
    a9f0:	b0 12 9c 77 	call	#0x779c	
    a9f4:	7f 40 07 00 	mov.b	#7,	r15	;#0x0007
    a9f8:	b0 12 d2 51 	call	#0x51d2	
    a9fc:	4f 93       	tst.b	r15		
    a9fe:	02 24       	jz	$+6      	;abs 0xaa04
    aa00:	b0 12 e4 73 	call	#0x73e4	
    aa04:	5f 43       	mov.b	#1,	r15	;r3 As==01
    aa06:	b0 12 d2 51 	call	#0x51d2	
    aa0a:	4f 93       	tst.b	r15		
    aa0c:	02 20       	jnz	$+6      	;abs 0xaa12
    aa0e:	30 40 82 b7 	br	#0xb782	
    aa12:	c2 93 84 15 	tst.b	&0x1584	
    aa16:	02 24       	jz	$+6      	;abs 0xaa1c
    aa18:	b0 12 40 54 	call	#0x5440	
    aa1c:	3e 40 df 13 	mov	#5087,	r14	;#0x13df
    aa20:	4f 43       	clr.b	r15		
    aa22:	b0 12 70 79 	call	#0x7970	
    aa26:	3e 40 f2 13 	mov	#5106,	r14	;#0x13f2
    aa2a:	7f 40 53 00 	mov.b	#83,	r15	;#0x0053
    aa2e:	b0 12 70 79 	call	#0x7970	
    aa32:	3e 40 f0 13 	mov	#5104,	r14	;#0x13f0
    aa36:	7f 40 50 00 	mov.b	#80,	r15	;#0x0050
    aa3a:	b0 12 70 79 	call	#0x7970	
    aa3e:	3e 40 e1 13 	mov	#5089,	r14	;#0x13e1
    aa42:	7f 40 03 00 	mov.b	#3,	r15	;#0x0003
    aa46:	b0 12 70 79 	call	#0x7970	
    aa4a:	3e 40 e0 13 	mov	#5088,	r14	;#0x13e0
    aa4e:	6f 43       	mov.b	#2,	r15	;r3 As==10
    aa50:	b0 12 70 79 	call	#0x7970	
    aa54:	3e 40 e2 13 	mov	#5090,	r14	;#0x13e2
    aa58:	6f 42       	mov.b	#4,	r15	;r2 As==10
    aa5a:	b0 12 70 79 	call	#0x7970	
    aa5e:	3e 40 de 13 	mov	#5086,	r14	;#0x13de
    aa62:	7f 40 f0 ff 	mov.b	#-16,	r15	;#0xfff0
    aa66:	b0 12 70 79 	call	#0x7970	
    aa6a:	5f 43       	mov.b	#1,	r15	;r3 As==01
    aa6c:	b0 12 80 52 	call	#0x5280	
    aa70:	b0 12 02 55 	call	#0x5502	
    aa74:	82 4e 2e 15 	mov	r14,	&0x152e	
    aa78:	82 4f 30 15 	mov	r15,	&0x1530	
    aa7c:	b2 40 88 13 32 15 	mov	#5000,	&0x1532	;#0x1388
    aa82:	82 43 34 15 	mov	#0,	&0x1534	;r3 As==00
    aa86:	f2 d0 03 00 36 15 	bis.b	#3,	&0x1536	;#0x0003
    aa8c:	5f 43       	mov.b	#1,	r15	;r3 As==01
    aa8e:	30 40 f6 a1 	br	#0xa1f6	
    aa92:	1f 42 18 11 	mov	&0x1118,r15	
    aa96:	3f 92       	cmp	#8,	r15	;r2 As==11
    aa98:	0b 24       	jz	$+24     	;abs 0xaab0
    aa9a:	02 2c       	jc	$+6      	;abs 0xaaa0
    aa9c:	30 40 82 b7 	br	#0xb782	
    aaa0:	3f 50 f1 ff 	add	#-15,	r15	;#0xfff1
    aaa4:	3f 90 03 00 	cmp	#3,	r15	;#0x0003
    aaa8:	02 28       	jnc	$+6      	;abs 0xaaae
    aaaa:	30 40 82 b7 	br	#0xb782	
    aaae:	07 3c       	jmp	$+16     	;abs 0xaabe
    aab0:	4f 43       	clr.b	r15		
    aab2:	b0 12 3c 6a 	call	#0x6a3c	
    aab6:	0f 93       	tst	r15		
    aab8:	0a 20       	jnz	$+22     	;abs 0xaace
    aaba:	30 40 b2 ac 	br	#0xacb2	
    aabe:	b0 12 44 4b 	call	#0x4b44	
    aac2:	4f 93       	tst.b	r15		
    aac4:	74 20       	jnz	$+234    	;abs 0xabae
    aac6:	b0 12 3c 6a 	call	#0x6a3c	
    aaca:	0f 93       	tst	r15		
    aacc:	70 24       	jz	$+226    	;abs 0xabae
    aace:	b0 12 38 63 	call	#0x6338	
    aad2:	30 40 82 b7 	br	#0xb782	
    aad6:	4f 43       	clr.b	r15		
    aad8:	b0 12 3c 6a 	call	#0x6a3c	
    aadc:	0f 93       	tst	r15		
    aade:	0e 20       	jnz	$+30     	;abs 0xaafc
    aae0:	b0 12 80 5e 	call	#0x5e80	
    aae4:	b2 90 07 00 18 11 	cmp	#7,	&0x1118	;#0x0007
    aaea:	04 20       	jnz	$+10     	;abs 0xaaf4
    aaec:	b0 12 5c 4b 	call	#0x4b5c	
    aaf0:	b0 12 8a 51 	call	#0x518a	
    aaf4:	b0 12 34 62 	call	#0x6234	
    aaf8:	30 40 82 b7 	br	#0xb782	
    aafc:	7f 40 1f 00 	mov.b	#31,	r15	;#0x001f
    ab00:	30 40 f6 a1 	br	#0xa1f6	
    ab04:	0f 42       	mov	r2,	r15	
    ab06:	32 c2       	dint			
    ab08:	03 43       	nop			
    ab0a:	5e 42 04 11 	mov.b	&0x1104,r14	
    ab0e:	3f f2       	and	#8,	r15	;r2 As==11
    ab10:	01 24       	jz	$+4      	;abs 0xab14
    ab12:	32 d2       	eint			
    ab14:	4e 93       	tst.b	r14		
    ab16:	05 24       	jz	$+12     	;abs 0xab22
    ab18:	5e 93       	cmp.b	#1,	r14	;r3 As==01
    ab1a:	02 24       	jz	$+6      	;abs 0xab20
    ab1c:	30 40 82 b7 	br	#0xb782	
    ab20:	cc 3c       	jmp	$+410    	;abs 0xacba
    ab22:	1f 42 18 11 	mov	&0x1118,r15	
    ab26:	3f 53       	add	#-1,	r15	;r3 As==11
    ab28:	3f 90 11 00 	cmp	#17,	r15	;#0x0011
    ab2c:	02 28       	jnc	$+6      	;abs 0xab32
    ab2e:	30 40 82 b7 	br	#0xb782	
    ab32:	0f 5f       	rla	r15		
    ab34:	10 4f 64 bf 	br	-16540(r15)	;0xbf64(r15)
    ab38:	0f 42       	mov	r2,	r15	
    ab3a:	3f f2       	and	#8,	r15	;r2 As==11
    ab3c:	32 c2       	dint			
    ab3e:	03 43       	nop			
    ab40:	82 93 16 11 	tst	&0x1116	
    ab44:	01 24       	jz	$+4      	;abs 0xab48
    ab46:	ce 3c       	jmp	$+414    	;abs 0xace4
    ab48:	92 43 16 11 	mov	#1,	&0x1116	;r3 As==01
    ab4c:	0f 93       	tst	r15		
    ab4e:	01 24       	jz	$+4      	;abs 0xab52
    ab50:	32 d2       	eint			
    ab52:	0f 42       	mov	r2,	r15	
    ab54:	32 c2       	dint			
    ab56:	03 43       	nop			
    ab58:	f2 d0 20 00 1d 00 	bis.b	#32,	&0x001d	;#0x0020
    ab5e:	3f f2       	and	#8,	r15	;r2 As==11
    ab60:	01 24       	jz	$+4      	;abs 0xab64
    ab62:	32 d2       	eint			
    ab64:	3d 40 14 00 	mov	#20,	r13	;#0x0014
    ab68:	0e 43       	clr	r14		
    ab6a:	4f 43       	clr.b	r15		
    ab6c:	b0 12 de 66 	call	#0x66de	
    ab70:	30 40 82 b7 	br	#0xb782	
    ab74:	b0 12 80 5e 	call	#0x5e80	
    ab78:	b0 12 8a 51 	call	#0x518a	
    ab7c:	5f 43       	mov.b	#1,	r15	;r3 As==01
    ab7e:	b0 12 3e 4d 	call	#0x4d3e	
    ab82:	82 4e c4 17 	mov	r14,	&0x17c4	
    ab86:	82 4f c6 17 	mov	r15,	&0x17c6	
    ab8a:	92 52 c4 17 c4 17 	rla	&0x17c4	
    ab90:	92 62 c6 17 c6 17 	rlc	&0x17c6	
    ab96:	7f 40 1c 00 	mov.b	#28,	r15	;#0x001c
    ab9a:	30 40 f6 a1 	br	#0xa1f6	
    ab9e:	b0 12 9e 78 	call	#0x789e	
    aba2:	30 40 82 b7 	br	#0xb782	
    aba6:	b0 12 d0 60 	call	#0x60d0	
    abaa:	30 40 82 b7 	br	#0xb782	
    abae:	b0 12 76 8b 	call	#0x8b76	
    abb2:	30 40 82 b7 	br	#0xb782	
    abb6:	b0 12 5c 4b 	call	#0x4b5c	
    abba:	b0 12 9c 4b 	call	#0x4b9c	
    abbe:	0b 42       	mov	r2,	r11	
    abc0:	3b f2       	and	#8,	r11	;r2 As==11
    abc2:	32 c2       	dint			
    abc4:	03 43       	nop			
    abc6:	a2 92 16 11 	cmp	#4,	&0x1116	;r2 As==10
    abca:	0c 20       	jnz	$+26     	;abs 0xabe4
    abcc:	a2 43 16 11 	mov	#2,	&0x1116	;r3 As==10
    abd0:	b0 12 74 46 	call	#0x4674	
    abd4:	b0 12 7a 46 	call	#0x467a	
    abd8:	7f 40 07 00 	mov.b	#7,	r15	;#0x0007
    abdc:	b0 12 e4 46 	call	#0x46e4	
    abe0:	b0 12 74 46 	call	#0x4674	
    abe4:	0b 93       	tst	r11		
    abe6:	01 24       	jz	$+4      	;abs 0xabea
    abe8:	32 d2       	eint			
    abea:	82 43 16 11 	mov	#0,	&0x1116	;r3 As==00
    abee:	b0 12 66 5c 	call	#0x5c66	
    abf2:	0f 42       	mov	r2,	r15	
    abf4:	32 c2       	dint			
    abf6:	03 43       	nop			
    abf8:	f2 f0 df ff 1d 00 	and.b	#-33,	&0x001d	;#0xffdf
    abfe:	3f f2       	and	#8,	r15	;r2 As==11
    ac00:	01 24       	jz	$+4      	;abs 0xac04
    ac02:	32 d2       	eint			
    ac04:	b0 12 7a 5c 	call	#0x5c7a	
    ac08:	c2 43 c4 11 	mov.b	#0,	&0x11c4	;r3 As==00
    ac0c:	b0 12 34 62 	call	#0x6234	
    ac10:	82 43 18 11 	mov	#0,	&0x1118	;r3 As==00
    ac14:	7f 40 0b 00 	mov.b	#11,	r15	;#0x000b
    ac18:	b0 12 d2 51 	call	#0x51d2	
    ac1c:	4f 93       	tst.b	r15		
    ac1e:	22 24       	jz	$+70     	;abs 0xac64
    ac20:	1c 42 20 18 	mov	&0x1820,r12	
    ac24:	1d 42 22 18 	mov	&0x1822,r13	
    ac28:	5b 42 bd 11 	mov.b	&0x11bd,r11	
    ac2c:	7b 90 0f 00 	cmp.b	#15,	r11	;#0x000f
    ac30:	02 28       	jnc	$+6      	;abs 0xac36
    ac32:	7b 40 0e 00 	mov.b	#14,	r11	;#0x000e
    ac36:	3e 40 c0 03 	mov	#960,	r14	;#0x03c0
    ac3a:	0f 43       	clr	r15		
    ac3c:	7b f0 1f 00 	and.b	#31,	r11	;#0x001f
    ac40:	4b 93       	tst.b	r11		
    ac42:	04 24       	jz	$+10     	;abs 0xac4c
    ac44:	0e 5e       	rla	r14		
    ac46:	0f 6f       	rlc	r15		
    ac48:	7b 53       	add.b	#-1,	r11	;r3 As==11
    ac4a:	fa 3f       	jmp	$-10     	;abs 0xac40
    ac4c:	3e 50 94 fd 	add	#-620,	r14	;#0xfd94
    ac50:	3f 63       	addc	#-1,	r15	;r3 As==11
    ac52:	0f 12       	push	r15		
    ac54:	0e 12       	push	r14		
    ac56:	0e 4d       	mov	r13,	r14	
    ac58:	0d 4c       	mov	r12,	r13	
    ac5a:	7f 40 0d 00 	mov.b	#13,	r15	;#0x000d
    ac5e:	b0 12 4a 67 	call	#0x674a	
    ac62:	21 52       	add	#4,	r1	;r2 As==10
    ac64:	7f 40 07 00 	mov.b	#7,	r15	;#0x0007
    ac68:	b0 12 d2 51 	call	#0x51d2	
    ac6c:	4f 93       	tst.b	r15		
    ac6e:	1d 24       	jz	$+60     	;abs 0xacaa
    ac70:	1c 42 12 15 	mov	&0x1512,r12	
    ac74:	1d 42 14 15 	mov	&0x1514,r13	
    ac78:	3e 40 c0 03 	mov	#960,	r14	;#0x03c0
    ac7c:	0f 43       	clr	r15		
    ac7e:	5b 42 cc 17 	mov.b	&0x17cc,r11	
    ac82:	7b f0 1f 00 	and.b	#31,	r11	;#0x001f
    ac86:	4b 93       	tst.b	r11		
    ac88:	04 24       	jz	$+10     	;abs 0xac92
    ac8a:	0e 5e       	rla	r14		
    ac8c:	0f 6f       	rlc	r15		
    ac8e:	7b 53       	add.b	#-1,	r11	;r3 As==11
    ac90:	fa 3f       	jmp	$-10     	;abs 0xac86
    ac92:	3e 50 94 fd 	add	#-620,	r14	;#0xfd94
    ac96:	3f 63       	addc	#-1,	r15	;r3 As==11
    ac98:	0f 12       	push	r15		
    ac9a:	0e 12       	push	r14		
    ac9c:	0e 4d       	mov	r13,	r14	
    ac9e:	0d 4c       	mov	r12,	r13	
    aca0:	7f 40 0e 00 	mov.b	#14,	r15	;#0x000e
    aca4:	b0 12 4a 67 	call	#0x674a	
    aca8:	21 52       	add	#4,	r1	;r2 As==10
    acaa:	b0 12 ba 93 	call	#0x93ba	
    acae:	30 40 82 b7 	br	#0xb782	
    acb2:	b0 12 06 79 	call	#0x7906	
    acb6:	30 40 82 b7 	br	#0xb782	
    acba:	0b 42       	mov	r2,	r11	
    acbc:	3b f2       	and	#8,	r11	;r2 As==11
    acbe:	32 c2       	dint			
    acc0:	03 43       	nop			
    acc2:	82 93 f6 11 	tst	&0x11f6	
    acc6:	02 24       	jz	$+6      	;abs 0xaccc
    acc8:	b0 12 48 60 	call	#0x6048	
    accc:	0b 93       	tst	r11		
    acce:	02 20       	jnz	$+6      	;abs 0xacd4
    acd0:	30 40 82 b7 	br	#0xb782	
    acd4:	0b 3c       	jmp	$+24     	;abs 0xacec
    acd6:	0b 42       	mov	r2,	r11	
    acd8:	32 c2       	dint			
    acda:	03 43       	nop			
    acdc:	b0 12 3e 98 	call	#0x983e	
    ace0:	0f 4b       	mov	r11,	r15	
    ace2:	3f f2       	and	#8,	r15	;r2 As==11
    ace4:	0f 93       	tst	r15		
    ace6:	02 20       	jnz	$+6      	;abs 0xacec
    ace8:	30 40 82 b7 	br	#0xb782	
    acec:	32 d2       	eint			
    acee:	30 40 82 b7 	br	#0xb782	
    acf2:	0f 42       	mov	r2,	r15	
    acf4:	32 c2       	dint			
    acf6:	03 43       	nop			
    acf8:	d2 42 00 11 01 11 	mov.b	&0x1100,&0x1101	
    acfe:	f2 43 00 11 	mov.b	#-1,	&0x1100	;r3 As==11
    ad02:	e2 42 b3 12 	mov.b	#4,	&0x12b3	;r2 As==10
    ad06:	3f f2       	and	#8,	r15	;r2 As==11
    ad08:	01 24       	jz	$+4      	;abs 0xad0c
    ad0a:	32 d2       	eint			
    ad0c:	c2 93 01 11 	tst.b	&0x1101	
    ad10:	02 20       	jnz	$+6      	;abs 0xad16
    ad12:	b0 12 c4 69 	call	#0x69c4	
    ad16:	c2 93 01 11 	tst.b	&0x1101	
    ad1a:	02 24       	jz	$+6      	;abs 0xad20
    ad1c:	30 40 82 b7 	br	#0xb782	
    ad20:	7f 40 20 00 	mov.b	#32,	r15	;#0x0020
    ad24:	30 40 f6 a1 	br	#0xa1f6	
    ad28:	5f 43       	mov.b	#1,	r15	;r3 As==01
    ad2a:	b0 12 ac 61 	call	#0x61ac	
    ad2e:	0f 42       	mov	r2,	r15	
    ad30:	32 c2       	dint			
    ad32:	03 43       	nop			
    ad34:	82 43 f6 11 	mov	#0,	&0x11f6	;r3 As==00
    ad38:	3f f2       	and	#8,	r15	;r2 As==11
    ad3a:	01 24       	jz	$+4      	;abs 0xad3e
    ad3c:	32 d2       	eint			
    ad3e:	7f 40 1e 00 	mov.b	#30,	r15	;#0x001e
    ad42:	30 40 f6 a1 	br	#0xa1f6	
    ad46:	1f 42 8a 15 	mov	&0x158a,r15	
    ad4a:	6e 4f       	mov.b	@r15,	r14	
    ad4c:	6e 83       	decd.b	r14		
    ad4e:	5e 82 98 11 	sub.b	&0x1198,r14	
    ad52:	0d 42       	mov	r2,	r13	
    ad54:	32 c2       	dint			
    ad56:	03 43       	nop			
    ad58:	3d f2       	and	#8,	r13	;r2 As==11
    ad5a:	01 24       	jz	$+4      	;abs 0xad5e
    ad5c:	32 d2       	eint			
    ad5e:	17 42 8a 15 	mov	&0x158a,r7	
    ad62:	4d 4e       	mov.b	r14,	r13	
    ad64:	0c 47       	mov	r7,	r12	
    ad66:	0c 5d       	add	r13,	r12	
    ad68:	5c 4c 19 00 	mov.b	25(r12),r12	;0x0019(r12)
    ad6c:	7c f0 7f 00 	and.b	#127,	r12	;#0x007f
    ad70:	c7 4c 00 00 	mov.b	r12,	0(r7)	;0x0000(r7)
    ad74:	0d 57       	add	r7,	r13	
    ad76:	df 4d 18 00 92 00 	mov.b	24(r13),146(r15);0x0018(r13), 0x0092(r15)
    ad7c:	ef 47 93 00 	mov.b	@r7,	147(r15);0x0093(r15)
    ad80:	c7 4e 00 00 	mov.b	r14,	0(r7)	;0x0000(r7)
    ad84:	b2 90 07 00 18 11 	cmp	#7,	&0x1118	;#0x0007
    ad8a:	02 24       	jz	$+6      	;abs 0xad90
    ad8c:	30 40 4e b5 	br	#0xb54e	
    ad90:	5f 47 02 00 	mov.b	2(r7),	r15	;0x0002(r7)
    ad94:	3f f0 30 00 	and	#48,	r15	;#0x0030
    ad98:	3f 90 11 00 	cmp	#17,	r15	;#0x0011
    ad9c:	02 38       	jl	$+6      	;abs 0xada2
    ad9e:	30 40 4e b5 	br	#0xb54e	
    ada2:	5f 47 01 00 	mov.b	1(r7),	r15	;0x0001(r7)
    ada6:	3f f2       	and	#8,	r15	;r2 As==11
    ada8:	02 24       	jz	$+6      	;abs 0xadae
    adaa:	30 40 4e b5 	br	#0xb54e	
    adae:	b0 12 32 4c 	call	#0x4c32	
    adb2:	7f 90 0b 00 	cmp.b	#11,	r15	;#0x000b
    adb6:	02 28       	jnc	$+6      	;abs 0xadbc
    adb8:	30 40 4e b5 	br	#0xb54e	
    adbc:	4f 4f       	mov.b	r15,	r15	
    adbe:	0f 5f       	rla	r15		
    adc0:	10 4f 86 bf 	br	-16506(r15)	;0xbf86(r15)
    adc4:	c2 93 32 11 	tst.b	&0x1132	
    adc8:	02 20       	jnz	$+6      	;abs 0xadce
    adca:	30 40 4e b5 	br	#0xb54e	
    adce:	f2 90 03 00 fe 17 	cmp.b	#3,	&0x17fe	;#0x0003
    add4:	4d 20       	jnz	$+156    	;abs 0xae70
    add6:	c2 93 b8 16 	tst.b	&0x16b8	
    adda:	02 24       	jz	$+6      	;abs 0xade0
    addc:	30 40 4e b5 	br	#0xb54e	
    ade0:	5f 47 01 00 	mov.b	1(r7),	r15	;0x0001(r7)
    ade4:	3f f0 07 00 	and	#7,	r15	;#0x0007
    ade8:	3f 90 03 00 	cmp	#3,	r15	;#0x0003
    adec:	02 24       	jz	$+6      	;abs 0xadf2
    adee:	30 40 4e b5 	br	#0xb54e	
    adf2:	f7 92 18 00 	cmp.b	#8,	24(r7)	;r2 As==11, 0x0018(r7)
    adf6:	02 24       	jz	$+6      	;abs 0xadfc
    adf8:	30 40 4e b5 	br	#0xb54e	
    adfc:	5f 47 1a 00 	mov.b	26(r7),	r15	;0x001a(r7)
    ae00:	8f 10       	swpb	r15		
    ae02:	5e 47 19 00 	mov.b	25(r7),	r14	;0x0019(r7)
    ae06:	0f de       	bis	r14,	r15	
    ae08:	82 4f f0 13 	mov	r15,	&0x13f0	
    ae0c:	3e 40 f0 13 	mov	#5104,	r14	;#0x13f0
    ae10:	7f 40 50 00 	mov.b	#80,	r15	;#0x0050
    ae14:	b0 12 70 79 	call	#0x7970	
    ae18:	5f 47 1c 00 	mov.b	28(r7),	r15	;0x001c(r7)
    ae1c:	8f 10       	swpb	r15		
    ae1e:	5e 47 1b 00 	mov.b	27(r7),	r14	;0x001b(r7)
    ae22:	0f de       	bis	r14,	r15	
    ae24:	82 4f ee 13 	mov	r15,	&0x13ee	
    ae28:	3e 40 ee 13 	mov	#5102,	r14	;#0x13ee
    ae2c:	7f 40 4b 00 	mov.b	#75,	r15	;#0x004b
    ae30:	b0 12 70 79 	call	#0x7970	
    ae34:	5f 47 1e 00 	mov.b	30(r7),	r15	;0x001e(r7)
    ae38:	8f 10       	swpb	r15		
    ae3a:	5f d7 1d 00 	bis.b	29(r7),	r15	;0x001d(r7)
    ae3e:	b0 12 6a 7f 	call	#0x7f6a	
    ae42:	5f 47 1f 00 	mov.b	31(r7),	r15	;0x001f(r7)
    ae46:	8f 10       	swpb	r15		
    ae48:	5e 47 1e 00 	mov.b	30(r7),	r14	;0x001e(r7)
    ae4c:	0f de       	bis	r14,	r15	
    ae4e:	82 4f f2 13 	mov	r15,	&0x13f2	
    ae52:	3e 40 f2 13 	mov	#5106,	r14	;#0x13f2
    ae56:	7f 40 53 00 	mov.b	#83,	r15	;#0x0053
    ae5a:	b0 12 70 79 	call	#0x7970	
    ae5e:	d2 53 b8 16 	inc.b	&0x16b8	
    ae62:	d2 43 c1 17 	mov.b	#1,	&0x17c1	;r3 As==01
    ae66:	f2 f0 fd ff 58 15 	and.b	#-3,	&0x1558	;#0xfffd
    ae6c:	4f 43       	clr.b	r15		
    ae6e:	16 3c       	jmp	$+46     	;abs 0xae9c
    ae70:	5f 47 01 00 	mov.b	1(r7),	r15	;0x0001(r7)
    ae74:	3f f0 07 00 	and	#7,	r15	;#0x0007
    ae78:	02 24       	jz	$+6      	;abs 0xae7e
    ae7a:	30 40 4e b5 	br	#0xb54e	
    ae7e:	c2 93 d7 13 	tst.b	&0x13d7	
    ae82:	02 20       	jnz	$+6      	;abs 0xae88
    ae84:	30 40 4e b5 	br	#0xb54e	
    ae88:	5e 42 b8 16 	mov.b	&0x16b8,r14	
    ae8c:	5e 92 70 11 	cmp.b	&0x1170,r14	
    ae90:	09 28       	jnc	$+20     	;abs 0xaea4
    ae92:	d2 43 c1 17 	mov.b	#1,	&0x17c1	;r3 As==01
    ae96:	f2 f0 fd ff 58 15 	and.b	#-3,	&0x1558	;#0xfffd
    ae9c:	b0 12 30 68 	call	#0x6830	
    aea0:	30 40 4e b5 	br	#0xb54e	
    aea4:	1c 42 10 18 	mov	&0x1810,r12	
    aea8:	5b 42 a6 16 	mov.b	&0x16a6,r11	
    aeac:	5f 47 02 00 	mov.b	2(r7),	r15	;0x0002(r7)
    aeb0:	0d 4f       	mov	r15,	r13	
    aeb2:	3d f0 c0 00 	and	#192,	r13	;#0x00c0
    aeb6:	3d 90 80 00 	cmp	#128,	r13	;#0x0080
    aeba:	05 24       	jz	$+12     	;abs 0xaec6
    aebc:	3d 90 c0 00 	cmp	#192,	r13	;#0x00c0
    aec0:	02 24       	jz	$+6      	;abs 0xaec6
    aec2:	30 40 4e b5 	br	#0xb54e	
    aec6:	02 12       	push	r2		
    aec8:	32 c2       	dint			
    aeca:	03 43       	nop			
    aecc:	c2 4e 30 01 	mov.b	r14,	&0x0130	
    aed0:	f2 40 24 00 38 01 	mov.b	#36,	&0x0138	;#0x0024
    aed6:	18 42 3a 01 	mov	&0x013a,r8	
    aeda:	32 41       	pop	r2		
    aedc:	08 5c       	add	r12,	r8	
    aede:	c8 4f 00 00 	mov.b	r15,	0(r8)	;0x0000(r8)
    aee2:	7f 40 06 00 	mov.b	#6,	r15	;#0x0006
    aee6:	12 c3       	clrc			
    aee8:	68 10       	rrc.b	@r8		
    aeea:	7f 53       	add.b	#-1,	r15	;r3 As==11
    aeec:	fc 23       	jnz	$-6      	;abs 0xaee6
    aeee:	5f 47 05 00 	mov.b	5(r7),	r15	;0x0005(r7)
    aef2:	8f 10       	swpb	r15		
    aef4:	5e 47 04 00 	mov.b	4(r7),	r14	;0x0004(r7)
    aef8:	0f de       	bis	r14,	r15	
    aefa:	88 4f 02 00 	mov	r15,	2(r8)	;0x0002(r8)
    aefe:	5f 47 02 00 	mov.b	2(r7),	r15	;0x0002(r7)
    af02:	3f f0 c0 00 	and	#192,	r15	;#0x00c0
    af06:	3f 90 80 00 	cmp	#128,	r15	;#0x0080
    af0a:	09 20       	jnz	$+20     	;abs 0xaf1e
    af0c:	5f 47 07 00 	mov.b	7(r7),	r15	;0x0007(r7)
    af10:	8f 10       	swpb	r15		
    af12:	5e 47 06 00 	mov.b	6(r7),	r14	;0x0006(r7)
    af16:	0f de       	bis	r14,	r15	
    af18:	88 4f 04 00 	mov	r15,	4(r8)	;0x0004(r8)
    af1c:	07 3c       	jmp	$+16     	;abs 0xaf2c
    af1e:	0e 47       	mov	r7,	r14	
    af20:	3e 50 06 00 	add	#6,	r14	;#0x0006
    af24:	0f 48       	mov	r8,	r15	
    af26:	2f 52       	add	#4,	r15	;r2 As==10
    af28:	b0 12 aa 47 	call	#0x47aa	
    af2c:	c8 4b 0c 00 	mov.b	r11,	12(r8)	;0x000c(r8)
    af30:	c8 43 0d 00 	mov.b	#0,	13(r8)	;r3 As==00, 0x000d(r8)
    af34:	d8 47 18 00 0e 00 	mov.b	24(r7),	14(r8)	;0x0018(r7), 0x000e(r8)
    af3a:	d8 47 19 00 0f 00 	mov.b	25(r7),	15(r8)	;0x0019(r7), 0x000f(r8)
    af40:	5f 47 1a 00 	mov.b	26(r7),	r15	;0x001a(r7)
    af44:	4f 5f       	rla.b	r15		
    af46:	0f 43       	clr	r15		
    af48:	0f 6f       	rlc	r15		
    af4a:	c8 4f 10 00 	mov.b	r15,	16(r8)	;0x0010(r8)
    af4e:	d8 47 93 00 11 00 	mov.b	147(r7),17(r8)	;0x0093(r7), 0x0011(r8)
    af54:	0f 47       	mov	r7,	r15	
    af56:	3f 50 8e 00 	add	#142,	r15	;#0x008e
    af5a:	b0 12 b4 45 	call	#0x45b4	
    af5e:	88 4e 12 00 	mov	r14,	18(r8)	;0x0012(r8)
    af62:	88 4f 14 00 	mov	r15,	20(r8)	;0x0014(r8)
    af66:	88 43 16 00 	mov	#0,	22(r8)	;r3 As==00, 0x0016(r8)
    af6a:	c8 43 18 00 	mov.b	#0,	24(r8)	;r3 As==00, 0x0018(r8)
    af6e:	c8 43 19 00 	mov.b	#0,	25(r8)	;r3 As==00, 0x0019(r8)
    af72:	88 43 1a 00 	mov	#0,	26(r8)	;r3 As==00, 0x001a(r8)
    af76:	88 43 1c 00 	mov	#0,	28(r8)	;r3 As==00, 0x001c(r8)
    af7a:	88 43 1e 00 	mov	#0,	30(r8)	;r3 As==00, 0x001e(r8)
    af7e:	88 43 20 00 	mov	#0,	32(r8)	;r3 As==00, 0x0020(r8)
    af82:	c8 43 22 00 	mov.b	#0,	34(r8)	;r3 As==00, 0x0022(r8)
    af86:	1d 42 10 18 	mov	&0x1810,r13	
    af8a:	5b 42 b8 16 	mov.b	&0x16b8,r11	
    af8e:	02 12       	push	r2		
    af90:	32 c2       	dint			
    af92:	03 43       	nop			
    af94:	c2 4b 30 01 	mov.b	r11,	&0x0130	
    af98:	f2 40 24 00 38 01 	mov.b	#36,	&0x0138	;#0x0024
    af9e:	1c 42 3a 01 	mov	&0x013a,r12	
    afa2:	32 41       	pop	r2		
    afa4:	0c 5d       	add	r13,	r12	
    afa6:	4f 43       	clr.b	r15		
    afa8:	27 3c       	jmp	$+80     	;abs 0xaff8
    afaa:	9d 9c 02 00 02 00 	cmp	2(r12),	2(r13)	;0x0002(r12), 0x0002(r13)
    afb0:	20 20       	jnz	$+66     	;abs 0xaff2
    afb2:	6e 4d       	mov.b	@r13,	r14	
    afb4:	6e 9c       	cmp.b	@r12,	r14	
    afb6:	1d 20       	jnz	$+60     	;abs 0xaff2
    afb8:	6e 93       	cmp.b	#2,	r14	;r3 As==10
    afba:	06 20       	jnz	$+14     	;abs 0xafc8
    afbc:	9d 9c 04 00 04 00 	cmp	4(r12),	4(r13)	;0x0004(r12), 0x0004(r13)
    afc2:	17 20       	jnz	$+48     	;abs 0xaff2
    afc4:	30 40 4e b5 	br	#0xb54e	
    afc8:	7e 90 03 00 	cmp.b	#3,	r14	;#0x0003
    afcc:	12 20       	jnz	$+38     	;abs 0xaff2
    afce:	9d 9c 04 00 04 00 	cmp	4(r12),	4(r13)	;0x0004(r12), 0x0004(r13)
    afd4:	0e 20       	jnz	$+30     	;abs 0xaff2
    afd6:	9d 9c 06 00 06 00 	cmp	6(r12),	6(r13)	;0x0006(r12), 0x0006(r13)
    afdc:	0a 20       	jnz	$+22     	;abs 0xaff2
    afde:	9d 9c 08 00 08 00 	cmp	8(r12),	8(r13)	;0x0008(r12), 0x0008(r13)
    afe4:	06 20       	jnz	$+14     	;abs 0xaff2
    afe6:	9d 9c 0a 00 0a 00 	cmp	10(r12),10(r13)	;0x000a(r12), 0x000a(r13)
    afec:	02 20       	jnz	$+6      	;abs 0xaff2
    afee:	30 40 4e b5 	br	#0xb54e	
    aff2:	5f 53       	inc.b	r15		
    aff4:	3d 50 24 00 	add	#36,	r13	;#0x0024
    aff8:	4f 9b       	cmp.b	r11,	r15	
    affa:	d7 23       	jnz	$-80     	;abs 0xafaa
    affc:	5f 53       	inc.b	r15		
    affe:	c2 4f b8 16 	mov.b	r15,	&0x16b8	
    b002:	30 40 4e b5 	br	#0xb54e	
    b006:	5f 47 01 00 	mov.b	1(r7),	r15	;0x0001(r7)
    b00a:	7f f0 07 00 	and.b	#7,	r15	;#0x0007
    b00e:	7f 90 03 00 	cmp.b	#3,	r15	;#0x0003
    b012:	04 20       	jnz	$+10     	;abs 0xb01c
    b014:	5f 47 18 00 	mov.b	24(r7),	r15	;0x0018(r7)
    b018:	7f 50 03 00 	add.b	#3,	r15	;#0x0003
    b01c:	04 42       	mov	r2,	r4	
    b01e:	34 f2       	and	#8,	r4	;r2 As==11
    b020:	32 c2       	dint			
    b022:	03 43       	nop			
    b024:	7f 53       	add.b	#-1,	r15	;r3 As==11
    b026:	7f 90 09 00 	cmp.b	#9,	r15	;#0x0009
    b02a:	02 28       	jnc	$+6      	;abs 0xb030
    b02c:	30 40 66 b3 	br	#0xb366	
    b030:	4f 4f       	mov.b	r15,	r15	
    b032:	0f 5f       	rla	r15		
    b034:	10 4f 9c bf 	br	-16484(r15)	;0xbf9c(r15)
    b038:	0f 47       	mov	r7,	r15	
    b03a:	b0 12 d4 9b 	call	#0x9bd4	
    b03e:	07 4f       	mov	r15,	r7	
    b040:	30 40 66 b3 	br	#0xb366	
    b044:	5f 47 02 00 	mov.b	2(r7),	r15	;0x0002(r7)
    b048:	7e 40 06 00 	mov.b	#6,	r14	;#0x0006
    b04c:	12 c3       	clrc			
    b04e:	4f 10       	rrc.b	r15		
    b050:	7e 53       	add.b	#-1,	r14	;r3 As==11
    b052:	fc 23       	jnz	$-6      	;abs 0xb04c
    b054:	7f 90 03 00 	cmp.b	#3,	r15	;#0x0003
    b058:	02 24       	jz	$+6      	;abs 0xb05e
    b05a:	30 40 66 b3 	br	#0xb366	
    b05e:	0e 41       	mov	r1,	r14	
    b060:	0f 47       	mov	r7,	r15	
    b062:	b0 12 8a 4a 	call	#0x4a8a	
    b066:	0f 93       	tst	r15		
    b068:	02 24       	jz	$+6      	;abs 0xb06e
    b06a:	30 40 66 b3 	br	#0xb366	
    b06e:	28 41       	mov	@r1,	r8	
    b070:	19 41 02 00 	mov	2(r1),	r9	;0x0002(r1)
    b074:	1a 41 04 00 	mov	4(r1),	r10	;0x0004(r1)
    b078:	1b 41 06 00 	mov	6(r1),	r11	;0x0006(r1)
    b07c:	55 47 19 00 	mov.b	25(r7),	r5	;0x0019(r7)
    b080:	06 42       	mov	r2,	r6	
    b082:	36 f2       	and	#8,	r6	;r2 As==11
    b084:	32 c2       	dint			
    b086:	03 43       	nop			
    b088:	0b 12       	push	r11		
    b08a:	0a 12       	push	r10		
    b08c:	09 12       	push	r9		
    b08e:	08 12       	push	r8		
    b090:	7f 40 03 00 	mov.b	#3,	r15	;#0x0003
    b094:	b0 12 0c 4a 	call	#0x4a0c	
    b098:	31 52       	add	#8,	r1	;r2 As==11
    b09a:	7f 93       	cmp.b	#-1,	r15	;r3 As==11
    b09c:	0d 24       	jz	$+28     	;abs 0xb0b8
    b09e:	03 12       	push	#0		;r3 As==00
    b0a0:	4f 4f       	mov.b	r15,	r15	
    b0a2:	0f 5f       	rla	r15		
    b0a4:	0d 4f       	mov	r15,	r13	
    b0a6:	0d 5d       	rla	r13		
    b0a8:	0d 5d       	rla	r13		
    b0aa:	0d 5d       	rla	r13		
    b0ac:	0d 5f       	add	r15,	r13	
    b0ae:	3d 50 fe 15 	add	#5630,	r13	;#0x15fe
    b0b2:	1d 12 0a 00 	push	10(r13)	;0x000a(r13)
    b0b6:	4f 3c       	jmp	$+160    	;abs 0xb156
    b0b8:	82 93 b4 11 	tst	&0x11b4	
    b0bc:	4a 24       	jz	$+150    	;abs 0xb152
    b0be:	4f 45       	mov.b	r5,	r15	
    b0c0:	0f 11       	rra	r15		
    b0c2:	5f f3       	and.b	#1,	r15	;r3 As==01
    b0c4:	5f 93       	cmp.b	#1,	r15	;r3 As==01
    b0c6:	3d 20       	jnz	$+124    	;abs 0xb142
    b0c8:	f2 90 06 00 6a 17 	cmp.b	#6,	&0x176a	;#0x0006
    b0ce:	41 2c       	jc	$+132    	;abs 0xb152
    b0d0:	15 42 24 18 	mov	&0x1824,r5	
    b0d4:	0b 12       	push	r11		
    b0d6:	0a 12       	push	r10		
    b0d8:	09 12       	push	r9		
    b0da:	08 12       	push	r8		
    b0dc:	7f 40 03 00 	mov.b	#3,	r15	;#0x0003
    b0e0:	b0 12 0c 4a 	call	#0x4a0c	
    b0e4:	31 52       	add	#8,	r1	;r2 As==11
    b0e6:	7f 93       	cmp.b	#-1,	r15	;r3 As==11
    b0e8:	09 20       	jnz	$+20     	;abs 0xb0fc
    b0ea:	53 12       	push.b	#1		;r3 As==01
    b0ec:	05 12       	push	r5		
    b0ee:	0c 48       	mov	r8,	r12	
    b0f0:	0d 49       	mov	r9,	r13	
    b0f2:	0e 4a       	mov	r10,	r14	
    b0f4:	0f 4b       	mov	r11,	r15	
    b0f6:	b0 12 92 ba 	call	#0xba92	
    b0fa:	21 52       	add	#4,	r1	;r2 As==10
    b0fc:	03 12       	push	#0		;r3 As==00
    b0fe:	12 12 24 18 	push	&0x1824	
    b102:	0c 48       	mov	r8,	r12	
    b104:	0d 49       	mov	r9,	r13	
    b106:	0e 4a       	mov	r10,	r14	
    b108:	0f 4b       	mov	r11,	r15	
    b10a:	b0 12 14 9f 	call	#0x9f14	
    b10e:	21 52       	add	#4,	r1	;r2 As==10
    b110:	5d 42 6a 17 	mov.b	&0x176a,r13	
    b114:	1e 42 20 15 	mov	&0x1520,r14	
    b118:	1e 53       	inc	r14		
    b11a:	4f 4d       	mov.b	r13,	r15	
    b11c:	3f 53       	add	#-1,	r15	;r3 As==11
    b11e:	02 12       	push	r2		
    b120:	32 c2       	dint			
    b122:	03 43       	nop			
    b124:	82 4f 32 01 	mov	r15,	&0x0132	
    b128:	92 42 42 11 38 01 	mov	&0x1142,&0x0138	
    b12e:	1f 42 3a 01 	mov	&0x013a,r15	
    b132:	32 41       	pop	r2		
    b134:	0e 5f       	add	r15,	r14	
    b136:	82 4e 24 18 	mov	r14,	&0x1824	
    b13a:	5d 53       	inc.b	r13		
    b13c:	c2 4d 6a 17 	mov.b	r13,	&0x176a	
    b140:	37 3c       	jmp	$+112    	;abs 0xb1b0
    b142:	5e 42 11 14 	mov.b	&0x1411,r14	
    b146:	5d 42 6a 17 	mov.b	&0x176a,r13	
    b14a:	3f 42       	mov	#8,	r15	;r2 As==11
    b14c:	0f 8d       	sub	r13,	r15	
    b14e:	0f 9e       	cmp	r14,	r15	
    b150:	0a 34       	jge	$+22     	;abs 0xb166
    b152:	13 12       	push	#1		;r3 As==01
    b154:	33 12       	push	#-1		;r3 As==11
    b156:	0c 48       	mov	r8,	r12	
    b158:	0d 49       	mov	r9,	r13	
    b15a:	0e 4a       	mov	r10,	r14	
    b15c:	0f 4b       	mov	r11,	r15	
    b15e:	b0 12 14 9f 	call	#0x9f14	
    b162:	21 52       	add	#4,	r1	;r2 As==10
    b164:	27 3c       	jmp	$+80     	;abs 0xb1b4
    b166:	15 42 b2 11 	mov	&0x11b2,r5	
    b16a:	0b 12       	push	r11		
    b16c:	0a 12       	push	r10		
    b16e:	09 12       	push	r9		
    b170:	08 12       	push	r8		
    b172:	7f 40 03 00 	mov.b	#3,	r15	;#0x0003
    b176:	b0 12 0c 4a 	call	#0x4a0c	
    b17a:	31 52       	add	#8,	r1	;r2 As==11
    b17c:	7f 93       	cmp.b	#-1,	r15	;r3 As==11
    b17e:	09 20       	jnz	$+20     	;abs 0xb192
    b180:	63 12       	push.b	#2		;r3 As==10
    b182:	05 12       	push	r5		
    b184:	0c 48       	mov	r8,	r12	
    b186:	0d 49       	mov	r9,	r13	
    b188:	0e 4a       	mov	r10,	r14	
    b18a:	0f 4b       	mov	r11,	r15	
    b18c:	b0 12 92 ba 	call	#0xba92	
    b190:	21 52       	add	#4,	r1	;r2 As==10
    b192:	03 12       	push	#0		;r3 As==00
    b194:	12 12 b2 11 	push	&0x11b2	
    b198:	0c 48       	mov	r8,	r12	
    b19a:	0d 49       	mov	r9,	r13	
    b19c:	0e 4a       	mov	r10,	r14	
    b19e:	0f 4b       	mov	r11,	r15	
    b1a0:	b0 12 14 9f 	call	#0x9f14	
    b1a4:	21 52       	add	#4,	r1	;r2 As==10
    b1a6:	92 52 b6 11 b2 11 	add	&0x11b6,&0x11b2	
    b1ac:	d2 53 11 14 	inc.b	&0x1411	
    b1b0:	b2 53 b4 11 	add	#-1,	&0x11b4	;r3 As==11
    b1b4:	06 93       	tst	r6		
    b1b6:	02 20       	jnz	$+6      	;abs 0xb1bc
    b1b8:	30 40 66 b3 	br	#0xb366	
    b1bc:	32 d2       	eint			
    b1be:	30 40 66 b3 	br	#0xb366	
    b1c2:	5f 47 02 00 	mov.b	2(r7),	r15	;0x0002(r7)
    b1c6:	7e 40 06 00 	mov.b	#6,	r14	;#0x0006
    b1ca:	12 c3       	clrc			
    b1cc:	4f 10       	rrc.b	r15		
    b1ce:	7e 53       	add.b	#-1,	r14	;r3 As==11
    b1d0:	fc 23       	jnz	$-6      	;abs 0xb1ca
    b1d2:	7f 90 03 00 	cmp.b	#3,	r15	;#0x0003
    b1d6:	c7 20       	jnz	$+400    	;abs 0xb366
    b1d8:	0e 41       	mov	r1,	r14	
    b1da:	3e 52       	add	#8,	r14	;r2 As==11
    b1dc:	c1 3c       	jmp	$+388    	;abs 0xb360
    b1de:	5f 47 02 00 	mov.b	2(r7),	r15	;0x0002(r7)
    b1e2:	4d 4f       	mov.b	r15,	r13	
    b1e4:	7d f0 c0 ff 	and.b	#-64,	r13	;#0xffc0
    b1e8:	c1 4d 3a 00 	mov.b	r13,	58(r1)	;0x003a(r1)
    b1ec:	bc 34       	jge	$+378    	;abs 0xb366
    b1ee:	4e 4f       	mov.b	r15,	r14	
    b1f0:	7e f0 0c 00 	and.b	#12,	r14	;#0x000c
    b1f4:	05 47       	mov	r7,	r5	
    b1f6:	7e 92       	cmp.b	#8,	r14	;r2 As==11
    b1f8:	02 20       	jnz	$+6      	;abs 0xb1fe
    b1fa:	35 52       	add	#8,	r5	;r2 As==11
    b1fc:	07 3c       	jmp	$+16     	;abs 0xb20c
    b1fe:	7e 90 0c 00 	cmp.b	#12,	r14	;#0x000c
    b202:	02 24       	jz	$+6      	;abs 0xb208
    b204:	25 52       	add	#4,	r5	;r2 As==10
    b206:	02 3c       	jmp	$+6      	;abs 0xb20c
    b208:	35 50 0e 00 	add	#14,	r5	;#0x000e
    b20c:	5e 47 01 00 	mov.b	1(r7),	r14	;0x0001(r7)
    b210:	3e f0 40 00 	and	#64,	r14	;#0x0040
    b214:	02 24       	jz	$+6      	;abs 0xb21a
    b216:	3f f2       	and	#8,	r15	;r2 As==11
    b218:	01 20       	jnz	$+4      	;abs 0xb21c
    b21a:	25 53       	incd	r5		
    b21c:	06 43       	clr	r6		
    b21e:	08 43       	clr	r8		
    b220:	5e 41 3a 00 	mov.b	58(r1),	r14	;0x003a(r1)
    b224:	81 4e 3c 00 	mov	r14,	60(r1)	;0x003c(r1)
    b228:	1b 46 7c 11 	mov	4476(r6),r11	;0x117c(r6)
    b22c:	0b 93       	tst	r11		
    b22e:	2c 24       	jz	$+90     	;abs 0xb288
    b230:	2e 4b       	mov	@r11,	r14	
    b232:	5f 4e 02 00 	mov.b	2(r14),	r15	;0x0002(r14)
    b236:	3f f0 0c 00 	and	#12,	r15	;#0x000c
    b23a:	0f 5f       	rla	r15		
    b23c:	0f 5f       	rla	r15		
    b23e:	0f 5f       	rla	r15		
    b240:	0f 5f       	rla	r15		
    b242:	1f 91 3c 00 	cmp	60(r1),	r15	;0x003c(r1)
    b246:	20 20       	jnz	$+66     	;abs 0xb288
    b248:	3e 50 06 00 	add	#6,	r14	;#0x0006
    b24c:	f1 90 80 ff 3a 00 	cmp.b	#-128,	58(r1)	;#0xff80, 0x003a(r1)
    b252:	02 20       	jnz	$+6      	;abs 0xb258
    b254:	6a 43       	mov.b	#2,	r10	;r3 As==10
    b256:	01 3c       	jmp	$+4      	;abs 0xb25a
    b258:	7a 42       	mov.b	#8,	r10	;r2 As==11
    b25a:	0c 43       	clr	r12		
    b25c:	49 4c       	mov.b	r12,	r9	
    b25e:	0d 4e       	mov	r14,	r13	
    b260:	0d 5c       	add	r12,	r13	
    b262:	0f 45       	mov	r5,	r15	
    b264:	0f 5c       	add	r12,	r15	
    b266:	ed 9f 00 00 	cmp.b	@r15,	0(r13)	;0x0000(r13)
    b26a:	04 20       	jnz	$+10     	;abs 0xb274
    b26c:	59 53       	inc.b	r9		
    b26e:	1c 53       	inc	r12		
    b270:	4c 9a       	cmp.b	r10,	r12	
    b272:	f4 2b       	jnc	$-22     	;abs 0xb25c
    b274:	49 9a       	cmp.b	r10,	r9	
    b276:	08 20       	jnz	$+18     	;abs 0xb288
    b278:	08 93       	tst	r8		
    b27a:	05 24       	jz	$+12     	;abs 0xb286
    b27c:	2f 48       	mov	@r8,	r15	
    b27e:	ff d0 10 00 01 00 	bis.b	#16,	1(r15)	;#0x0010, 0x0001(r15)
    b284:	01 3c       	jmp	$+4      	;abs 0xb288
    b286:	08 4b       	mov	r11,	r8	
    b288:	26 53       	incd	r6		
    b28a:	36 90 0e 00 	cmp	#14,	r6	;#0x000e
    b28e:	cc 23       	jnz	$-102    	;abs 0xb228
    b290:	08 93       	tst	r8		
    b292:	08 24       	jz	$+18     	;abs 0xb2a4
    b294:	f8 d0 80 ff 08 00 	bis.b	#-128,	8(r8)	;#0xff80, 0x0008(r8)
    b29a:	7f 40 06 00 	mov.b	#6,	r15	;#0x0006
    b29e:	b0 12 fa 4a 	call	#0x4afa	
    b2a2:	61 3c       	jmp	$+196    	;abs 0xb366
    b2a4:	1b 42 38 15 	mov	&0x1538,r11	
    b2a8:	c2 93 40 15 	tst.b	&0x1540	
    b2ac:	5c 20       	jnz	$+186    	;abs 0xb366
    b2ae:	0e 41       	mov	r1,	r14	
    b2b0:	3e 50 10 00 	add	#16,	r14	;#0x0010
    b2b4:	0f 47       	mov	r7,	r15	
    b2b6:	b0 12 8a 4a 	call	#0x4a8a	
    b2ba:	0f 93       	tst	r15		
    b2bc:	54 20       	jnz	$+170    	;abs 0xb366
    b2be:	5e 47 02 00 	mov.b	2(r7),	r14	;0x0002(r7)
    b2c2:	4e 93       	tst.b	r14		
    b2c4:	50 34       	jge	$+162    	;abs 0xb366
    b2c6:	4f 4e       	mov.b	r14,	r15	
    b2c8:	7f f0 0c 00 	and.b	#12,	r15	;#0x000c
    b2cc:	7f 92       	cmp.b	#8,	r15	;r2 As==11
    b2ce:	06 24       	jz	$+14     	;abs 0xb2dc
    b2d0:	7f 90 0c 00 	cmp.b	#12,	r15	;#0x000c
    b2d4:	06 24       	jz	$+14     	;abs 0xb2e2
    b2d6:	7f 40 03 00 	mov.b	#3,	r15	;#0x0003
    b2da:	05 3c       	jmp	$+12     	;abs 0xb2e6
    b2dc:	7f 40 07 00 	mov.b	#7,	r15	;#0x0007
    b2e0:	02 3c       	jmp	$+6      	;abs 0xb2e6
    b2e2:	7f 40 0d 00 	mov.b	#13,	r15	;#0x000d
    b2e6:	5d 47 01 00 	mov.b	1(r7),	r13	;0x0001(r7)
    b2ea:	3d f0 40 00 	and	#64,	r13	;#0x0040
    b2ee:	08 24       	jz	$+18     	;abs 0xb300
    b2f0:	3e b2       	bit	#8,	r14	;r2 As==11
    b2f2:	06 24       	jz	$+14     	;abs 0xb300
    b2f4:	5c 47 05 00 	mov.b	5(r7),	r12	;0x0005(r7)
    b2f8:	8c 10       	swpb	r12		
    b2fa:	5f 47 04 00 	mov.b	4(r7),	r15	;0x0004(r7)
    b2fe:	07 3c       	jmp	$+16     	;abs 0xb30e
    b300:	4f 4f       	mov.b	r15,	r15	
    b302:	0f 57       	add	r7,	r15	
    b304:	5c 4f 02 00 	mov.b	2(r15),	r12	;0x0002(r15)
    b308:	8c 10       	swpb	r12		
    b30a:	5f 4f 01 00 	mov.b	1(r15),	r15	;0x0001(r15)
    b30e:	0c df       	bis	r15,	r12	
    b310:	4d 4e       	mov.b	r14,	r13	
    b312:	7f 40 06 00 	mov.b	#6,	r15	;#0x0006
    b316:	30 40 04 b7 	br	#0xb704	
    b31a:	0d 41       	mov	r1,	r13	
    b31c:	3d 50 28 00 	add	#40,	r13	;#0x0028
    b320:	b0 12 64 5f 	call	#0x5f64	
    b324:	d2 41 28 00 3e 15 	mov.b	40(r1),	&0x153e	;0x0028(r1)
    b32a:	d2 43 40 15 	mov.b	#1,	&0x1540	;r3 As==01
    b32e:	3e 40 38 15 	mov	#5432,	r14	;#0x1538
    b332:	7f 40 07 00 	mov.b	#7,	r15	;#0x0007
    b336:	b0 12 70 64 	call	#0x6470	
    b33a:	0f 93       	tst	r15		
    b33c:	14 24       	jz	$+42     	;abs 0xb366
    b33e:	c2 43 40 15 	mov.b	#0,	&0x1540	;r3 As==00
    b342:	11 3c       	jmp	$+36     	;abs 0xb366
    b344:	5f 47 02 00 	mov.b	2(r7),	r15	;0x0002(r7)
    b348:	7e 40 06 00 	mov.b	#6,	r14	;#0x0006
    b34c:	12 c3       	clrc			
    b34e:	4f 10       	rrc.b	r15		
    b350:	7e 53       	add.b	#-1,	r14	;r3 As==11
    b352:	fc 23       	jnz	$-6      	;abs 0xb34c
    b354:	7f 90 03 00 	cmp.b	#3,	r15	;#0x0003
    b358:	06 20       	jnz	$+14     	;abs 0xb366
    b35a:	0e 41       	mov	r1,	r14	
    b35c:	3e 50 18 00 	add	#24,	r14	;#0x0018
    b360:	0f 47       	mov	r7,	r15	
    b362:	b0 12 8a 4a 	call	#0x4a8a	
    b366:	04 93       	tst	r4		
    b368:	02 20       	jnz	$+6      	;abs 0xb36e
    b36a:	30 40 4e b5 	br	#0xb54e	
    b36e:	30 40 42 b5 	br	#0xb542	
    b372:	5f 42 50 11 	mov.b	&0x1150,r15	
    b376:	3f f0 10 00 	and	#16,	r15	;#0x0010
    b37a:	02 24       	jz	$+6      	;abs 0xb380
    b37c:	30 40 4e b5 	br	#0xb54e	
    b380:	5f 47 01 00 	mov.b	1(r7),	r15	;0x0001(r7)
    b384:	3f f0 07 00 	and	#7,	r15	;#0x0007
    b388:	02 24       	jz	$+6      	;abs 0xb38e
    b38a:	30 40 4e b5 	br	#0xb54e	
    b38e:	5f 47 02 00 	mov.b	2(r7),	r15	;0x0002(r7)
    b392:	0e 4f       	mov	r15,	r14	
    b394:	3e f0 c0 00 	and	#192,	r14	;#0x00c0
    b398:	02 20       	jnz	$+6      	;abs 0xb39e
    b39a:	30 40 4e b5 	br	#0xb54e	
    b39e:	3f b0 0c 00 	bit	#12,	r15	;#0x000c
    b3a2:	02 24       	jz	$+6      	;abs 0xb3a8
    b3a4:	30 40 4e b5 	br	#0xb54e	
    b3a8:	5f 47 05 00 	mov.b	5(r7),	r15	;0x0005(r7)
    b3ac:	8f 10       	swpb	r15		
    b3ae:	5d 47 04 00 	mov.b	4(r7),	r13	;0x0004(r7)
    b3b2:	0f dd       	bis	r13,	r15	
    b3b4:	1f 92 f0 13 	cmp	&0x13f0,r15	
    b3b8:	ca 20       	jnz	$+406    	;abs 0xb54e
    b3ba:	3e 90 80 00 	cmp	#128,	r14	;#0x0080
    b3be:	0b 20       	jnz	$+24     	;abs 0xb3d6
    b3c0:	5f 47 07 00 	mov.b	7(r7),	r15	;0x0007(r7)
    b3c4:	8f 10       	swpb	r15		
    b3c6:	5e 47 06 00 	mov.b	6(r7),	r14	;0x0006(r7)
    b3ca:	0f de       	bis	r14,	r15	
    b3cc:	1f 92 ee 13 	cmp	&0x13ee,r15	
    b3d0:	be 20       	jnz	$+382    	;abs 0xb54e
    b3d2:	30 40 42 b7 	br	#0xb742	
    b3d6:	3e 90 c0 00 	cmp	#192,	r14	;#0x00c0
    b3da:	02 24       	jz	$+6      	;abs 0xb3e0
    b3dc:	30 40 42 b7 	br	#0xb742	
    b3e0:	0e 47       	mov	r7,	r14	
    b3e2:	3e 50 06 00 	add	#6,	r14	;#0x0006
    b3e6:	0f 41       	mov	r1,	r15	
    b3e8:	3f 50 28 00 	add	#40,	r15	;#0x0028
    b3ec:	b0 12 aa 47 	call	#0x47aa	
    b3f0:	91 92 fe 13 28 00 	cmp	&0x13fe,40(r1)	;0x0028(r1)
    b3f6:	ab 20       	jnz	$+344    	;abs 0xb54e
    b3f8:	91 92 00 14 2a 00 	cmp	&0x1400,42(r1)	;0x002a(r1)
    b3fe:	a7 20       	jnz	$+336    	;abs 0xb54e
    b400:	91 92 02 14 2c 00 	cmp	&0x1402,44(r1)	;0x002c(r1)
    b406:	a3 20       	jnz	$+328    	;abs 0xb54e
    b408:	91 92 04 14 2e 00 	cmp	&0x1404,46(r1)	;0x002e(r1)
    b40e:	9f 20       	jnz	$+320    	;abs 0xb54e
    b410:	30 40 42 b7 	br	#0xb742	
    b414:	7f 40 03 00 	mov.b	#3,	r15	;#0x0003
    b418:	b0 12 44 53 	call	#0x5344	
    b41c:	7f 42       	mov.b	#8,	r15	;r2 As==11
    b41e:	b0 12 30 68 	call	#0x6830	
    b422:	30 40 62 b7 	br	#0xb762	
    b426:	5b 47 01 00 	mov.b	1(r7),	r11	;0x0001(r7)
    b42a:	7b f0 07 00 	and.b	#7,	r11	;#0x0007
    b42e:	7b 90 03 00 	cmp.b	#3,	r11	;#0x0003
    b432:	04 20       	jnz	$+10     	;abs 0xb43c
    b434:	5b 47 18 00 	mov.b	24(r7),	r11	;0x0018(r7)
    b438:	7b 50 03 00 	add.b	#3,	r11	;#0x0003
    b43c:	06 42       	mov	r2,	r6	
    b43e:	36 f2       	and	#8,	r6	;r2 As==11
    b440:	32 c2       	dint			
    b442:	03 43       	nop			
    b444:	c2 93 30 11 	tst.b	&0x1130	
    b448:	03 20       	jnz	$+8      	;abs 0xb450
    b44a:	c2 93 2a 14 	tst.b	&0x142a	
    b44e:	72 24       	jz	$+230    	;abs 0xb534
    b450:	7f 40 06 00 	mov.b	#6,	r15	;#0x0006
    b454:	b0 12 44 53 	call	#0x5344	
    b458:	82 43 16 18 	mov	#0,	&0x1816	;r3 As==00
    b45c:	c2 93 30 11 	tst.b	&0x1130	
    b460:	61 24       	jz	$+196    	;abs 0xb524
    b462:	18 42 08 15 	mov	&0x1508,r8	
    b466:	5b 93       	cmp.b	#1,	r11	;r3 As==01
    b468:	04 24       	jz	$+10     	;abs 0xb472
    b46a:	7b 90 05 00 	cmp.b	#5,	r11	;#0x0005
    b46e:	5f 20       	jnz	$+192    	;abs 0xb52e
    b470:	0f 3c       	jmp	$+32     	;abs 0xb490
    b472:	08 93       	tst	r8		
    b474:	5c 24       	jz	$+186    	;abs 0xb52e
    b476:	5f 48 09 00 	mov.b	9(r8),	r15	;0x0009(r8)
    b47a:	7f 93       	cmp.b	#-1,	r15	;r3 As==11
    b47c:	02 24       	jz	$+6      	;abs 0xb482
    b47e:	b0 12 68 7b 	call	#0x7b68	
    b482:	f8 40 fe ff 09 00 	mov.b	#-2,	9(r8)	;#0xfffe, 0x0009(r8)
    b488:	0f 47       	mov	r7,	r15	
    b48a:	b0 12 d4 9b 	call	#0x9bd4	
    b48e:	4e 3c       	jmp	$+158    	;abs 0xb52c
    b490:	5f 47 1a 00 	mov.b	26(r7),	r15	;0x001a(r7)
    b494:	5e 47 19 00 	mov.b	25(r7),	r14	;0x0019(r7)
    b498:	5d 47 1b 00 	mov.b	27(r7),	r13	;0x001b(r7)
    b49c:	c2 93 ba 12 	tst.b	&0x12ba	
    b4a0:	46 24       	jz	$+142    	;abs 0xb52e
    b4a2:	f2 f0 fd ff 6c 15 	and.b	#-3,	&0x156c	;#0xfffd
    b4a8:	c2 43 ba 12 	mov.b	#0,	&0x12ba	;r3 As==00
    b4ac:	4d 93       	tst.b	r13		
    b4ae:	31 20       	jnz	$+100    	;abs 0xb512
    b4b0:	4f 4f       	mov.b	r15,	r15	
    b4b2:	8f 10       	swpb	r15		
    b4b4:	4e 4e       	mov.b	r14,	r14	
    b4b6:	0f de       	bis	r14,	r15	
    b4b8:	82 4f f2 13 	mov	r15,	&0x13f2	
    b4bc:	3e 40 f2 13 	mov	#5106,	r14	;#0x13f2
    b4c0:	7f 40 53 00 	mov.b	#83,	r15	;#0x0053
    b4c4:	b0 12 70 79 	call	#0x7970	
    b4c8:	b2 93 ee 13 	cmp	#-1,	&0x13ee	;r3 As==11
    b4cc:	30 24       	jz	$+98     	;abs 0xb52e
    b4ce:	5f 47 02 00 	mov.b	2(r7),	r15	;0x0002(r7)
    b4d2:	7e 40 06 00 	mov.b	#6,	r14	;#0x0006
    b4d6:	12 c3       	clrc			
    b4d8:	4f 10       	rrc.b	r15		
    b4da:	7e 53       	add.b	#-1,	r14	;r3 As==11
    b4dc:	fc 23       	jnz	$-6      	;abs 0xb4d6
    b4de:	7f 90 03 00 	cmp.b	#3,	r15	;#0x0003
    b4e2:	25 20       	jnz	$+76     	;abs 0xb52e
    b4e4:	0e 41       	mov	r1,	r14	
    b4e6:	3e 50 20 00 	add	#32,	r14	;#0x0020
    b4ea:	0f 47       	mov	r7,	r15	
    b4ec:	b0 12 8a 4a 	call	#0x4a8a	
    b4f0:	92 41 20 00 fe 13 	mov	32(r1),	&0x13fe	;0x0020(r1)
    b4f6:	92 41 22 00 00 14 	mov	34(r1),	&0x1400	;0x0022(r1)
    b4fc:	92 41 24 00 02 14 	mov	36(r1),	&0x1402	;0x0024(r1)
    b502:	92 41 26 00 04 14 	mov	38(r1),	&0x1404	;0x0026(r1)
    b508:	3e 40 fe 13 	mov	#5118,	r14	;#0x13fe
    b50c:	7f 40 4a 00 	mov.b	#74,	r15	;#0x004a
    b510:	06 3c       	jmp	$+14     	;abs 0xb51e
    b512:	b2 43 f0 13 	mov	#-1,	&0x13f0	;r3 As==11
    b516:	3e 40 f0 13 	mov	#5104,	r14	;#0x13f0
    b51a:	7f 40 50 00 	mov.b	#80,	r15	;#0x0050
    b51e:	b0 12 70 79 	call	#0x7970	
    b522:	05 3c       	jmp	$+12     	;abs 0xb52e
    b524:	0e 47       	mov	r7,	r14	
    b526:	4f 4b       	mov.b	r11,	r15	
    b528:	b0 12 dc 9e 	call	#0x9edc	
    b52c:	07 4f       	mov	r15,	r7	
    b52e:	b0 12 76 77 	call	#0x7776	
    b532:	05 3c       	jmp	$+12     	;abs 0xb53e
    b534:	0e 47       	mov	r7,	r14	
    b536:	4f 4b       	mov.b	r11,	r15	
    b538:	b0 12 dc 9e 	call	#0x9edc	
    b53c:	07 4f       	mov	r15,	r7	
    b53e:	06 93       	tst	r6		
    b540:	06 24       	jz	$+14     	;abs 0xb54e
    b542:	32 d2       	eint			
    b544:	04 3c       	jmp	$+10     	;abs 0xb54e
    b546:	0f 47       	mov	r7,	r15	
    b548:	b0 12 d4 9b 	call	#0x9bd4	
    b54c:	07 4f       	mov	r15,	r7	
    b54e:	82 47 8a 15 	mov	r7,	&0x158a	
    b552:	0f 42       	mov	r2,	r15	
    b554:	32 c2       	dint			
    b556:	03 43       	nop			
    b558:	c2 43 b2 12 	mov.b	#0,	&0x12b2	;r3 As==00
    b55c:	3f f2       	and	#8,	r15	;r2 As==11
    b55e:	01 24       	jz	$+4      	;abs 0xb562
    b560:	32 d2       	eint			
    b562:	b0 12 a6 97 	call	#0x97a6	
    b566:	30 40 82 b7 	br	#0xb782	
    b56a:	c2 93 71 11 	tst.b	&0x1171	
    b56e:	23 20       	jnz	$+72     	;abs 0xb5b6
    b570:	18 42 42 15 	mov	&0x1542,r8	
    b574:	19 42 44 15 	mov	&0x1544,r9	
    b578:	0d 42       	mov	r2,	r13	
    b57a:	32 c2       	dint			
    b57c:	03 43       	nop			
    b57e:	1e 42 3c 17 	mov	&0x173c,r14	
    b582:	1f 42 3e 17 	mov	&0x173e,r15	
    b586:	1e 52 38 17 	add	&0x1738,r14	
    b58a:	1f 62 3a 17 	addc	&0x173a,r15	
    b58e:	3d f2       	and	#8,	r13	;r2 As==11
    b590:	01 24       	jz	$+4      	;abs 0xb594
    b592:	32 d2       	eint			
    b594:	82 48 42 15 	mov	r8,	&0x1542	
    b598:	82 49 44 15 	mov	r9,	&0x1544	
    b59c:	c2 43 71 11 	mov.b	#0,	&0x1171	;r3 As==00
    b5a0:	0d 4e       	mov	r14,	r13	
    b5a2:	0e 4f       	mov	r15,	r14	
    b5a4:	0d 5d       	rla	r13		
    b5a6:	0e 6e       	rlc	r14		
    b5a8:	09 12       	push	r9		
    b5aa:	08 12       	push	r8		
    b5ac:	7f 40 0f 00 	mov.b	#15,	r15	;#0x000f
    b5b0:	b0 12 4a 67 	call	#0x674a	
    b5b4:	21 52       	add	#4,	r1	;r2 As==10
    b5b6:	7f 40 0f 00 	mov.b	#15,	r15	;#0x000f
    b5ba:	b0 12 3e 4d 	call	#0x4d3e	
    b5be:	0e 5e       	rla	r14		
    b5c0:	0f 6f       	rlc	r15		
    b5c2:	43 3c       	jmp	$+136    	;abs 0xb64a
    b5c4:	7f 40 0f 00 	mov.b	#15,	r15	;#0x000f
    b5c8:	b0 12 3e 4d 	call	#0x4d3e	
    b5cc:	08 4e       	mov	r14,	r8	
    b5ce:	09 4f       	mov	r15,	r9	
    b5d0:	08 58       	rla	r8		
    b5d2:	09 69       	rlc	r9		
    b5d4:	7f 40 0f 00 	mov.b	#15,	r15	;#0x000f
    b5d8:	b0 12 44 53 	call	#0x5344	
    b5dc:	4a 43       	clr.b	r10		
    b5de:	3e 43       	mov	#-1,	r14	;r3 As==11
    b5e0:	3f 40 ff 7f 	mov	#32767,	r15	;#0x7fff
    b5e4:	0b 43       	clr	r11		
    b5e6:	06 4e       	mov	r14,	r6	
    b5e8:	07 4f       	mov	r15,	r7	
    b5ea:	0e 4b       	mov	r11,	r14	
    b5ec:	0e 5e       	rla	r14		
    b5ee:	0f 4e       	mov	r14,	r15	
    b5f0:	0f 5f       	rla	r15		
    b5f2:	0f 5f       	rla	r15		
    b5f4:	0f 5e       	add	r14,	r15	
    b5f6:	3f 50 50 15 	add	#5456,	r15	;#0x1550
    b5fa:	ef b3 08 00 	bit.b	#2,	8(r15)	;r3 As==10, 0x0008(r15)
    b5fe:	15 24       	jz	$+44     	;abs 0xb62a
    b600:	0c 48       	mov	r8,	r12	
    b602:	0d 49       	mov	r9,	r13	
    b604:	2c 8f       	sub	@r15,	r12	
    b606:	1d 7f 02 00 	subc	2(r15),	r13	;0x0002(r15)
    b60a:	14 4f 04 00 	mov	4(r15),	r4	;0x0004(r15)
    b60e:	15 4f 06 00 	mov	6(r15),	r5	;0x0006(r15)
    b612:	04 8c       	sub	r12,	r4	
    b614:	05 7d       	subc	r13,	r5	
    b616:	0c 44       	mov	r4,	r12	
    b618:	0d 45       	mov	r5,	r13	
    b61a:	0d 97       	cmp	r7,	r13	
    b61c:	03 38       	jl	$+8      	;abs 0xb624
    b61e:	05 20       	jnz	$+12     	;abs 0xb62a
    b620:	04 96       	cmp	r6,	r4	
    b622:	03 2c       	jc	$+8      	;abs 0xb62a
    b624:	06 4c       	mov	r12,	r6	
    b626:	07 4d       	mov	r13,	r7	
    b628:	5a 43       	mov.b	#1,	r10	;r3 As==01
    b62a:	1b 53       	inc	r11		
    b62c:	3b 90 05 00 	cmp	#5,	r11	;#0x0005
    b630:	dc 23       	jnz	$-70     	;abs 0xb5ea
    b632:	0e 46       	mov	r6,	r14	
    b634:	0f 47       	mov	r7,	r15	
    b636:	4a 93       	tst.b	r10		
    b638:	a4 24       	jz	$+330    	;abs 0xb782
    b63a:	0f 93       	tst	r15		
    b63c:	04 38       	jl	$+10     	;abs 0xb646
    b63e:	1f 93       	cmp	#1,	r15	;r3 As==01
    b640:	07 34       	jge	$+16     	;abs 0xb650
    b642:	16 93       	cmp	#1,	r6	;r3 As==01
    b644:	05 2c       	jc	$+12     	;abs 0xb650
    b646:	0e 48       	mov	r8,	r14	
    b648:	0f 49       	mov	r9,	r15	
    b64a:	b0 12 60 85 	call	#0x8560	
    b64e:	99 3c       	jmp	$+308    	;abs 0xb782
    b650:	82 4e 42 15 	mov	r14,	&0x1542	
    b654:	82 4f 44 15 	mov	r15,	&0x1544	
    b658:	d2 43 71 11 	mov.b	#1,	&0x1171	;r3 As==01
    b65c:	0f 12       	push	r15		
    b65e:	0e 12       	push	r14		
    b660:	0d 48       	mov	r8,	r13	
    b662:	0e 49       	mov	r9,	r14	
    b664:	7f 40 0f 00 	mov.b	#15,	r15	;#0x000f
    b668:	b0 12 4a 67 	call	#0x674a	
    b66c:	21 52       	add	#4,	r1	;r2 As==10
    b66e:	89 3c       	jmp	$+276    	;abs 0xb782
    b670:	0e 42       	mov	r2,	r14	
    b672:	3e f2       	and	#8,	r14	;r2 As==11
    b674:	32 c2       	dint			
    b676:	03 43       	nop			
    b678:	1f 42 42 14 	mov	&0x1442,r15	
    b67c:	0d 4f       	mov	r15,	r13	
    b67e:	0f 5f       	rla	r15		
    b680:	0d 93       	tst	r13		
    b682:	02 34       	jge	$+6      	;abs 0xb688
    b684:	3f e0 0b 10 	xor	#4107,	r15	;#0x100b
    b688:	1f 53       	inc	r15		
    b68a:	82 4f 42 14 	mov	r15,	&0x1442	
    b68e:	1f e2 92 11 	xor	&0x1192,r15	
    b692:	0e 93       	tst	r14		
    b694:	01 24       	jz	$+4      	;abs 0xb698
    b696:	32 d2       	eint			
    b698:	c2 4f a4 11 	mov.b	r15,	&0x11a4	
    b69c:	82 43 02 18 	mov	#0,	&0x1802	;r3 As==00
    b6a0:	c2 43 0b 15 	mov.b	#0,	&0x150b	;r3 As==00
    b6a4:	3d 40 6c 00 	mov	#108,	r13	;#0x006c
    b6a8:	0e 43       	clr	r14		
    b6aa:	3f 40 fe 15 	mov	#5630,	r15	;#0x15fe
    b6ae:	b0 12 6e bd 	call	#0xbd6e	
    b6b2:	c2 43 0a 15 	mov.b	#0,	&0x150a	;r3 As==00
    b6b6:	f2 43 c0 11 	mov.b	#-1,	&0x11c0	;r3 As==11
    b6ba:	d2 43 e6 14 	mov.b	#1,	&0x14e6	;r3 As==01
    b6be:	82 43 20 15 	mov	#0,	&0x1520	;r3 As==00
    b6c2:	82 43 42 11 	mov	#0,	&0x1142	;r3 As==00
    b6c6:	82 43 0a 18 	mov	#0,	&0x180a	;r3 As==00
    b6ca:	82 43 24 18 	mov	#0,	&0x1824	;r3 As==00
    b6ce:	d2 43 6a 17 	mov.b	#1,	&0x176a	;r3 As==01
    b6d2:	d2 43 11 14 	mov.b	#1,	&0x1411	;r3 As==01
    b6d6:	c2 43 1e 15 	mov.b	#0,	&0x151e	;r3 As==00
    b6da:	53 3c       	jmp	$+168    	;abs 0xb782
    b6dc:	5f 43       	mov.b	#1,	r15	;r3 As==01
    b6de:	b0 12 2a 58 	call	#0x582a	
    b6e2:	4f 3c       	jmp	$+160    	;abs 0xb782
    b6e4:	6c 43       	mov.b	#2,	r12	;r3 As==10
    b6e6:	02 3c       	jmp	$+6      	;abs 0xb6ec
    b6e8:	7c 40 03 00 	mov.b	#3,	r12	;#0x0003
    b6ec:	5f 4b 02 00 	mov.b	2(r11),	r15	;0x0002(r11)
    b6f0:	3f f0 c0 00 	and	#192,	r15	;#0x00c0
    b6f4:	3f 90 80 00 	cmp	#128,	r15	;#0x0080
    b6f8:	02 24       	jz	$+6      	;abs 0xb6fe
    b6fa:	30 40 2e a5 	br	#0xa52e	
    b6fe:	6e 43       	mov.b	#2,	r14	;r3 As==10
    b700:	30 40 32 a5 	br	#0xa532	
    b704:	12 c3       	clrc			
    b706:	4d 10       	rrc.b	r13		
    b708:	7f 53       	add.b	#-1,	r15	;r3 As==11
    b70a:	fc 23       	jnz	$-6      	;abs 0xb704
    b70c:	3e f0 0c 00 	and	#12,	r14	;#0x000c
    b710:	0e 11       	rra	r14		
    b712:	0e 11       	rra	r14		
    b714:	0f 41       	mov	r1,	r15	
    b716:	3f 50 10 00 	add	#16,	r15	;#0x0010
    b71a:	0f 12       	push	r15		
    b71c:	4e 4e       	mov.b	r14,	r14	
    b71e:	0f 4b       	mov	r11,	r15	
    b720:	b0 12 1c 9b 	call	#0x9b1c	
    b724:	21 53       	incd	r1		
    b726:	1f 42 38 15 	mov	&0x1538,r15	
    b72a:	df d3 01 00 	bis.b	#1,	1(r15)	;r3 As==01, 0x0001(r15)
    b72e:	5e 4b 02 00 	mov.b	2(r11),	r14	;0x0002(r11)
    b732:	5f 4b 01 00 	mov.b	1(r11),	r15	;0x0001(r11)
    b736:	3f b2       	bit	#8,	r15	;r2 As==11
    b738:	02 24       	jz	$+6      	;abs 0xb73e
    b73a:	30 40 24 b3 	br	#0xb324	
    b73e:	30 40 1a b3 	br	#0xb31a	
    b742:	1b 42 06 11 	mov	&0x1106,r11	
    b746:	5f 42 50 11 	mov.b	&0x1150,r15	
    b74a:	7f d0 10 00 	bis.b	#16,	r15	;#0x0010
    b74e:	c2 4f 50 11 	mov.b	r15,	&0x1150	
    b752:	82 47 06 11 	mov	r7,	&0x1106	
    b756:	7f f0 03 00 	and.b	#3,	r15	;#0x0003
    b75a:	5f 93       	cmp.b	#1,	r15	;r3 As==01
    b75c:	02 20       	jnz	$+6      	;abs 0xb762
    b75e:	30 40 14 b4 	br	#0xb414	
    b762:	07 4b       	mov	r11,	r7	
    b764:	30 40 4e b5 	br	#0xb54e	
    b768:	0b 93       	tst	r11		
    b76a:	02 34       	jge	$+6      	;abs 0xb770
    b76c:	30 40 1a a1 	br	#0xa11a	
    b770:	02 24       	jz	$+6      	;abs 0xb776
    b772:	30 40 22 a1 	br	#0xa122	
    b776:	18 93       	cmp	#1,	r8	;r3 As==01
    b778:	02 2c       	jc	$+6      	;abs 0xb77e
    b77a:	30 40 1a a1 	br	#0xa11a	
    b77e:	30 40 22 a1 	br	#0xa122	
    b782:	31 50 3e 00 	add	#62,	r1	;#0x003e
    b786:	34 41       	pop	r4		
    b788:	35 41       	pop	r5		
    b78a:	36 41       	pop	r6		
    b78c:	37 41       	pop	r7		
    b78e:	38 41       	pop	r8		
    b790:	39 41       	pop	r9		
    b792:	3a 41       	pop	r10		
    b794:	3b 41       	pop	r11		
    b796:	30 41       	ret			

0000b798 <RealMainP__Scheduler__runNextTask>:
    b798:	f2 93 fd 17 	cmp.b	#-1,	&0x17fd	;r3 As==11
    b79c:	08 24       	jz	$+18     	;abs 0xb7ae
    b79e:	b0 12 a0 5c 	call	#0x5ca0	
    b7a2:	7f 93       	cmp.b	#-1,	r15	;r3 As==11
    b7a4:	06 24       	jz	$+14     	;abs 0xb7b2
    b7a6:	b0 12 4e a0 	call	#0xa04e	
    b7aa:	5f 43       	mov.b	#1,	r15	;r3 As==01
    b7ac:	30 41       	ret			
    b7ae:	4f 43       	clr.b	r15		
    b7b0:	30 41       	ret			
    b7b2:	4f 43       	clr.b	r15		
    b7b4:	30 41       	ret			

0000b7b6 <__nesc_atomic_start>:
    b7b6:	0f 42       	mov	r2,	r15	
    b7b8:	32 c2       	dint			
    b7ba:	03 43       	nop			
    b7bc:	3f f2       	and	#8,	r15	;r2 As==11
    b7be:	30 41       	ret			

0000b7c0 <__nesc_atomic_end>:
    b7c0:	0f 93       	tst	r15		
    b7c2:	01 24       	jz	$+4      	;abs 0xb7c6
    b7c4:	32 d2       	eint			
    b7c6:	30 41       	ret			

0000b7c8 <sig_TIMERA0_VECTOR>:
    b7c8:	0f 12       	push	r15		
    b7ca:	0e 12       	push	r14		
    b7cc:	0d 12       	push	r13		
    b7ce:	0c 12       	push	r12		
    b7d0:	4f 43       	clr.b	r15		
    b7d2:	b0 12 be 5c 	call	#0x5cbe	
    b7d6:	3c 41       	pop	r12		
    b7d8:	3d 41       	pop	r13		
    b7da:	3e 41       	pop	r14		
    b7dc:	3f 41       	pop	r15		
    b7de:	b1 c0 f0 00 00 00 	bic	#240,	0(r1)	;#0x00f0, 0x0000(r1)
    b7e4:	00 13       	reti			

0000b7e6 <sig_TIMERA1_VECTOR>:
    b7e6:	0f 12       	push	r15		
    b7e8:	0e 12       	push	r14		
    b7ea:	0d 12       	push	r13		
    b7ec:	0c 12       	push	r12		
    b7ee:	1f 42 2e 01 	mov	&0x012e,r15	
    b7f2:	4f 4f       	mov.b	r15,	r15	
    b7f4:	12 c3       	clrc			
    b7f6:	4f 10       	rrc.b	r15		
    b7f8:	b0 12 be 5c 	call	#0x5cbe	
    b7fc:	3c 41       	pop	r12		
    b7fe:	3d 41       	pop	r13		
    b800:	3e 41       	pop	r14		
    b802:	3f 41       	pop	r15		
    b804:	b1 c0 f0 00 00 00 	bic	#240,	0(r1)	;#0x00f0, 0x0000(r1)
    b80a:	00 13       	reti			

0000b80c <sig_TIMERB0_VECTOR>:
    b80c:	0f 12       	push	r15		
    b80e:	0e 12       	push	r14		
    b810:	0d 12       	push	r13		
    b812:	0c 12       	push	r12		
    b814:	4f 43       	clr.b	r15		
    b816:	b0 12 40 8d 	call	#0x8d40	
    b81a:	3c 41       	pop	r12		
    b81c:	3d 41       	pop	r13		
    b81e:	3e 41       	pop	r14		
    b820:	3f 41       	pop	r15		
    b822:	b1 c0 f0 00 00 00 	bic	#240,	0(r1)	;#0x00f0, 0x0000(r1)
    b828:	00 13       	reti			

0000b82a <sig_TIMERB1_VECTOR>:
    b82a:	0f 12       	push	r15		
    b82c:	0e 12       	push	r14		
    b82e:	0d 12       	push	r13		
    b830:	0c 12       	push	r12		
    b832:	1f 42 1e 01 	mov	&0x011e,r15	
    b836:	4f 4f       	mov.b	r15,	r15	
    b838:	12 c3       	clrc			
    b83a:	4f 10       	rrc.b	r15		
    b83c:	b0 12 40 8d 	call	#0x8d40	
    b840:	3c 41       	pop	r12		
    b842:	3d 41       	pop	r13		
    b844:	3e 41       	pop	r14		
    b846:	3f 41       	pop	r15		
    b848:	b1 c0 f0 00 00 00 	bic	#240,	0(r1)	;#0x00f0, 0x0000(r1)
    b84e:	00 13       	reti			

0000b850 <sig_PORT1_VECTOR>:
    b850:	0f 12       	push	r15		
    b852:	0e 12       	push	r14		
    b854:	0d 12       	push	r13		
    b856:	0c 12       	push	r12		
    b858:	21 83       	decd	r1		
    b85a:	5e 42 23 00 	mov.b	&0x0023,r14	
    b85e:	5f 42 25 00 	mov.b	&0x0025,r15	
    b862:	4f fe       	and.b	r14,	r15	
    b864:	c1 4f 00 00 	mov.b	r15,	0(r1)	;0x0000(r1)
    b868:	6f 41       	mov.b	@r1,	r15	
    b86a:	1f f3       	and	#1,	r15	;r3 As==01
    b86c:	0c 24       	jz	$+26     	;abs 0xb886
    b86e:	f2 f0 fe ff 23 00 	and.b	#-2,	&0x0023	;#0xfffe
    b874:	a2 93 f6 11 	cmp	#2,	&0x11f6	;r3 As==10
    b878:	03 20       	jnz	$+8      	;abs 0xb880
    b87a:	b0 12 64 97 	call	#0x9764	
    b87e:	5d 3c       	jmp	$+188    	;abs 0xb93a
    b880:	d2 53 0d 12 	inc.b	&0x120d	
    b884:	5a 3c       	jmp	$+182    	;abs 0xb93a
    b886:	6f 41       	mov.b	@r1,	r15	
    b888:	2f f3       	and	#2,	r15	;r3 As==10
    b88a:	05 24       	jz	$+12     	;abs 0xb896
    b88c:	5f 42 23 00 	mov.b	&0x0023,r15	
    b890:	7f f0 fd ff 	and.b	#-3,	r15	;#0xfffd
    b894:	50 3c       	jmp	$+162    	;abs 0xb936
    b896:	6f 41       	mov.b	@r1,	r15	
    b898:	2f f2       	and	#4,	r15	;r2 As==10
    b89a:	05 24       	jz	$+12     	;abs 0xb8a6
    b89c:	5f 42 23 00 	mov.b	&0x0023,r15	
    b8a0:	7f f0 fb ff 	and.b	#-5,	r15	;#0xfffb
    b8a4:	48 3c       	jmp	$+146    	;abs 0xb936
    b8a6:	6f 41       	mov.b	@r1,	r15	
    b8a8:	3f f2       	and	#8,	r15	;r2 As==11
    b8aa:	05 24       	jz	$+12     	;abs 0xb8b6
    b8ac:	5f 42 23 00 	mov.b	&0x0023,r15	
    b8b0:	7f f0 f7 ff 	and.b	#-9,	r15	;#0xfff7
    b8b4:	40 3c       	jmp	$+130    	;abs 0xb936
    b8b6:	6f 41       	mov.b	@r1,	r15	
    b8b8:	3f f0 10 00 	and	#16,	r15	;#0x0010
    b8bc:	23 24       	jz	$+72     	;abs 0xb904
    b8be:	f2 f0 ef ff 23 00 	and.b	#-17,	&0x0023	;#0xffef
    b8c4:	a2 42 16 11 	mov	#4,	&0x1116	;r2 As==10
    b8c8:	f2 f0 ef ff 25 00 	and.b	#-17,	&0x0025	;#0xffef
    b8ce:	f2 f0 ef ff 23 00 	and.b	#-17,	&0x0023	;#0xffef
    b8d4:	b0 12 74 46 	call	#0x4674	
    b8d8:	b0 12 7a 46 	call	#0x467a	
    b8dc:	0e 43       	clr	r14		
    b8de:	7f 40 1d 00 	mov.b	#29,	r15	;#0x001d
    b8e2:	b0 12 3a 5d 	call	#0x5d3a	
    b8e6:	b0 12 08 5e 	call	#0x5e08	
    b8ea:	b0 12 74 46 	call	#0x4674	
    b8ee:	b0 12 5c 4b 	call	#0x4b5c	
    b8f2:	b0 12 9c 4b 	call	#0x4b9c	
    b8f6:	c2 43 c4 11 	mov.b	#0,	&0x11c4	;r3 As==00
    b8fa:	7f 40 1d 00 	mov.b	#29,	r15	;#0x001d
    b8fe:	b0 12 fa 4a 	call	#0x4afa	
    b902:	1b 3c       	jmp	$+56     	;abs 0xb93a
    b904:	6f 41       	mov.b	@r1,	r15	
    b906:	3f f0 20 00 	and	#32,	r15	;#0x0020
    b90a:	05 24       	jz	$+12     	;abs 0xb916
    b90c:	5f 42 23 00 	mov.b	&0x0023,r15	
    b910:	7f f0 df ff 	and.b	#-33,	r15	;#0xffdf
    b914:	10 3c       	jmp	$+34     	;abs 0xb936
    b916:	6f 41       	mov.b	@r1,	r15	
    b918:	3f f0 40 00 	and	#64,	r15	;#0x0040
    b91c:	05 24       	jz	$+12     	;abs 0xb928
    b91e:	5f 42 23 00 	mov.b	&0x0023,r15	
    b922:	7f f0 bf ff 	and.b	#-65,	r15	;#0xffbf
    b926:	07 3c       	jmp	$+16     	;abs 0xb936
    b928:	6f 41       	mov.b	@r1,	r15	
    b92a:	4f 93       	tst.b	r15		
    b92c:	06 34       	jge	$+14     	;abs 0xb93a
    b92e:	5f 42 23 00 	mov.b	&0x0023,r15	
    b932:	7f f0 7f 00 	and.b	#127,	r15	;#0x007f
    b936:	c2 4f 23 00 	mov.b	r15,	&0x0023	
    b93a:	21 53       	incd	r1		
    b93c:	3c 41       	pop	r12		
    b93e:	3d 41       	pop	r13		
    b940:	3e 41       	pop	r14		
    b942:	3f 41       	pop	r15		
    b944:	b1 c0 f0 00 00 00 	bic	#240,	0(r1)	;#0x00f0, 0x0000(r1)
    b94a:	00 13       	reti			

0000b94c <sig_PORT2_VECTOR>:
    b94c:	0f 12       	push	r15		
    b94e:	0e 12       	push	r14		
    b950:	0d 12       	push	r13		
    b952:	0c 12       	push	r12		
    b954:	21 83       	decd	r1		
    b956:	5e 42 2b 00 	mov.b	&0x002b,r14	
    b95a:	5f 42 2d 00 	mov.b	&0x002d,r15	
    b95e:	4f fe       	and.b	r14,	r15	
    b960:	c1 4f 00 00 	mov.b	r15,	0(r1)	;0x0000(r1)
    b964:	6f 41       	mov.b	@r1,	r15	
    b966:	1f f3       	and	#1,	r15	;r3 As==01
    b968:	05 24       	jz	$+12     	;abs 0xb974
    b96a:	5f 42 2b 00 	mov.b	&0x002b,r15	
    b96e:	7f f0 fe ff 	and.b	#-2,	r15	;#0xfffe
    b972:	07 3c       	jmp	$+16     	;abs 0xb982
    b974:	6f 41       	mov.b	@r1,	r15	
    b976:	2f f3       	and	#2,	r15	;r3 As==10
    b978:	07 24       	jz	$+16     	;abs 0xb988
    b97a:	5f 42 2b 00 	mov.b	&0x002b,r15	
    b97e:	7f f0 fd ff 	and.b	#-3,	r15	;#0xfffd
    b982:	c2 4f 2b 00 	mov.b	r15,	&0x002b	
    b986:	41 3c       	jmp	$+132    	;abs 0xba0a
    b988:	6f 41       	mov.b	@r1,	r15	
    b98a:	2f f2       	and	#4,	r15	;r2 As==10
    b98c:	05 24       	jz	$+12     	;abs 0xb998
    b98e:	5f 42 2b 00 	mov.b	&0x002b,r15	
    b992:	7f f0 fb ff 	and.b	#-5,	r15	;#0xfffb
    b996:	f5 3f       	jmp	$-20     	;abs 0xb982
    b998:	6f 41       	mov.b	@r1,	r15	
    b99a:	3f f2       	and	#8,	r15	;r2 As==11
    b99c:	05 24       	jz	$+12     	;abs 0xb9a8
    b99e:	5f 42 2b 00 	mov.b	&0x002b,r15	
    b9a2:	7f f0 f7 ff 	and.b	#-9,	r15	;#0xfff7
    b9a6:	ed 3f       	jmp	$-36     	;abs 0xb982
    b9a8:	6f 41       	mov.b	@r1,	r15	
    b9aa:	3f f0 10 00 	and	#16,	r15	;#0x0010
    b9ae:	05 24       	jz	$+12     	;abs 0xb9ba
    b9b0:	5f 42 2b 00 	mov.b	&0x002b,r15	
    b9b4:	7f f0 ef ff 	and.b	#-17,	r15	;#0xffef
    b9b8:	e4 3f       	jmp	$-54     	;abs 0xb982
    b9ba:	6f 41       	mov.b	@r1,	r15	
    b9bc:	3f f0 20 00 	and	#32,	r15	;#0x0020
    b9c0:	05 24       	jz	$+12     	;abs 0xb9cc
    b9c2:	5f 42 2b 00 	mov.b	&0x002b,r15	
    b9c6:	7f f0 df ff 	and.b	#-33,	r15	;#0xffdf
    b9ca:	db 3f       	jmp	$-72     	;abs 0xb982
    b9cc:	6f 41       	mov.b	@r1,	r15	
    b9ce:	3f f0 40 00 	and	#64,	r15	;#0x0040
    b9d2:	05 24       	jz	$+12     	;abs 0xb9de
    b9d4:	5f 42 2b 00 	mov.b	&0x002b,r15	
    b9d8:	7f f0 bf ff 	and.b	#-65,	r15	;#0xffbf
    b9dc:	d2 3f       	jmp	$-90     	;abs 0xb982
    b9de:	6f 41       	mov.b	@r1,	r15	
    b9e0:	4f 93       	tst.b	r15		
    b9e2:	13 34       	jge	$+40     	;abs 0xba0a
    b9e4:	f2 f0 7f 00 2b 00 	and.b	#127,	&0x002b	;#0x007f
    b9ea:	f2 f0 7f 00 2d 00 	and.b	#127,	&0x002d	;#0x007f
    b9f0:	f2 f0 7f 00 2b 00 	and.b	#127,	&0x002b	;#0x007f
    b9f6:	5f 43       	mov.b	#1,	r15	;r3 As==01
    b9f8:	c2 93 b0 16 	tst.b	&0x16b0	
    b9fc:	01 24       	jz	$+4      	;abs 0xba00
    b9fe:	4f 43       	clr.b	r15		
    ba00:	c2 4f b0 16 	mov.b	r15,	&0x16b0	
    ba04:	6f 43       	mov.b	#2,	r15	;r3 As==10
    ba06:	b0 12 fa 4a 	call	#0x4afa	
    ba0a:	21 53       	incd	r1		
    ba0c:	3c 41       	pop	r12		
    ba0e:	3d 41       	pop	r13		
    ba10:	3e 41       	pop	r14		
    ba12:	3f 41       	pop	r15		
    ba14:	b1 c0 f0 00 00 00 	bic	#240,	0(r1)	;#0x00f0, 0x0000(r1)
    ba1a:	00 13       	reti			

0000ba1c <sig_UART0RX_VECTOR>:
    ba1c:	0f 12       	push	r15		
    ba1e:	0e 12       	push	r14		
    ba20:	0d 12       	push	r13		
    ba22:	0c 12       	push	r12		
    ba24:	5e 42 76 00 	mov.b	&0x0076,r14	
    ba28:	c2 93 b3 12 	tst.b	&0x12b3	
    ba2c:	19 24       	jz	$+52     	;abs 0xba60
    ba2e:	15 3c       	jmp	$+44     	;abs 0xba5a
    ba30:	1f 42 88 15 	mov	&0x1588,r15	
    ba34:	0f 93       	tst	r15		
    ba36:	04 24       	jz	$+10     	;abs 0xba40
    ba38:	1f 52 00 18 	add	&0x1800,r15	
    ba3c:	cf 4e ff ff 	mov.b	r14,	-1(r15)	;0xffff(r15)
    ba40:	92 92 06 18 00 18 	cmp	&0x1806,&0x1800	
    ba46:	03 2c       	jc	$+8      	;abs 0xba4e
    ba48:	b0 12 16 47 	call	#0x4716	
    ba4c:	09 3c       	jmp	$+20     	;abs 0xba60
    ba4e:	f2 f0 bf ff 00 00 	and.b	#-65,	&0x0000	;#0xffbf
    ba54:	b0 12 3e 98 	call	#0x983e	
    ba58:	03 3c       	jmp	$+8      	;abs 0xba60
    ba5a:	c2 93 01 11 	tst.b	&0x1101	
    ba5e:	e8 27       	jz	$-46     	;abs 0xba30
    ba60:	3c 41       	pop	r12		
    ba62:	3d 41       	pop	r13		
    ba64:	3e 41       	pop	r14		
    ba66:	3f 41       	pop	r15		
    ba68:	b1 c0 f0 00 00 00 	bic	#240,	0(r1)	;#0x00f0, 0x0000(r1)
    ba6e:	00 13       	reti			

0000ba70 <sig_UART0TX_VECTOR>:
    ba70:	0f 12       	push	r15		
    ba72:	5f 42 70 00 	mov.b	&0x0070,r15	
    ba76:	3f f0 20 00 	and	#32,	r15	;#0x0020
    ba7a:	06 24       	jz	$+14     	;abs 0xba88
    ba7c:	5f 42 70 00 	mov.b	&0x0070,r15	
    ba80:	2f f2       	and	#4,	r15	;r2 As==10
    ba82:	02 24       	jz	$+6      	;abs 0xba88
    ba84:	5f 42 70 00 	mov.b	&0x0070,r15	
    ba88:	3f 41       	pop	r15		
    ba8a:	b1 c0 f0 00 00 00 	bic	#240,	0(r1)	;#0x00f0, 0x0000(r1)
    ba90:	00 13       	reti			

0000ba92 <NWKP__add_neighbortableentry.part.151.constprop.269>:
    ba92:	0b 12       	push	r11		
    ba94:	0a 12       	push	r10		
    ba96:	09 12       	push	r9		
    ba98:	3b 40 fe 15 	mov	#5630,	r11	;#0x15fe
    ba9c:	0a 43       	clr	r10		
    ba9e:	8b 93 00 00 	tst	0(r11)		;0x0000(r11)
    baa2:	09 24       	jz	$+20     	;abs 0xbab6
    baa4:	1a 53       	inc	r10		
    baa6:	3b 50 12 00 	add	#18,	r11	;#0x0012
    baaa:	3a 90 06 00 	cmp	#6,	r10	;#0x0006
    baae:	f7 23       	jnz	$-16     	;abs 0xba9e
    bab0:	3f 40 fa 00 	mov	#250,	r15	;#0x00fa
    bab4:	21 3c       	jmp	$+68     	;abs 0xbaf8
    bab6:	0a 5a       	rla	r10		
    bab8:	0b 4a       	mov	r10,	r11	
    baba:	0b 5b       	rla	r11		
    babc:	0b 5b       	rla	r11		
    babe:	0b 5b       	rla	r11		
    bac0:	0b 5a       	add	r10,	r11	
    bac2:	09 4b       	mov	r11,	r9	
    bac4:	39 50 fe 15 	add	#5630,	r9	;#0x15fe
    bac8:	b9 40 3f 12 00 00 	mov	#4671,	0(r9)	;#0x123f, 0x0000(r9)
    bace:	89 4c 02 00 	mov	r12,	2(r9)	;0x0002(r9)
    bad2:	89 4d 04 00 	mov	r13,	4(r9)	;0x0004(r9)
    bad6:	89 4e 06 00 	mov	r14,	6(r9)	;0x0006(r9)
    bada:	89 4f 08 00 	mov	r15,	8(r9)	;0x0008(r9)
    bade:	99 41 08 00 0a 00 	mov	8(r1),	10(r9)	;0x0008(r1), 0x000a(r9)
    bae4:	3b 50 0a 16 	add	#5642,	r11	;#0x160a
    bae8:	db 41 0a 00 00 00 	mov.b	10(r1),	0(r11)	;0x000a(r1), 0x0000(r11)
    baee:	db 43 01 00 	mov.b	#1,	1(r11)	;r3 As==01, 0x0001(r11)
    baf2:	d2 53 0a 15 	inc.b	&0x150a	
    baf6:	0f 43       	clr	r15		
    baf8:	39 41       	pop	r9		
    bafa:	3a 41       	pop	r10		
    bafc:	3b 41       	pop	r11		
    bafe:	30 41       	ret			

0000bb00 <__mulsi3>:
    bb00:	0b 12       	push	r11		
    bb02:	0a 12       	push	r10		
    bb04:	0b 43       	clr	r11		
    bb06:	0a 43       	clr	r10		
    bb08:	08 3c       	jmp	$+18     	;abs 0xbb1a
    bb0a:	12 c3       	clrc			
    bb0c:	0d 10       	rrc	r13		
    bb0e:	0c 10       	rrc	r12		
    bb10:	02 28       	jnc	$+6      	;abs 0xbb16
    bb12:	0a 5e       	add	r14,	r10	
    bb14:	0b 6f       	addc	r15,	r11	
    bb16:	0e 5e       	rla	r14		
    bb18:	0f 6f       	rlc	r15		
    bb1a:	0c 93       	tst	r12		
    bb1c:	f6 23       	jnz	$-18     	;abs 0xbb0a
    bb1e:	0d 93       	tst	r13		
    bb20:	f4 23       	jnz	$-22     	;abs 0xbb0a
    bb22:	0e 4a       	mov	r10,	r14	
    bb24:	0f 4b       	mov	r11,	r15	
    bb26:	3a 41       	pop	r10		
    bb28:	3b 41       	pop	r11		
    bb2a:	30 41       	ret			

0000bb2c <__umulsidi3>:
    bb2c:	0b 12       	push	r11		
    bb2e:	0a 12       	push	r10		
    bb30:	09 12       	push	r9		
    bb32:	08 12       	push	r8		
    bb34:	07 12       	push	r7		
    bb36:	06 12       	push	r6		
    bb38:	05 12       	push	r5		
    bb3a:	04 12       	push	r4		
    bb3c:	08 4c       	mov	r12,	r8	
    bb3e:	09 4d       	mov	r13,	r9	
    bb40:	0a 43       	clr	r10		
    bb42:	0b 43       	clr	r11		
    bb44:	0c 4e       	mov	r14,	r12	
    bb46:	0d 4f       	mov	r15,	r13	
    bb48:	0e 43       	clr	r14		
    bb4a:	0f 43       	clr	r15		
    bb4c:	b0 12 98 bb 	call	#0xbb98	
    bb50:	34 41       	pop	r4		
    bb52:	35 41       	pop	r5		
    bb54:	36 41       	pop	r6		
    bb56:	37 41       	pop	r7		
    bb58:	38 41       	pop	r8		
    bb5a:	39 41       	pop	r9		
    bb5c:	3a 41       	pop	r10		
    bb5e:	3b 41       	pop	r11		
    bb60:	30 41       	ret			

0000bb62 <__muldi3>:
    bb62:	0b 12       	push	r11		
    bb64:	0a 12       	push	r10		
    bb66:	09 12       	push	r9		
    bb68:	08 12       	push	r8		
    bb6a:	07 12       	push	r7		
    bb6c:	06 12       	push	r6		
    bb6e:	05 12       	push	r5		
    bb70:	04 12       	push	r4		
    bb72:	18 41 12 00 	mov	18(r1),	r8	;0x0012(r1)
    bb76:	19 41 14 00 	mov	20(r1),	r9	;0x0014(r1)
    bb7a:	1a 41 16 00 	mov	22(r1),	r10	;0x0016(r1)
    bb7e:	1b 41 18 00 	mov	24(r1),	r11	;0x0018(r1)
    bb82:	b0 12 98 bb 	call	#0xbb98	
    bb86:	34 41       	pop	r4		
    bb88:	35 41       	pop	r5		
    bb8a:	36 41       	pop	r6		
    bb8c:	37 41       	pop	r7		
    bb8e:	38 41       	pop	r8		
    bb90:	39 41       	pop	r9		
    bb92:	3a 41       	pop	r10		
    bb94:	3b 41       	pop	r11		
    bb96:	30 41       	ret			

0000bb98 <__xabi_muldi3>:
    bb98:	04 43       	clr	r4		
    bb9a:	05 43       	clr	r5		
    bb9c:	06 43       	clr	r6		
    bb9e:	07 43       	clr	r7		
    bba0:	0e 3c       	jmp	$+30     	;abs 0xbbbe
    bba2:	12 c3       	clrc			
    bba4:	0b 10       	rrc	r11		
    bba6:	0a 10       	rrc	r10		
    bba8:	09 10       	rrc	r9		
    bbaa:	08 10       	rrc	r8		
    bbac:	04 28       	jnc	$+10     	;abs 0xbbb6
    bbae:	04 5c       	add	r12,	r4	
    bbb0:	05 6d       	addc	r13,	r5	
    bbb2:	06 6e       	addc	r14,	r6	
    bbb4:	07 6f       	addc	r15,	r7	
    bbb6:	0c 5c       	rla	r12		
    bbb8:	0d 6d       	rlc	r13		
    bbba:	0e 6e       	rlc	r14		
    bbbc:	0f 6f       	rlc	r15		
    bbbe:	08 93       	tst	r8		
    bbc0:	f0 23       	jnz	$-30     	;abs 0xbba2
    bbc2:	09 93       	tst	r9		
    bbc4:	ee 23       	jnz	$-34     	;abs 0xbba2
    bbc6:	0a 93       	tst	r10		
    bbc8:	ec 23       	jnz	$-38     	;abs 0xbba2
    bbca:	0b 93       	tst	r11		
    bbcc:	ea 23       	jnz	$-42     	;abs 0xbba2
    bbce:	0c 44       	mov	r4,	r12	
    bbd0:	0d 45       	mov	r5,	r13	
    bbd2:	0e 46       	mov	r6,	r14	
    bbd4:	0f 47       	mov	r7,	r15	
    bbd6:	30 41       	ret			

0000bbd8 <__udivhi3>:
    bbd8:	7c 40 10 00 	mov.b	#16,	r12	;#0x0010
    bbdc:	0d 4e       	mov	r14,	r13	
    bbde:	0e 43       	clr	r14		
    bbe0:	0f 5f       	rla	r15		
    bbe2:	0e 6e       	rlc	r14		
    bbe4:	0e 9d       	cmp	r13,	r14	
    bbe6:	02 28       	jnc	$+6      	;abs 0xbbec
    bbe8:	0e 8d       	sub	r13,	r14	
    bbea:	1f d3       	bis	#1,	r15	;r3 As==01
    bbec:	1c 83       	dec	r12		
    bbee:	f8 23       	jnz	$-14     	;abs 0xbbe0
    bbf0:	30 41       	ret			

0000bbf2 <__umodhi3>:
    bbf2:	b0 12 d8 bb 	call	#0xbbd8	
    bbf6:	0f 4e       	mov	r14,	r15	
    bbf8:	30 41       	ret			

0000bbfa <__divhi3>:
    bbfa:	0d 43       	clr	r13		
    bbfc:	0f 93       	tst	r15		
    bbfe:	04 34       	jge	$+10     	;abs 0xbc08
    bc00:	3d 40 03 00 	mov	#3,	r13	;#0x0003
    bc04:	3f e3       	inv	r15		
    bc06:	1f 53       	inc	r15		
    bc08:	0e 93       	tst	r14		
    bc0a:	03 34       	jge	$+8      	;abs 0xbc12
    bc0c:	5d e3       	xor.b	#1,	r13	;r3 As==01
    bc0e:	3e e3       	inv	r14		
    bc10:	1e 53       	inc	r14		
    bc12:	0d 12       	push	r13		
    bc14:	b0 12 d8 bb 	call	#0xbbd8	
    bc18:	3d 41       	pop	r13		
    bc1a:	6d b3       	bit.b	#2,	r13	;r3 As==10
    bc1c:	02 24       	jz	$+6      	;abs 0xbc22
    bc1e:	3e e3       	inv	r14		
    bc20:	1e 53       	inc	r14		
    bc22:	5d b3       	bit.b	#1,	r13	;r3 As==01
    bc24:	02 24       	jz	$+6      	;abs 0xbc2a
    bc26:	3f e3       	inv	r15		
    bc28:	1f 53       	inc	r15		
    bc2a:	30 41       	ret			

0000bc2c <__modhi3>:
    bc2c:	b0 12 fa bb 	call	#0xbbfa	
    bc30:	0f 4e       	mov	r14,	r15	
    bc32:	30 41       	ret			

0000bc34 <__udivsi3>:
    bc34:	0b 12       	push	r11		
    bc36:	0a 12       	push	r10		
    bc38:	09 12       	push	r9		
    bc3a:	79 40 20 00 	mov.b	#32,	r9	;#0x0020
    bc3e:	0a 4c       	mov	r12,	r10	
    bc40:	0b 4d       	mov	r13,	r11	
    bc42:	0c 43       	clr	r12		
    bc44:	0d 43       	clr	r13		
    bc46:	0e 5e       	rla	r14		
    bc48:	0f 6f       	rlc	r15		
    bc4a:	0c 6c       	rlc	r12		
    bc4c:	0d 6d       	rlc	r13		
    bc4e:	0d 9b       	cmp	r11,	r13	
    bc50:	06 28       	jnc	$+14     	;abs 0xbc5e
    bc52:	02 20       	jnz	$+6      	;abs 0xbc58
    bc54:	0c 9a       	cmp	r10,	r12	
    bc56:	03 28       	jnc	$+8      	;abs 0xbc5e
    bc58:	0c 8a       	sub	r10,	r12	
    bc5a:	0d 7b       	subc	r11,	r13	
    bc5c:	1e d3       	bis	#1,	r14	;r3 As==01
    bc5e:	19 83       	dec	r9		
    bc60:	f2 23       	jnz	$-26     	;abs 0xbc46
    bc62:	39 41       	pop	r9		
    bc64:	3a 41       	pop	r10		
    bc66:	3b 41       	pop	r11		
    bc68:	30 41       	ret			

0000bc6a <__umodsi3>:
    bc6a:	b0 12 34 bc 	call	#0xbc34	
    bc6e:	0e 4c       	mov	r12,	r14	
    bc70:	0f 4d       	mov	r13,	r15	
    bc72:	30 41       	ret			

0000bc74 <memcpy>:
    bc74:	0b 12       	push	r11		
    bc76:	0a 12       	push	r10		
    bc78:	09 12       	push	r9		
    bc7a:	08 12       	push	r8		
    bc7c:	07 12       	push	r7		
    bc7e:	0d 93       	tst	r13		
    bc80:	70 24       	jz	$+226    	;abs 0xbd62
    bc82:	0f 9e       	cmp	r14,	r15	
    bc84:	6e 24       	jz	$+222    	;abs 0xbd62
    bc86:	34 2c       	jc	$+106    	;abs 0xbcf0
    bc88:	0c 4e       	mov	r14,	r12	
    bc8a:	0c df       	bis	r15,	r12	
    bc8c:	1c f3       	and	#1,	r12	;r3 As==01
    bc8e:	1b 24       	jz	$+56     	;abs 0xbcc6
    bc90:	0c 4e       	mov	r14,	r12	
    bc92:	0c ef       	xor	r15,	r12	
    bc94:	1c f3       	and	#1,	r12	;r3 As==01
    bc96:	07 20       	jnz	$+16     	;abs 0xbca6
    bc98:	2d 93       	cmp	#2,	r13	;r3 As==10
    bc9a:	07 28       	jnc	$+16     	;abs 0xbcaa
    bc9c:	0b 4e       	mov	r14,	r11	
    bc9e:	1b f3       	and	#1,	r11	;r3 As==01
    bca0:	2c 43       	mov	#2,	r12	;r3 As==10
    bca2:	0c 8b       	sub	r11,	r12	
    bca4:	03 3c       	jmp	$+8      	;abs 0xbcac
    bca6:	0c 4d       	mov	r13,	r12	
    bca8:	01 3c       	jmp	$+4      	;abs 0xbcac
    bcaa:	1c 43       	mov	#1,	r12	;r3 As==01
    bcac:	0d 8c       	sub	r12,	r13	
    bcae:	0a 4c       	mov	r12,	r10	
    bcb0:	09 4e       	mov	r14,	r9	
    bcb2:	0b 4f       	mov	r15,	r11	
    bcb4:	fb 49 00 00 	mov.b	@r9+,	0(r11)	;0x0000(r11)
    bcb8:	1b 53       	inc	r11		
    bcba:	3a 53       	add	#-1,	r10	;r3 As==11
    bcbc:	fb 23       	jnz	$-8      	;abs 0xbcb4
    bcbe:	0a 4f       	mov	r15,	r10	
    bcc0:	0a 5c       	add	r12,	r10	
    bcc2:	0e 5c       	add	r12,	r14	
    bcc4:	01 3c       	jmp	$+4      	;abs 0xbcc8
    bcc6:	0a 4f       	mov	r15,	r10	
    bcc8:	0b 4d       	mov	r13,	r11	
    bcca:	12 c3       	clrc			
    bccc:	0b 10       	rrc	r11		
    bcce:	0b 24       	jz	$+24     	;abs 0xbce6
    bcd0:	09 4b       	mov	r11,	r9	
    bcd2:	08 4e       	mov	r14,	r8	
    bcd4:	0c 4a       	mov	r10,	r12	
    bcd6:	bc 48 00 00 	mov	@r8+,	0(r12)	;0x0000(r12)
    bcda:	2c 53       	incd	r12		
    bcdc:	39 53       	add	#-1,	r9	;r3 As==11
    bcde:	fb 23       	jnz	$-8      	;abs 0xbcd6
    bce0:	0b 5b       	rla	r11		
    bce2:	0e 5b       	add	r11,	r14	
    bce4:	0a 5b       	add	r11,	r10	
    bce6:	1d f3       	and	#1,	r13	;r3 As==01
    bce8:	3c 24       	jz	$+122    	;abs 0xbd62
    bcea:	ea 4e 00 00 	mov.b	@r14,	0(r10)	;0x0000(r10)
    bcee:	39 3c       	jmp	$+116    	;abs 0xbd62
    bcf0:	0e 5d       	add	r13,	r14	
    bcf2:	0c 4f       	mov	r15,	r12	
    bcf4:	0c 5d       	add	r13,	r12	
    bcf6:	0b 4c       	mov	r12,	r11	
    bcf8:	0b de       	bis	r14,	r11	
    bcfa:	1b f3       	and	#1,	r11	;r3 As==01
    bcfc:	1b 24       	jz	$+56     	;abs 0xbd34
    bcfe:	0b 4c       	mov	r12,	r11	
    bd00:	0b ee       	xor	r14,	r11	
    bd02:	1b f3       	and	#1,	r11	;r3 As==01
    bd04:	06 20       	jnz	$+14     	;abs 0xbd12
    bd06:	3d 90 03 00 	cmp	#3,	r13	;#0x0003
    bd0a:	03 28       	jnc	$+8      	;abs 0xbd12
    bd0c:	0b 4e       	mov	r14,	r11	
    bd0e:	1b f3       	and	#1,	r11	;r3 As==01
    bd10:	01 3c       	jmp	$+4      	;abs 0xbd14
    bd12:	0b 4d       	mov	r13,	r11	
    bd14:	0d 8b       	sub	r11,	r13	
    bd16:	09 4e       	mov	r14,	r9	
    bd18:	0a 4c       	mov	r12,	r10	
    bd1a:	08 4b       	mov	r11,	r8	
    bd1c:	08 8c       	sub	r12,	r8	
    bd1e:	3a 53       	add	#-1,	r10	;r3 As==11
    bd20:	39 53       	add	#-1,	r9	;r3 As==11
    bd22:	ea 49 00 00 	mov.b	@r9,	0(r10)	;0x0000(r10)
    bd26:	07 4a       	mov	r10,	r7	
    bd28:	07 58       	add	r8,	r7	
    bd2a:	f9 23       	jnz	$-12     	;abs 0xbd1e
    bd2c:	3b e3       	inv	r11		
    bd2e:	1b 53       	inc	r11		
    bd30:	0c 5b       	add	r11,	r12	
    bd32:	0e 5b       	add	r11,	r14	
    bd34:	0b 4d       	mov	r13,	r11	
    bd36:	12 c3       	clrc			
    bd38:	0b 10       	rrc	r11		
    bd3a:	0e 24       	jz	$+30     	;abs 0xbd58
    bd3c:	0a 4b       	mov	r11,	r10	
    bd3e:	08 4e       	mov	r14,	r8	
    bd40:	09 4c       	mov	r12,	r9	
    bd42:	28 83       	decd	r8		
    bd44:	29 83       	decd	r9		
    bd46:	a9 48 00 00 	mov	@r8,	0(r9)	;0x0000(r9)
    bd4a:	3a 53       	add	#-1,	r10	;r3 As==11
    bd4c:	fa 23       	jnz	$-10     	;abs 0xbd42
    bd4e:	0a 8b       	sub	r11,	r10	
    bd50:	0b 4a       	mov	r10,	r11	
    bd52:	0b 5b       	rla	r11		
    bd54:	0e 5b       	add	r11,	r14	
    bd56:	0c 5b       	add	r11,	r12	
    bd58:	1d f3       	and	#1,	r13	;r3 As==01
    bd5a:	03 24       	jz	$+8      	;abs 0xbd62
    bd5c:	dc 4e ff ff ff ff 	mov.b	-1(r14),-1(r12)	;0xffff(r14), 0xffff(r12)
    bd62:	37 41       	pop	r7		
    bd64:	38 41       	pop	r8		
    bd66:	39 41       	pop	r9		
    bd68:	3a 41       	pop	r10		
    bd6a:	3b 41       	pop	r11		
    bd6c:	30 41       	ret			

0000bd6e <memset>:
    bd6e:	0b 12       	push	r11		
    bd70:	0a 12       	push	r10		
    bd72:	09 12       	push	r9		
    bd74:	08 12       	push	r8		
    bd76:	3d 90 06 00 	cmp	#6,	r13	;#0x0006
    bd7a:	09 2c       	jc	$+20     	;abs 0xbd8e
    bd7c:	0c 4f       	mov	r15,	r12	
    bd7e:	04 3c       	jmp	$+10     	;abs 0xbd88
    bd80:	cc 4e 00 00 	mov.b	r14,	0(r12)	;0x0000(r12)
    bd84:	1c 53       	inc	r12		
    bd86:	3d 53       	add	#-1,	r13	;r3 As==11
    bd88:	0d 93       	tst	r13		
    bd8a:	fa 23       	jnz	$-10     	;abs 0xbd80
    bd8c:	20 3c       	jmp	$+66     	;abs 0xbdce
    bd8e:	4e 4e       	mov.b	r14,	r14	
    bd90:	4b 4e       	mov.b	r14,	r11	
    bd92:	0b 93       	tst	r11		
    bd94:	03 24       	jz	$+8      	;abs 0xbd9c
    bd96:	0c 4b       	mov	r11,	r12	
    bd98:	8c 10       	swpb	r12		
    bd9a:	0b dc       	bis	r12,	r11	
    bd9c:	1f b3       	bit	#1,	r15	;r3 As==01
    bd9e:	06 24       	jz	$+14     	;abs 0xbdac
    bda0:	3d 53       	add	#-1,	r13	;r3 As==11
    bda2:	cf 4e 00 00 	mov.b	r14,	0(r15)	;0x0000(r15)
    bda6:	09 4f       	mov	r15,	r9	
    bda8:	19 53       	inc	r9		
    bdaa:	01 3c       	jmp	$+4      	;abs 0xbdae
    bdac:	09 4f       	mov	r15,	r9	
    bdae:	0c 4d       	mov	r13,	r12	
    bdb0:	12 c3       	clrc			
    bdb2:	0c 10       	rrc	r12		
    bdb4:	0a 49       	mov	r9,	r10	
    bdb6:	08 4c       	mov	r12,	r8	
    bdb8:	8a 4b 00 00 	mov	r11,	0(r10)	;0x0000(r10)
    bdbc:	2a 53       	incd	r10		
    bdbe:	38 53       	add	#-1,	r8	;r3 As==11
    bdc0:	fb 23       	jnz	$-8      	;abs 0xbdb8
    bdc2:	0c 5c       	rla	r12		
    bdc4:	0c 59       	add	r9,	r12	
    bdc6:	1d f3       	and	#1,	r13	;r3 As==01
    bdc8:	02 24       	jz	$+6      	;abs 0xbdce
    bdca:	cc 4e 00 00 	mov.b	r14,	0(r12)	;0x0000(r12)
    bdce:	38 41       	pop	r8		
    bdd0:	39 41       	pop	r9		
    bdd2:	3a 41       	pop	r10		
    bdd4:	3b 41       	pop	r11		
    bdd6:	30 41       	ret			

0000bdd8 <_unexpected_>:
    bdd8:	00 13       	reti			

Disassembly of section .vectors:

0000ffe0 <__ivtbl_16>:
    ffe0:	b0 45 4c b9 b0 45 b0 45 50 b8 e6 b7 c8 b7 b0 45     .EL..E.EP......E
    fff0:	70 ba 1c ba b0 45 b0 45 2a b8 0c b8 b0 45 00 40     p....E.E*....E.@
